(dp0
(I5
I9
tp1
(I3
I2
tp2
s(I1
I3
tp3
(I4
I0
tp4
s(I9
I1
tp5
(I3
I5
tp6
s(I7
I3
tp7
g4
s(I5
I6
tp8
g2
s(I8
I0
tp9
g4
s(I0
I7
tp10
(I0
I5
tp11
s(I8
I9
tp12
(I1
I3
tp13
s(I0
I0
tp14
(I4
I0
tp15
s(I1
I6
tp16
g11
s(I5
I1
tp17
g4
s(I0
I3
tp18
(I2
I5
tp19
s(I2
I5
tp20
g2
s(I5
I8
tp21
g2
s(I1
I2
tp22
g11
s(I9
I0
tp23
g6
s(I4
I9
tp24
g2
s(I3
I3
tp25
g2
s(I2
I9
tp26
g2
s(I0
I6
tp27
(I3
I5
tp28
s(I8
I1
tp29
(I4
I0
tp30
s(I6
I6
tp31
(I3
I7
tp32
s(I1
I5
tp33
g2
s(I0
I4
tp34
g28
s(I5
I7
tp35
g2
s(I3
I5
tp36
g4
s(I4
I1
tp37
g2
s(I9
I7
tp38
(I2
I3
tp39
s(I6
I4
tp40
g4
s(I3
I2
tp41
g2
s(I2
I6
tp42
g2
s(I8
I2
tp43
g4
s(I7
I1
tp44
g2
s(I4
I5
tp45
g6
s(I2
I2
tp46
g11
s(I6
I0
tp47
g4
s(I1
I4
tp48
g11
s(I3
I9
tp49
g2
s(I0
I5
tp50
g2
s(I1
I9
tp51
g2
s(I8
I7
tp52
(I1
I2
tp53
s(I4
I2
tp54
g15
s(I1
I0
tp55
g15
s(I0
I8
tp56
g28
s(I9
I6
tp57
(I1
I1
tp58
s(I7
I9
tp59
(I2
I1
tp60
s(I0
I1
tp61
g15
s(I7
I0
tp62
g4
s(I4
I6
tp63
g4
s(I5
I5
tp64
g4
s(I6
I1
tp65
g2
s(I3
I1
tp66
g15
s(I5
I2
tp67
g11
s(I9
I9
tp68
(I2
I0
tp69
s(I2
I4
tp70
g4
s(I2
I0
tp71
g15
s(I1
I7
tp72
g11
s(I0
I9
tp73
(I4
I6
tp74
s(I3
I4
tp75
g2
s(I0
I2
tp76
g15
s.