(dp0
(I13
I22
tp1
(izone
Thing
p2
(dp3
S'tile'
p4
(I7
I5
tp5
sS'sheet'
p6
I6
sbs(I17
I9
tp7
(izone
Thing
p8
(dp9
g4
(I1
I10
tp10
sg6
I3
sbs(I14
I21
tp11
(izone
Thing
p12
(dp13
g4
(I1
I7
tp14
sg6
I3
sbs(I16
I20
tp15
(izone
Thing
p16
(dp17
g4
g5
sg6
I6
sbs.