(dp0
(I25
I16
tp1
(izone
Thing
p2
(dp3
S'tile'
p4
(I26
I9
tp5
sS'sheet'
p6
I0
sbs(I0
I0
tp7
(izone
Thing
p8
(dp9
g4
(I0
I0
tp10
sg6
I0
sbs(I5
I6
tp11
(izone
Thing
p12
(dp13
g4
(I15
I7
tp14
sg6
I0
sbs(I12
I6
tp15
(izone
Thing
p16
(dp17
g4
g14
sg6
I0
sbs(I8
I8
tp18
(izone
Thing
p19
(dp20
g4
g14
sg6
I0
sbs(I7
I5
tp21
(izone
Thing
p22
(dp23
g4
g14
sg6
I0
sbs(I13
I8
tp24
(izone
Thing
p25
(dp26
g4
g14
sg6
I0
sbs(I10
I3
tp27
(izone
Thing
p28
(dp29
g4
g14
sg6
I0
sbs.