(dp0
(I7
I3
tp1
(izone
Thing
p2
(dp3
S'tile'
p4
(I8
I7
tp5
sS'sheet'
p6
I0
sbs(I31
I6
tp7
(izone
Thing
p8
(dp9
g4
(I8
I7
tp10
sg6
I0
sbs(I20
I25
tp11
(izone
Thing
p12
(dp13
g4
(I8
I7
tp14
sg6
I0
sbs(I16
I9
tp15
(izone
Thing
p16
(dp17
g4
(I8
I19
tp18
sg6
I0
sbs(I6
I28
tp19
(izone
Thing
p20
(dp21
g4
(I8
I7
tp22
sg6
I0
sbs(I21
I28
tp23
(izone
Thing
p24
(dp25
g4
g22
sg6
I0
sbs(I19
I4
tp26
(izone
Thing
p27
(dp28
g4
g22
sg6
I0
sbs(I17
I20
tp29
(izone
Thing
p30
(dp31
g4
g22
sg6
I0
sbs(I7
I25
tp32
(izone
Thing
p33
(dp34
g4
g22
sg6
I0
sbs(I22
I19
tp35
(izone
Thing
p36
(dp37
g4
g22
sg6
I0
sbs(I20
I7
tp38
(izone
Thing
p39
(dp40
g4
(I8
I19
tp41
sg6
I0
sbs(I18
I19
tp42
(izone
Thing
p43
(dp44
g4
g22
sg6
I0
sbs(I23
I26
tp45
(izone
Thing
p46
(dp47
g4
g22
sg6
I0
sbs(I21
I6
tp48
(izone
Thing
p49
(dp50
g4
g22
sg6
I0
sbs(I8
I5
tp51
(izone
Thing
p52
(dp53
g4
g5
sg6
I0
sbs(I32
I2
tp54
(izone
Thing
p55
(dp56
g4
g10
sg6
I0
sbs(I35
I15
tp57
(izone
Thing
p58
(dp59
g4
(I8
I8
tp60
sg6
I0
sbs(I9
I0
tp61
(izone
Thing
p62
(dp63
g4
g22
sg6
I0
sbs(I33
I3
tp64
(izone
Thing
p65
(dp66
g4
g10
sg6
I0
sbs(I36
I8
tp67
(izone
Thing
p68
(dp69
g4
g41
sg6
I0
sbs(I10
I7
tp70
(izone
Thing
p71
(dp72
g4
g22
sg6
I0
sbs(I34
I8
tp73
(izone
Thing
p74
(dp75
g4
g41
sg6
I0
sbs(I37
I13
tp76
(izone
Thing
p77
(dp78
g4
g41
sg6
I0
sbs(I11
I22
tp79
(izone
Thing
p80
(dp81
g4
g22
sg6
I0
sbs(I35
I21
tp82
(izone
Thing
p83
(dp84
g4
g10
sg6
I0
sbs(I0
I17
tp85
(izone
Thing
p86
(dp87
g4
g5
sg6
I0
sbs(I24
I14
tp88
(izone
Thing
p89
(dp90
g4
(I8
I7
tp91
sg6
I0
sbs(I14
I1
tp92
(izone
Thing
p93
(dp94
g4
g22
sg6
I0
sbs(I38
I2
tp95
(izone
Thing
p96
(dp97
g4
g10
sg6
I0
sbs(I12
I17
tp98
(izone
Thing
p99
(dp100
g4
(I1
I7
tp101
sg6
I0
sbs(I36
I22
tp102
(izone
Thing
p103
(dp104
g4
g10
sg6
I0
sbs(I1
I28
tp105
(izone
Thing
p106
(dp107
g4
g22
sg6
I0
sbs(I25
I15
tp108
(izone
Thing
p109
(dp110
g4
g60
sg6
I0
sbs(I15
I4
tp111
(izone
Thing
p112
(dp113
g4
g22
sg6
I0
sbs(I39
I11
tp114
(izone
Thing
p115
(dp116
g4
g10
sg6
I0
sbs(I13
I20
tp117
(izone
Thing
p118
(dp119
g4
(I8
I7
tp120
sg6
I0
sbs(I37
I23
tp121
(izone
Thing
p122
(dp123
g4
g10
sg6
I0
sbs(I2
I27
tp124
(izone
Thing
p125
(dp126
g4
g22
sg6
I0
sbs(I26
I12
tp127
(izone
Thing
p128
(dp129
g4
g41
sg6
I0
sbs(I29
I17
tp130
(izone
Thing
p131
(dp132
g4
(I8
I6
tp133
sg6
I0
sbs(I3
I2
tp134
(izone
Thing
p135
(dp136
g4
g5
sg6
I0
sbs(I27
I1
tp137
(izone
Thing
p138
(dp139
g4
g10
sg6
I0
sbs(I30
I14
tp140
(izone
Thing
p141
(dp142
g4
g10
sg6
I0
sbs(I4
I5
tp143
(izone
Thing
p144
(dp145
g4
g5
sg6
I0
sbs(I28
I10
tp146
(izone
Thing
p147
(dp148
g4
g41
sg6
I0
sbs(I31
I15
tp149
(izone
Thing
p150
(dp151
g4
g60
sg6
I0
sbs(I5
I24
tp152
(izone
Thing
p153
(dp154
g4
(I8
I7
tp155
sg6
I0
sbs(I29
I11
tp156
(izone
Thing
p157
(dp158
g4
g41
sg6
I0
sbs(I16
I0
tp159
(izone
Thing
p160
(dp161
g4
g22
sg6
I0
sbs(I6
I23
tp162
(izone
Thing
p163
(dp164
g4
g155
sg6
I0
sbs(I30
I16
tp165
(izone
Thing
p166
(dp167
g4
(I5
I7
tp168
sg6
I0
sbs(I19
I13
tp169
(izone
Thing
p170
(dp171
g4
g22
sg6
I0
sbs(I17
I13
tp172
(izone
Thing
p173
(dp174
g4
(I8
I8
tp175
sg6
I0
sbs(I7
I22
tp176
(izone
Thing
p177
(dp178
g4
g155
sg6
I0
sbs(I31
I21
tp179
(izone
Thing
p180
(dp181
g4
g10
sg6
I0
sbs(I20
I14
tp182
(izone
Thing
p183
(dp184
g4
g91
sg6
I0
sbs(I18
I10
tp185
(izone
Thing
p186
(dp187
g4
(I8
I19
tp188
sg6
I0
sbs(I23
I19
tp189
(izone
Thing
p190
(dp191
g4
g10
sg6
I0
sbs(I21
I15
tp192
(izone
Thing
p193
(dp194
g4
(I8
I8
tp195
sg6
I0
sbs(I8
I12
tp196
(izone
Thing
p197
(dp198
g4
g5
sg6
I0
sbs(I32
I25
tp199
(izone
Thing
p200
(dp201
g4
g10
sg6
I0
sbs(I22
I12
tp202
(izone
Thing
p203
(dp204
g4
g41
sg6
I0
sbs(I9
I9
tp205
(izone
Thing
p206
(dp207
g4
g22
sg6
I0
sbs(I33
I4
tp208
(izone
Thing
p209
(dp210
g4
g10
sg6
I0
sbs(I23
I9
tp211
(izone
Thing
p212
(dp213
g4
g41
sg6
I0
sbs(I10
I14
tp214
(izone
Thing
p215
(dp216
g4
(I9
I7
tp217
sg6
I0
sbs(I34
I3
tp218
(izone
Thing
p219
(dp220
g4
g10
sg6
I0
sbs(I8
I18
tp221
(izone
Thing
p222
(dp223
g4
g155
sg6
I0
sbs(I11
I15
tp224
(izone
Thing
p225
(dp226
g4
(I0
I7
tp227
sg6
I0
sbs(I35
I26
tp228
(izone
Thing
p229
(dp230
g4
g10
sg6
I0
sbs(I9
I19
tp231
(izone
Thing
p232
(dp233
g4
g22
sg6
I0
sbs(I24
I21
tp234
(izone
Thing
p235
(dp236
g4
(I8
I7
tp237
sg6
I0
sbs(I14
I8
tp238
(izone
Thing
p239
(dp240
g4
g18
sg6
I0
sbs(I38
I5
tp241
(izone
Thing
p242
(dp243
g4
g10
sg6
I0
sbs(I12
I8
tp244
(izone
Thing
p245
(dp246
g4
g18
sg6
I0
sbs(I36
I29
tp247
(izone
Thing
p248
(dp249
g4
g10
sg6
I0
sbs(I1
I21
tp250
(izone
Thing
p251
(dp252
g4
g155
sg6
I0
sbs(I25
I16
tp253
(izone
Thing
p254
(dp255
g4
g168
sg6
I0
sbs(I15
I13
tp256
(izone
Thing
p257
(dp258
g4
(I7
I7
tp259
sg6
I0
sbs(I39
I0
tp260
(izone
Thing
p261
(dp262
g4
g10
sg6
I0
sbs(I13
I13
tp263
(izone
Thing
p264
(dp265
g4
(I9
I8
tp266
sg6
I0
sbs(I37
I16
tp267
(izone
Thing
p268
(dp269
g4
g168
sg6
I0
sbs(I2
I18
tp270
(izone
Thing
p271
(dp272
g4
g155
sg6
I0
sbs(I26
I23
tp273
(izone
Thing
p274
(dp275
g4
g10
sg6
I0
sbs(I0
I14
tp276
(izone
Thing
p277
(dp278
g4
g5
sg6
I0
sbs(I3
I11
tp279
(izone
Thing
p280
(dp281
g4
g5
sg6
I0
sbs(I27
I6
tp282
(izone
Thing
p283
(dp284
g4
g10
sg6
I0
sbs(I1
I15
tp285
(izone
Thing
p286
(dp287
g4
g5
sg6
I0
sbs(I4
I12
tp288
(izone
Thing
p289
(dp290
g4
g5
sg6
I0
sbs(I28
I1
tp291
(izone
Thing
p292
(dp293
g4
g10
sg6
I0
sbs(I2
I12
tp294
(izone
Thing
p295
(dp296
g4
g5
sg6
I0
sbs(I5
I1
tp297
(izone
Thing
p298
(dp299
g4
g5
sg6
I0
sbs(I29
I4
tp300
(izone
Thing
p301
(dp302
g4
g10
sg6
I0
sbs(I3
I17
tp303
(izone
Thing
p304
(dp305
g4
g5
sg6
I0
sbs(I16
I7
tp306
(izone
Thing
p307
(dp308
g4
g18
sg6
I0
sbs(I6
I14
tp309
(izone
Thing
p310
(dp311
g4
g5
sg6
I0
sbs(I30
I27
tp312
(izone
Thing
p313
(dp314
g4
g10
sg6
I0
sbs(I19
I18
tp315
(izone
Thing
p316
(dp317
g4
(I8
I7
tp318
sg6
I0
sbs(I17
I6
tp319
(izone
Thing
p320
(dp321
g4
g22
sg6
I0
sbs(I7
I15
tp322
(izone
Thing
p323
(dp324
g4
g5
sg6
I0
sbs(I31
I18
tp325
(izone
Thing
p326
(dp327
g4
g318
sg6
I0
sbs(I20
I21
tp328
(izone
Thing
p329
(dp330
g4
g14
sg6
I0
sbs(I18
I5
tp331
(izone
Thing
p332
(dp333
g4
g22
sg6
I0
sbs(I16
I29
tp334
(izone
Thing
p335
(dp336
g4
g22
sg6
I0
sbs(I21
I8
tp337
(izone
Thing
p338
(dp339
g4
g41
sg6
I0
sbs(I17
I24
tp340
(izone
Thing
p341
(dp342
g4
g22
sg6
I0
sbs(I32
I16
tp343
(izone
Thing
p344
(dp345
g4
g168
sg6
I0
sbs(I22
I7
tp346
(izone
Thing
p347
(dp348
g4
g41
sg6
I0
sbs(I33
I29
tp349
(izone
Thing
p350
(dp351
g4
g10
sg6
I0
sbs(I23
I6
tp352
(izone
Thing
p353
(dp354
g4
g22
sg6
I0
sbs(I10
I9
tp355
(izone
Thing
p356
(dp357
g4
g22
sg6
I0
sbs(I34
I26
tp358
(izone
Thing
p359
(dp360
g4
g10
sg6
I0
sbs(I8
I25
tp361
(izone
Thing
p362
(dp363
g4
g14
sg6
I0
sbs(I11
I4
tp364
(izone
Thing
p365
(dp366
g4
g22
sg6
I0
sbs(I35
I3
tp367
(izone
Thing
p368
(dp369
g4
g10
sg6
I0
sbs(I9
I20
tp370
(izone
Thing
p371
(dp372
g4
g155
sg6
I0
sbs(I24
I28
tp373
(izone
Thing
p374
(dp375
g4
g237
sg6
I0
sbs(I14
I19
tp376
(izone
Thing
p377
(dp378
g4
(I8
I6
tp379
sg6
I0
sbs(I12
I7
tp380
(izone
Thing
p381
(dp382
g4
g18
sg6
I0
sbs(I36
I4
tp383
(izone
Thing
p384
(dp385
g4
g10
sg6
I0
sbs(I10
I19
tp386
(izone
Thing
p387
(dp388
g4
(I8
I7
tp389
sg6
I0
sbs(I25
I25
tp390
(izone
Thing
p391
(dp392
g4
g10
sg6
I0
sbs(I15
I10
tp393
(izone
Thing
p394
(dp395
g4
g18
sg6
I0
sbs(I13
I6
tp396
(izone
Thing
p397
(dp398
g4
g22
sg6
I0
sbs(I37
I25
tp399
(izone
Thing
p400
(dp401
g4
g10
sg6
I0
sbs(I11
I26
tp402
(izone
Thing
p403
(dp404
g4
g14
sg6
I0
sbs(I0
I5
tp405
(izone
Thing
p406
(dp407
g4
g5
sg6
I0
sbs(I24
I2
tp408
(izone
Thing
p409
(dp410
g4
g10
sg6
I0
sbs(I38
I22
tp411
(izone
Thing
p412
(dp413
g4
g10
sg6
I0
sbs(I12
I29
tp414
(izone
Thing
p415
(dp416
g4
g22
sg6
I0
sbs(I1
I0
tp417
(izone
Thing
p418
(dp419
g4
g5
sg6
I0
sbs(I25
I3
tp420
(izone
Thing
p421
(dp422
g4
g10
sg6
I0
sbs(I39
I23
tp423
(izone
Thing
p424
(dp425
g4
g10
sg6
I0
sbs(I4
I11
tp426
(izone
Thing
p427
(dp428
g4
g5
sg6
I0
sbs(I28
I24
tp429
(izone
Thing
p430
(dp431
g4
g10
sg6
I0
sbs(I2
I7
tp432
(izone
Thing
p433
(dp434
g4
g5
sg6
I0
sbs(I5
I10
tp435
(izone
Thing
p436
(dp437
g4
g5
sg6
I0
sbs(I29
I29
tp438
(izone
Thing
p439
(dp440
g4
g10
sg6
I0
sbs(I3
I22
tp441
(izone
Thing
p442
(dp443
g4
g155
sg6
I0
sbs(I6
I1
tp444
(izone
Thing
p445
(dp446
g4
g5
sg6
I0
sbs(I30
I2
tp447
(izone
Thing
p448
(dp449
g4
g10
sg6
I0
sbs(I4
I17
tp450
(izone
Thing
p451
(dp452
g4
g5
sg6
I0
sbs(I19
I27
tp453
(izone
Thing
p454
(dp455
g4
g14
sg6
I0
sbs(I7
I4
tp456
(izone
Thing
p457
(dp458
g4
g5
sg6
I0
sbs(I31
I27
tp459
(izone
Thing
p460
(dp461
g4
g10
sg6
I0
sbs(I5
I20
tp462
(izone
Thing
p463
(dp464
g4
g155
sg6
I0
sbs(I20
I28
tp465
(izone
Thing
p466
(dp467
g4
g22
sg6
I0
sbs(I16
I20
tp468
(izone
Thing
p469
(dp470
g4
g120
sg6
I0
sbs(I6
I27
tp471
(izone
Thing
p472
(dp473
g4
g22
sg6
I0
sbs(I21
I17
tp474
(izone
Thing
p475
(dp476
g4
g133
sg6
I0
sbs(I19
I1
tp477
(izone
Thing
p478
(dp479
g4
g22
sg6
I0
sbs(I17
I17
tp480
(izone
Thing
p481
(dp482
g4
(I2
I7
tp483
sg6
I0
sbs(I32
I23
tp484
(izone
Thing
p485
(dp486
g4
g10
sg6
I0
sbs(I18
I22
tp487
(izone
Thing
p488
(dp489
g4
g22
sg6
I0
sbs(I33
I22
tp490
(izone
Thing
p491
(dp492
g4
g10
sg6
I0
sbs(I34
I21
tp493
(izone
Thing
p494
(dp495
g4
g10
sg6
I0
sbs(I8
I0
tp496
(izone
Thing
p497
(dp498
g4
g5
sg6
I0
sbs(I32
I13
tp499
(izone
Thing
p500
(dp501
g4
g41
sg6
I0
sbs(I35
I8
tp502
(izone
Thing
p503
(dp504
g4
g41
sg6
I0
sbs(I9
I29
tp505
(izone
Thing
p506
(dp507
g4
g22
sg6
I0
sbs(I33
I8
tp508
(izone
Thing
p509
(dp510
g4
g41
sg6
I0
sbs(I14
I26
tp511
(izone
Thing
p512
(dp513
g4
g22
sg6
I0
sbs(I36
I3
tp514
(izone
Thing
p515
(dp516
g4
g10
sg6
I0
sbs(I10
I26
tp517
(izone
Thing
p518
(dp519
g4
g14
sg6
I0
sbs(I34
I15
tp520
(izone
Thing
p521
(dp522
g4
g60
sg6
I0
sbs(I15
I19
tp523
(izone
Thing
p524
(dp525
g4
g379
sg6
I0
sbs(I37
I2
tp526
(izone
Thing
p527
(dp528
g4
g10
sg6
I0
sbs(I11
I19
tp529
(izone
Thing
p530
(dp531
g4
(I8
I6
tp532
sg6
I0
sbs(I26
I25
tp533
(izone
Thing
p534
(dp535
g4
g10
sg6
I0
sbs(I0
I28
tp536
(izone
Thing
p537
(dp538
g4
g22
sg6
I0
sbs(I24
I9
tp539
(izone
Thing
p540
(dp541
g4
g41
sg6
I0
sbs(I38
I9
tp542
(izone
Thing
p543
(dp544
g4
g41
sg6
I0
sbs(I12
I20
tp545
(izone
Thing
p546
(dp547
g4
g120
sg6
I0
sbs(I27
I20
tp548
(izone
Thing
p549
(dp550
g4
g10
sg6
I0
sbs(I1
I25
tp551
(izone
Thing
p552
(dp553
g4
g22
sg6
I0
sbs(I25
I4
tp554
(izone
Thing
p555
(dp556
g4
g10
sg6
I0
sbs(I39
I12
tp557
(izone
Thing
p558
(dp559
g4
g10
sg6
I0
sbs(I13
I25
tp560
(izone
Thing
p561
(dp562
g4
g22
sg6
I0
sbs(I28
I23
tp563
(izone
Thing
p564
(dp565
g4
g10
sg6
I0
sbs(I26
I3
tp566
(izone
Thing
p567
(dp568
g4
g10
sg6
I0
sbs(I29
I22
tp569
(izone
Thing
p570
(dp571
g4
g10
sg6
I0
sbs(I27
I10
tp572
(izone
Thing
p573
(dp574
g4
g41
sg6
I0
sbs(I30
I5
tp575
(izone
Thing
p576
(dp577
g4
g10
sg6
I0
sbs(I4
I24
tp578
(izone
Thing
p579
(dp580
g4
g22
sg6
I0
sbs(I28
I13
tp581
(izone
Thing
p582
(dp583
g4
g41
sg6
I0
sbs(I31
I0
tp584
(izone
Thing
p585
(dp586
g4
g10
sg6
I0
sbs(I5
I29
tp587
(izone
Thing
p588
(dp589
g4
g22
sg6
I0
sbs(I20
I27
tp590
(izone
Thing
p591
(dp592
g4
g14
sg6
I0
sbs(I16
I11
tp593
(izone
Thing
p594
(dp595
g4
g18
sg6
I0
sbs(I6
I18
tp596
(izone
Thing
p597
(dp598
g4
g155
sg6
I0
sbs(I21
I26
tp599
(izone
Thing
p600
(dp601
g4
g22
sg6
I0
sbs(I19
I6
tp602
(izone
Thing
p603
(dp604
g4
g22
sg6
I0
sbs(I17
I10
tp605
(izone
Thing
p606
(dp607
g4
g188
sg6
I0
sbs(I7
I27
tp608
(izone
Thing
p609
(dp610
g4
g14
sg6
I0
sbs(I22
I17
tp611
(izone
Thing
p612
(dp613
g4
g133
sg6
I0
sbs(I20
I1
tp614
(izone
Thing
p615
(dp616
g4
g22
sg6
I0
sbs(I18
I17
tp617
(izone
Thing
p618
(dp619
g4
(I7
I6
tp620
sg6
I0
sbs(I23
I20
tp621
(izone
Thing
p622
(dp623
g4
g237
sg6
I0
sbs(I21
I4
tp624
(izone
Thing
p625
(dp626
g4
g22
sg6
I0
sbs(I8
I7
tp627
(izone
Thing
p628
(dp629
g4
g5
sg6
I0
sbs(I32
I4
tp630
(izone
Thing
p631
(dp632
g4
g10
sg6
I0
sbs(I22
I11
tp633
(izone
Thing
p634
(dp635
g4
g41
sg6
I0
sbs(I9
I6
tp636
(izone
Thing
p637
(dp638
g4
g22
sg6
I0
sbs(I33
I1
tp639
(izone
Thing
p640
(dp641
g4
g10
sg6
I0
sbs(I14
I29
tp642
(izone
Thing
p643
(dp644
g4
g22
sg6
I0
sbs(I36
I10
tp645
(izone
Thing
p646
(dp647
g4
g41
sg6
I0
sbs(I10
I5
tp648
(izone
Thing
p649
(dp650
g4
g22
sg6
I0
sbs(I34
I6
tp651
(izone
Thing
p652
(dp653
g4
g10
sg6
I0
sbs(I15
I24
tp654
(izone
Thing
p655
(dp656
g4
g22
sg6
I0
sbs(I37
I11
tp657
(izone
Thing
p658
(dp659
g4
g41
sg6
I0
sbs(I11
I8
tp660
(izone
Thing
p661
(dp662
g4
g18
sg6
I0
sbs(I35
I23
tp663
(izone
Thing
p664
(dp665
g4
g10
sg6
I0
sbs(I0
I19
tp666
(izone
Thing
p667
(dp668
g4
g155
sg6
I0
sbs(I24
I16
tp669
(izone
Thing
p670
(dp671
g4
(I5
I7
tp672
sg6
I0
sbs(I14
I7
tp673
(izone
Thing
p674
(dp675
g4
g18
sg6
I0
sbs(I38
I0
tp676
(izone
Thing
p677
(dp678
g4
g10
sg6
I0
sbs(I12
I19
tp679
(izone
Thing
p680
(dp681
g4
(I8
I6
tp682
sg6
I0
sbs(I36
I16
tp683
(izone
Thing
p684
(dp685
g4
g168
sg6
I0
sbs(I1
I18
tp686
(izone
Thing
p687
(dp688
g4
g155
sg6
I0
sbs(I25
I13
tp689
(izone
Thing
p690
(dp691
g4
g41
sg6
I0
sbs(I15
I6
tp692
(izone
Thing
p693
(dp694
g4
g22
sg6
I0
sbs(I39
I5
tp695
(izone
Thing
p696
(dp697
g4
g10
sg6
I0
sbs(I13
I18
tp698
(izone
Thing
p699
(dp700
g4
(I1
I7
tp701
sg6
I0
sbs(I37
I21
tp702
(izone
Thing
p703
(dp704
g4
g10
sg6
I0
sbs(I2
I25
tp705
(izone
Thing
p706
(dp707
g4
g22
sg6
I0
sbs(I26
I10
tp708
(izone
Thing
p709
(dp710
g4
g41
sg6
I0
sbs(I0
I9
tp711
(izone
Thing
p712
(dp713
g4
g5
sg6
I0
sbs(I38
I26
tp714
(izone
Thing
p715
(dp716
g4
g10
sg6
I0
sbs(I3
I4
tp717
(izone
Thing
p718
(dp719
g4
g5
sg6
I0
sbs(I27
I3
tp720
(izone
Thing
p721
(dp722
g4
g10
sg6
I0
sbs(I30
I12
tp723
(izone
Thing
p724
(dp725
g4
g41
sg6
I0
sbs(I4
I7
tp726
(izone
Thing
p727
(dp728
g4
g5
sg6
I0
sbs(I28
I4
tp729
(izone
Thing
p730
(dp731
g4
g10
sg6
I0
sbs(I31
I9
tp732
(izone
Thing
p733
(dp734
g4
g41
sg6
I0
sbs(I5
I6
tp735
(izone
Thing
p736
(dp737
g4
g5
sg6
I0
sbs(I29
I9
tp738
(izone
Thing
p739
(dp740
g4
g41
sg6
I0
sbs(I16
I2
tp741
(izone
Thing
p742
(dp743
g4
g22
sg6
I0
sbs(I6
I21
tp744
(izone
Thing
p745
(dp746
g4
g155
sg6
I0
sbs(I30
I22
tp747
(izone
Thing
p748
(dp749
g4
g10
sg6
I0
sbs(I19
I15
tp750
(izone
Thing
p751
(dp752
g4
g60
sg6
I0
sbs(I17
I3
tp753
(izone
Thing
p754
(dp755
g4
g22
sg6
I0
sbs(I7
I16
tp756
(izone
Thing
p757
(dp758
g4
g5
sg6
I0
sbs(I31
I23
tp759
(izone
Thing
p760
(dp761
g4
g10
sg6
I0
sbs(I20
I8
tp762
(izone
Thing
p763
(dp764
g4
g41
sg6
I0
sbs(I18
I8
tp765
(izone
Thing
p766
(dp767
g4
g188
sg6
I0
sbs(I16
I24
tp768
(izone
Thing
p769
(dp770
g4
g22
sg6
I0
sbs(I21
I13
tp771
(izone
Thing
p772
(dp773
g4
g41
sg6
I0
sbs(I8
I14
tp774
(izone
Thing
p775
(dp776
g4
g5
sg6
I0
sbs(I32
I27
tp777
(izone
Thing
p778
(dp779
g4
g10
sg6
I0
sbs(I22
I2
tp780
(izone
Thing
p781
(dp782
g4
g22
sg6
I0
sbs(I9
I15
tp783
(izone
Thing
p784
(dp785
g4
g22
sg6
I0
sbs(I33
I26
tp786
(izone
Thing
p787
(dp788
g4
g10
sg6
I0
sbs(I23
I11
tp789
(izone
Thing
p790
(dp791
g4
g41
sg6
I0
sbs(I10
I12
tp792
(izone
Thing
p793
(dp794
g4
g22
sg6
I0
sbs(I34
I1
tp795
(izone
Thing
p796
(dp797
g4
g10
sg6
I0
sbs(I8
I20
tp798
(izone
Thing
p799
(dp800
g4
g155
sg6
I0
sbs(I11
I1
tp801
(izone
Thing
p802
(dp803
g4
g22
sg6
I0
sbs(I35
I28
tp804
(izone
Thing
p805
(dp806
g4
g10
sg6
I0
sbs(I9
I17
tp807
(izone
Thing
p808
(dp809
g4
g22
sg6
I0
sbs(I24
I23
tp810
(izone
Thing
p811
(dp812
g4
g237
sg6
I0
sbs(I14
I14
tp813
(izone
Thing
p814
(dp815
g4
(I1
I6
tp816
sg6
I0
sbs(I12
I10
tp817
(izone
Thing
p818
(dp819
g4
g18
sg6
I0
sbs(I10
I22
tp820
(izone
Thing
p821
(dp822
g4
g155
sg6
I0
sbs(I25
I22
tp823
(izone
Thing
p824
(dp825
g4
g10
sg6
I0
sbs(I15
I15
tp826
(izone
Thing
p827
(dp828
g4
(I1
I7
tp829
sg6
I0
sbs(I39
I2
tp830
(izone
Thing
p831
(dp832
g4
g10
sg6
I0
sbs(I13
I11
tp833
(izone
Thing
p834
(dp835
g4
g188
sg6
I0
sbs(I2
I16
tp836
(izone
Thing
p837
(dp838
g4
g5
sg6
I0
sbs(I26
I21
tp839
(izone
Thing
p840
(dp841
g4
g10
sg6
I0
sbs(I0
I0
tp842
(izone
Thing
p843
(dp844
g4
g5
sg6
I0
sbs(I38
I29
tp845
(izone
Thing
p846
(dp847
g4
g10
sg6
I0
sbs(I3
I13
tp848
(izone
Thing
p849
(dp850
g4
g5
sg6
I0
sbs(I27
I24
tp851
(izone
Thing
p852
(dp853
g4
g10
sg6
I0
sbs(I1
I13
tp854
(izone
Thing
p855
(dp856
g4
g5
sg6
I0
sbs(I39
I24
tp857
(izone
Thing
p858
(dp859
g4
g10
sg6
I0
sbs(I4
I14
tp860
(izone
Thing
p861
(dp862
g4
g5
sg6
I0
sbs(I28
I3
tp863
(izone
Thing
p864
(dp865
g4
g10
sg6
I0
sbs(I2
I10
tp866
(izone
Thing
p867
(dp868
g4
g5
sg6
I0
sbs(I5
I15
tp869
(izone
Thing
p870
(dp871
g4
g5
sg6
I0
sbs(I29
I2
tp872
(izone
Thing
p873
(dp874
g4
g10
sg6
I0
sbs(I3
I19
tp875
(izone
Thing
p876
(dp877
g4
g155
sg6
I0
sbs(I6
I12
tp878
(izone
Thing
p879
(dp880
g4
g5
sg6
I0
sbs(I30
I25
tp881
(izone
Thing
p882
(dp883
g4
g10
sg6
I0
sbs(I4
I20
tp884
(izone
Thing
p885
(dp886
g4
g155
sg6
I0
sbs(I19
I20
tp887
(izone
Thing
p888
(dp889
g4
g22
sg6
I0
sbs(I17
I4
tp890
(izone
Thing
p891
(dp892
g4
g22
sg6
I0
sbs(I7
I9
tp893
(izone
Thing
p894
(dp895
g4
g5
sg6
I0
sbs(I31
I28
tp896
(izone
Thing
p897
(dp898
g4
g10
sg6
I0
sbs(I20
I23
tp899
(izone
Thing
p900
(dp901
g4
g14
sg6
I0
sbs(I18
I3
tp902
(izone
Thing
p903
(dp904
g4
g22
sg6
I0
sbs(I21
I22
tp905
(izone
Thing
p906
(dp907
g4
g22
sg6
I0
sbs(I32
I18
tp908
(izone
Thing
p909
(dp910
g4
g318
sg6
I0
sbs(I22
I5
tp911
(izone
Thing
p912
(dp913
g4
g22
sg6
I0
sbs(I18
I29
tp914
(izone
Thing
p915
(dp916
g4
g22
sg6
I0
sbs(I33
I19
tp917
(izone
Thing
p918
(dp919
g4
g10
sg6
I0
sbs(I23
I0
tp920
(izone
Thing
p921
(dp922
g4
g22
sg6
I0
sbs(I34
I24
tp923
(izone
Thing
p924
(dp925
g4
g10
sg6
I0
sbs(I8
I27
tp926
(izone
Thing
p927
(dp928
g4
g14
sg6
I0
sbs(I32
I8
tp929
(izone
Thing
p930
(dp931
g4
g41
sg6
I0
sbs(I11
I6
tp932
(izone
Thing
p933
(dp934
g4
g22
sg6
I0
sbs(I35
I5
tp935
(izone
Thing
p936
(dp937
g4
g10
sg6
I0
sbs(I9
I26
tp938
(izone
Thing
p939
(dp940
g4
g22
sg6
I0
sbs(I14
I17
tp941
(izone
Thing
p942
(dp943
g4
g101
sg6
I0
sbs(I12
I1
tp944
(izone
Thing
p945
(dp946
g4
g22
sg6
I0
sbs(I36
I6
tp947
(izone
Thing
p948
(dp949
g4
g10
sg6
I0
sbs(I10
I17
tp950
(izone
Thing
p951
(dp952
g4
(I9
I7
tp953
sg6
I0
sbs(I15
I20
tp954
(izone
Thing
p955
(dp956
g4
g120
sg6
I0
sbs(I13
I4
tp957
(izone
Thing
p958
(dp959
g4
g22
sg6
I0
sbs(I37
I7
tp960
(izone
Thing
p961
(dp962
g4
g41
sg6
I0
sbs(I11
I28
tp963
(izone
Thing
p964
(dp965
g4
g22
sg6
I0
sbs(I26
I28
tp966
(izone
Thing
p967
(dp968
g4
g10
sg6
I0
sbs(I0
I7
tp969
(izone
Thing
p970
(dp971
g4
g5
sg6
I0
sbs(I24
I4
tp972
(izone
Thing
p973
(dp974
g4
g10
sg6
I0
sbs(I38
I20
tp975
(izone
Thing
p976
(dp977
g4
g10
sg6
I0
sbs(I27
I17
tp978
(izone
Thing
p979
(dp980
g4
g133
sg6
I0
sbs(I1
I6
tp981
(izone
Thing
p982
(dp983
g4
g5
sg6
I0
sbs(I25
I1
tp984
(izone
Thing
p985
(dp986
g4
g10
sg6
I0
sbs(I39
I17
tp987
(izone
Thing
p988
(dp989
g4
g133
sg6
I0
sbs(I28
I26
tp990
(izone
Thing
p991
(dp992
g4
g10
sg6
I0
sbs(I2
I5
tp993
(izone
Thing
p994
(dp995
g4
g5
sg6
I0
sbs(I26
I6
tp996
(izone
Thing
p997
(dp998
g4
g10
sg6
I0
sbs(I5
I8
tp999
(izone
Thing
p1000
(dp1001
g4
g5
sg6
I0
sbs(I29
I27
tp1002
(izone
Thing
p1003
(dp1004
g4
g10
sg6
I0
sbs(I3
I24
tp1005
(izone
Thing
p1006
(dp1007
g4
g22
sg6
I0
sbs(I6
I7
tp1008
(izone
Thing
p1009
(dp1010
g4
g5
sg6
I0
sbs(I30
I0
tp1011
(izone
Thing
p1012
(dp1013
g4
g10
sg6
I0
sbs(I4
I19
tp1014
(izone
Thing
p1015
(dp1016
g4
g155
sg6
I0
sbs(I19
I29
tp1017
(izone
Thing
p1018
(dp1019
g4
g22
sg6
I0
sbs(I7
I6
tp1020
(izone
Thing
p1021
(dp1022
g4
g5
sg6
I0
sbs(I31
I5
tp1023
(izone
Thing
p1024
(dp1025
g4
g10
sg6
I0
sbs(I5
I18
tp1026
(izone
Thing
p1027
(dp1028
g4
g155
sg6
I0
sbs(I16
I22
tp1029
(izone
Thing
p1030
(dp1031
g4
g22
sg6
I0
sbs(I6
I25
tp1032
(izone
Thing
p1033
(dp1034
g4
g22
sg6
I0
sbs(I19
I3
tp1035
(izone
Thing
p1036
(dp1037
g4
g22
sg6
I0
sbs(I17
I23
tp1038
(izone
Thing
p1039
(dp1040
g4
g22
sg6
I0
sbs(I7
I28
tp1041
(izone
Thing
p1042
(dp1043
g4
g22
sg6
I0
sbs(I22
I28
tp1044
(izone
Thing
p1045
(dp1046
g4
g22
sg6
I0
sbs(I20
I4
tp1047
(izone
Thing
p1048
(dp1049
g4
g22
sg6
I0
sbs(I18
I20
tp1050
(izone
Thing
p1051
(dp1052
g4
g22
sg6
I0
sbs(I33
I20
tp1053
(izone
Thing
p1054
(dp1055
g4
g10
sg6
I0
sbs(I23
I25
tp1056
(izone
Thing
p1057
(dp1058
g4
g22
sg6
I0
sbs(I34
I19
tp1059
(izone
Thing
p1060
(dp1061
g4
g10
sg6
I0
sbs(I8
I2
tp1062
(izone
Thing
p1063
(dp1064
g4
g5
sg6
I0
sbs(I32
I15
tp1065
(izone
Thing
p1066
(dp1067
g4
g60
sg6
I0
sbs(I35
I10
tp1068
(izone
Thing
p1069
(dp1070
g4
g41
sg6
I0
sbs(I9
I3
tp1071
(izone
Thing
p1072
(dp1073
g4
g22
sg6
I0
sbs(I33
I14
tp1074
(izone
Thing
p1075
(dp1076
g4
g10
sg6
I0
sbs(I14
I24
tp1077
(izone
Thing
p1078
(dp1079
g4
g22
sg6
I0
sbs(I36
I13
tp1080
(izone
Thing
p1081
(dp1082
g4
g41
sg6
I0
sbs(I10
I24
tp1083
(izone
Thing
p1084
(dp1085
g4
g155
sg6
I0
sbs(I34
I13
tp1086
(izone
Thing
p1087
(dp1088
g4
g41
sg6
I0
sbs(I15
I29
tp1089
(izone
Thing
p1090
(dp1091
g4
g22
sg6
I0
sbs(I37
I0
tp1092
(izone
Thing
p1093
(dp1094
g4
g10
sg6
I0
sbs(I11
I21
tp1095
(izone
Thing
p1096
(dp1097
g4
g22
sg6
I0
sbs(I35
I16
tp1098
(izone
Thing
p1099
(dp1100
g4
g168
sg6
I0
sbs(I24
I11
tp1101
(izone
Thing
p1102
(dp1103
g4
g41
sg6
I0
sbs(I14
I2
tp1104
(izone
Thing
p1105
(dp1106
g4
g22
sg6
I0
sbs(I38
I15
tp1107
(izone
Thing
p1108
(dp1109
g4
g60
sg6
I0
sbs(I12
I22
tp1110
(izone
Thing
p1111
(dp1112
g4
g22
sg6
I0
sbs(I27
I22
tp1113
(izone
Thing
p1114
(dp1115
g4
g10
sg6
I0
sbs(I25
I10
tp1116
(izone
Thing
p1117
(dp1118
g4
g41
sg6
I0
sbs(I39
I14
tp1119
(izone
Thing
p1120
(dp1121
g4
g10
sg6
I0
sbs(I13
I23
tp1122
(izone
Thing
p1123
(dp1124
g4
g22
sg6
I0
sbs(I28
I17
tp1125
(izone
Thing
p1126
(dp1127
g4
g133
sg6
I0
sbs(I2
I28
tp1128
(izone
Thing
p1129
(dp1130
g4
g22
sg6
I0
sbs(I26
I1
tp1131
(izone
Thing
p1132
(dp1133
g4
g10
sg6
I0
sbs(I29
I20
tp1134
(izone
Thing
p1135
(dp1136
g4
g10
sg6
I0
sbs(I3
I1
tp1137
(izone
Thing
p1138
(dp1139
g4
g5
sg6
I0
sbs(I27
I12
tp1140
(izone
Thing
p1141
(dp1142
g4
g41
sg6
I0
sbs(I30
I11
tp1143
(izone
Thing
p1144
(dp1145
g4
g41
sg6
I0
sbs(I4
I26
tp1146
(izone
Thing
p1147
(dp1148
g4
g22
sg6
I0
sbs(I28
I15
tp1149
(izone
Thing
p1150
(dp1151
g4
g60
sg6
I0
sbs(I31
I2
tp1152
(izone
Thing
p1153
(dp1154
g4
g10
sg6
I0
sbs(I5
I27
tp1155
(izone
Thing
p1156
(dp1157
g4
g22
sg6
I0
sbs(I29
I14
tp1158
(izone
Thing
p1159
(dp1160
g4
g10
sg6
I0
sbs(I16
I13
tp1161
(izone
Thing
p1162
(dp1163
g4
(I8
I8
tp1164
sg6
I0
sbs(I6
I16
tp1165
(izone
Thing
p1166
(dp1167
g4
g5
sg6
I0
sbs(I21
I24
tp1168
(izone
Thing
p1169
(dp1170
g4
g22
sg6
I0
sbs(I19
I8
tp1171
(izone
Thing
p1172
(dp1173
g4
g41
sg6
I0
sbs(I17
I8
tp1174
(izone
Thing
p1175
(dp1176
g4
g188
sg6
I0
sbs(I7
I21
tp1177
(izone
Thing
p1178
(dp1179
g4
g155
sg6
I0
sbs(I22
I23
tp1180
(izone
Thing
p1181
(dp1182
g4
g22
sg6
I0
sbs(I20
I3
tp1183
(izone
Thing
p1184
(dp1185
g4
g22
sg6
I0
sbs(I18
I15
tp1186
(izone
Thing
p1187
(dp1188
g4
(I7
I8
tp1189
sg6
I0
sbs(I23
I22
tp1190
(izone
Thing
p1191
(dp1192
g4
g22
sg6
I0
sbs(I21
I2
tp1193
(izone
Thing
p1194
(dp1195
g4
g22
sg6
I0
sbs(I8
I9
tp1196
(izone
Thing
p1197
(dp1198
g4
g5
sg6
I0
sbs(I32
I6
tp1199
(izone
Thing
p1200
(dp1201
g4
g10
sg6
I0
sbs(I22
I9
tp1202
(izone
Thing
p1203
(dp1204
g4
g41
sg6
I0
sbs(I9
I4
tp1205
(izone
Thing
p1206
(dp1207
g4
g22
sg6
I0
sbs(I33
I7
tp1208
(izone
Thing
p1209
(dp1210
g4
g41
sg6
I0
sbs(I23
I12
tp1211
(izone
Thing
p1212
(dp1213
g4
g41
sg6
I0
sbs(I10
I3
tp1214
(izone
Thing
p1215
(dp1216
g4
g22
sg6
I0
sbs(I34
I4
tp1217
(izone
Thing
p1218
(dp1219
g4
g10
sg6
I0
sbs(I15
I26
tp1220
(izone
Thing
p1221
(dp1222
g4
g22
sg6
I0
sbs(I37
I9
tp1223
(izone
Thing
p1224
(dp1225
g4
g41
sg6
I0
sbs(I11
I10
tp1226
(izone
Thing
p1227
(dp1228
g4
g18
sg6
I0
sbs(I35
I25
tp1229
(izone
Thing
p1230
(dp1231
g4
g10
sg6
I0
sbs(I0
I21
tp1232
(izone
Thing
p1233
(dp1234
g4
g155
sg6
I0
sbs(I24
I18
tp1235
(izone
Thing
p1236
(dp1237
g4
g318
sg6
I0
sbs(I14
I5
tp1238
(izone
Thing
p1239
(dp1240
g4
g22
sg6
I0
sbs(I38
I6
tp1241
(izone
Thing
p1242
(dp1243
g4
g10
sg6
I0
sbs(I12
I13
tp1244
(izone
Thing
p1245
(dp1246
g4
g1164
sg6
I0
sbs(I36
I18
tp1247
(izone
Thing
p1248
(dp1249
g4
g318
sg6
I0
sbs(I1
I16
tp1250
(izone
Thing
p1251
(dp1252
g4
g5
sg6
I0
sbs(I25
I19
tp1253
(izone
Thing
p1254
(dp1255
g4
g10
sg6
I0
sbs(I15
I0
tp1256
(izone
Thing
p1257
(dp1258
g4
g22
sg6
I0
sbs(I39
I7
tp1259
(izone
Thing
p1260
(dp1261
g4
g10
sg6
I0
sbs(I13
I16
tp1262
(izone
Thing
p1263
(dp1264
g4
g101
sg6
I0
sbs(I37
I19
tp1265
(izone
Thing
p1266
(dp1267
g4
g10
sg6
I0
sbs(I2
I23
tp1268
(izone
Thing
p1269
(dp1270
g4
g155
sg6
I0
sbs(I26
I8
tp1271
(izone
Thing
p1272
(dp1273
g4
g41
sg6
I0
sbs(I0
I11
tp1274
(izone
Thing
p1275
(dp1276
g4
g5
sg6
I0
sbs(I38
I24
tp1277
(izone
Thing
p1278
(dp1279
g4
g10
sg6
I0
sbs(I3
I6
tp1280
(izone
Thing
p1281
(dp1282
g4
g5
sg6
I0
sbs(I27
I5
tp1283
(izone
Thing
p1284
(dp1285
g4
g10
sg6
I0
sbs(I1
I10
tp1286
(izone
Thing
p1287
(dp1288
g4
g5
sg6
I0
sbs(I39
I29
tp1289
(izone
Thing
p1290
(dp1291
g4
g10
sg6
I0
sbs(I4
I1
tp1292
(izone
Thing
p1293
(dp1294
g4
g5
sg6
I0
sbs(I28
I6
tp1295
(izone
Thing
p1296
(dp1297
g4
g10
sg6
I0
sbs(I31
I11
tp1298
(izone
Thing
p1299
(dp1300
g4
g41
sg6
I0
sbs(I5
I4
tp1301
(izone
Thing
p1302
(dp1303
g4
g5
sg6
I0
sbs(I29
I7
tp1304
(izone
Thing
p1305
(dp1306
g4
g41
sg6
I0
sbs(I16
I4
tp1307
(izone
Thing
p1308
(dp1309
g4
g22
sg6
I0
sbs(I6
I11
tp1310
(izone
Thing
p1311
(dp1312
g4
g5
sg6
I0
sbs(I30
I20
tp1313
(izone
Thing
p1314
(dp1315
g4
g10
sg6
I0
sbs(I19
I17
tp1316
(izone
Thing
p1317
(dp1318
g4
g133
sg6
I0
sbs(I17
I1
tp1319
(izone
Thing
p1320
(dp1321
g4
g22
sg6
I0
sbs(I7
I18
tp1322
(izone
Thing
p1323
(dp1324
g4
g155
sg6
I0
sbs(I31
I17
tp1325
(izone
Thing
p1326
(dp1327
g4
g133
sg6
I0
sbs(I20
I10
tp1328
(izone
Thing
p1329
(dp1330
g4
g41
sg6
I0
sbs(I18
I6
tp1331
(izone
Thing
p1332
(dp1333
g4
g22
sg6
I0
sbs(I16
I26
tp1334
(izone
Thing
p1335
(dp1336
g4
g22
sg6
I0
sbs(I21
I11
tp1337
(izone
Thing
p1338
(dp1339
g4
g41
sg6
I0
sbs(I17
I27
tp1340
(izone
Thing
p1341
(dp1342
g4
g14
sg6
I0
sbs(I32
I29
tp1343
(izone
Thing
p1344
(dp1345
g4
g10
sg6
I0
sbs(I22
I0
tp1346
(izone
Thing
p1347
(dp1348
g4
g22
sg6
I0
sbs(I9
I13
tp1349
(izone
Thing
p1350
(dp1351
g4
g22
sg6
I0
sbs(I33
I24
tp1352
(izone
Thing
p1353
(dp1354
g4
g10
sg6
I0
sbs(I23
I5
tp1355
(izone
Thing
p1356
(dp1357
g4
g22
sg6
I0
sbs(I10
I10
tp1358
(izone
Thing
p1359
(dp1360
g4
g22
sg6
I0
sbs(I8
I22
tp1361
(izone
Thing
p1362
(dp1363
g4
g14
sg6
I0
sbs(I11
I3
tp1364
(izone
Thing
p1365
(dp1366
g4
g22
sg6
I0
sbs(I9
I23
tp1367
(izone
Thing
p1368
(dp1369
g4
g155
sg6
I0
sbs(I24
I25
tp1370
(izone
Thing
p1371
(dp1372
g4
g237
sg6
I0
sbs(I14
I12
tp1373
(izone
Thing
p1374
(dp1375
g4
(I3
I7
tp1376
sg6
I0
sbs(I12
I4
tp1377
(izone
Thing
p1378
(dp1379
g4
g22
sg6
I0
sbs(I36
I25
tp1380
(izone
Thing
p1381
(dp1382
g4
g10
sg6
I0
sbs(I10
I20
tp1383
(izone
Thing
p1384
(dp1385
g4
(I8
I7
tp1386
sg6
I0
sbs(I25
I20
tp1387
(izone
Thing
p1388
(dp1389
g4
g10
sg6
I0
sbs(I15
I9
tp1390
(izone
Thing
p1391
(dp1392
g4
g18
sg6
I0
sbs(I13
I9
tp1393
(izone
Thing
p1394
(dp1395
g4
g18
sg6
I0
sbs(I37
I28
tp1396
(izone
Thing
p1397
(dp1398
g4
g10
sg6
I0
sbs(I11
I25
tp1399
(izone
Thing
p1400
(dp1401
g4
g155
sg6
I0
sbs(I26
I19
tp1402
(izone
Thing
p1403
(dp1404
g4
g10
sg6
I0
sbs(I0
I2
tp1405
(izone
Thing
p1406
(dp1407
g4
g5
sg6
I0
sbs(I38
I19
tp1408
(izone
Thing
p1409
(dp1410
g4
g10
sg6
I0
sbs(I3
I15
tp1411
(izone
Thing
p1412
(dp1413
g4
g5
sg6
I0
sbs(I27
I26
tp1414
(izone
Thing
p1415
(dp1416
g4
g10
sg6
I0
sbs(I1
I3
tp1417
(izone
Thing
p1418
(dp1419
g4
g5
sg6
I0
sbs(I39
I26
tp1420
(izone
Thing
p1421
(dp1422
g4
g10
sg6
I0
sbs(I4
I8
tp1423
(izone
Thing
p1424
(dp1425
g4
g5
sg6
I0
sbs(I28
I29
tp1426
(izone
Thing
p1427
(dp1428
g4
g10
sg6
I0
sbs(I2
I8
tp1429
(izone
Thing
p1430
(dp1431
g4
g5
sg6
I0
sbs(I5
I13
tp1432
(izone
Thing
p1433
(dp1434
g4
g5
sg6
I0
sbs(I29
I0
tp1435
(izone
Thing
p1436
(dp1437
g4
g10
sg6
I0
sbs(I3
I21
tp1438
(izone
Thing
p1439
(dp1440
g4
g155
sg6
I0
sbs(I6
I2
tp1441
(izone
Thing
p1442
(dp1443
g4
g5
sg6
I0
sbs(I4
I22
tp1444
(izone
Thing
p1445
(dp1446
g4
g155
sg6
I0
sbs(I19
I22
tp1447
(izone
Thing
p1448
(dp1449
g4
(I8
I7
tp1450
sg6
I0
sbs(I7
I11
tp1451
(izone
Thing
p1452
(dp1453
g4
g5
sg6
I0
sbs(I5
I23
tp1454
(izone
Thing
p1455
(dp1456
g4
g155
sg6
I0
sbs(I20
I17
tp1457
(izone
Thing
p1458
(dp1459
g4
g133
sg6
I0
sbs(I18
I1
tp1460
(izone
Thing
p1461
(dp1462
g4
g22
sg6
I0
sbs(I16
I17
tp1463
(izone
Thing
p1464
(dp1465
g4
g101
sg6
I0
sbs(I21
I20
tp1466
(izone
Thing
p1467
(dp1468
g4
g22
sg6
I0
sbs(I17
I28
tp1469
(izone
Thing
p1470
(dp1471
g4
g22
sg6
I0
sbs(I32
I20
tp1472
(izone
Thing
p1473
(dp1474
g4
g10
sg6
I0
sbs(I22
I27
tp1475
(izone
Thing
p1476
(dp1477
g4
g22
sg6
I0
sbs(I18
I27
tp1478
(izone
Thing
p1479
(dp1480
g4
g14
sg6
I0
sbs(I33
I17
tp1481
(izone
Thing
p1482
(dp1483
g4
g133
sg6
I0
sbs(I23
I2
tp1484
(izone
Thing
p1485
(dp1486
g4
g22
sg6
I0
sbs(I34
I22
tp1487
(izone
Thing
p1488
(dp1489
g4
g10
sg6
I0
sbs(I8
I29
tp1490
(izone
Thing
p1491
(dp1492
g4
g22
sg6
I0
sbs(I32
I10
tp1493
(izone
Thing
p1494
(dp1495
g4
g41
sg6
I0
sbs(I35
I7
tp1496
(izone
Thing
p1497
(dp1498
g4
g41
sg6
I0
sbs(I9
I24
tp1499
(izone
Thing
p1500
(dp1501
g4
g155
sg6
I0
sbs(I33
I11
tp1502
(izone
Thing
p1503
(dp1504
g4
g41
sg6
I0
sbs(I14
I23
tp1505
(izone
Thing
p1506
(dp1507
g4
g22
sg6
I0
sbs(I12
I3
tp1508
(izone
Thing
p1509
(dp1510
g4
g22
sg6
I0
sbs(I36
I0
tp1511
(izone
Thing
p1512
(dp1513
g4
g10
sg6
I0
sbs(I25
I29
tp1514
(izone
Thing
p1515
(dp1516
g4
g10
sg6
I0
sbs(I15
I22
tp1517
(izone
Thing
p1518
(dp1519
g4
g22
sg6
I0
sbs(I13
I2
tp1520
(izone
Thing
p1521
(dp1522
g4
g22
sg6
I0
sbs(I37
I5
tp1523
(izone
Thing
p1524
(dp1525
g4
g10
sg6
I0
sbs(I26
I26
tp1526
(izone
Thing
p1527
(dp1528
g4
g10
sg6
I0
sbs(I0
I25
tp1529
(izone
Thing
p1530
(dp1531
g4
g22
sg6
I0
sbs(I24
I6
tp1532
(izone
Thing
p1533
(dp1534
g4
g10
sg6
I0
sbs(I38
I10
tp1535
(izone
Thing
p1536
(dp1537
g4
g41
sg6
I0
sbs(I12
I25
tp1538
(izone
Thing
p1539
(dp1540
g4
g155
sg6
I0
sbs(I27
I19
tp1541
(izone
Thing
p1542
(dp1543
g4
g10
sg6
I0
sbs(I1
I4
tp1544
(izone
Thing
p1545
(dp1546
g4
g5
sg6
I0
sbs(I25
I7
tp1547
(izone
Thing
p1548
(dp1549
g4
g41
sg6
I0
sbs(I39
I19
tp1550
(izone
Thing
p1551
(dp1552
g4
g10
sg6
I0
sbs(I13
I28
tp1553
(izone
Thing
p1554
(dp1555
g4
g22
sg6
I0
sbs(I28
I20
tp1556
(izone
Thing
p1557
(dp1558
g4
g10
sg6
I0
sbs(I2
I3
tp1559
(izone
Thing
p1560
(dp1561
g4
g5
sg6
I0
sbs(I26
I4
tp1562
(izone
Thing
p1563
(dp1564
g4
g10
sg6
I0
sbs(I29
I25
tp1565
(izone
Thing
p1566
(dp1567
g4
g10
sg6
I0
sbs(I3
I26
tp1568
(izone
Thing
p1569
(dp1570
g4
g22
sg6
I0
sbs(I27
I9
tp1571
(izone
Thing
p1572
(dp1573
g4
g41
sg6
I0
sbs(I6
I5
tp1574
(izone
Thing
p1575
(dp1576
g4
g5
sg6
I0
sbs(I30
I6
tp1577
(izone
Thing
p1578
(dp1579
g4
g10
sg6
I0
sbs(I4
I29
tp1580
(izone
Thing
p1581
(dp1582
g4
g22
sg6
I0
sbs(I7
I0
tp1583
(izone
Thing
p1584
(dp1585
g4
g5
sg6
I0
sbs(I31
I7
tp1586
(izone
Thing
p1587
(dp1588
g4
g41
sg6
I0
sbs(I5
I16
tp1589
(izone
Thing
p1590
(dp1591
g4
g5
sg6
I0
sbs(I20
I24
tp1592
(izone
Thing
p1593
(dp1594
g4
g14
sg6
I0
sbs(I16
I8
tp1595
(izone
Thing
p1596
(dp1597
g4
g18
sg6
I0
sbs(I21
I29
tp1598
(izone
Thing
p1599
(dp1600
g4
g22
sg6
I0
sbs(I19
I5
tp1601
(izone
Thing
p1602
(dp1603
g4
g22
sg6
I0
sbs(I17
I21
tp1604
(izone
Thing
p1605
(dp1606
g4
g22
sg6
I0
sbs(I22
I18
tp1607
(izone
Thing
p1608
(dp1609
g4
g318
sg6
I0
sbs(I20
I6
tp1610
(izone
Thing
p1611
(dp1612
g4
g22
sg6
I0
sbs(I18
I18
tp1613
(izone
Thing
p1614
(dp1615
g4
(I7
I7
tp1616
sg6
I0
sbs(I23
I27
tp1617
(izone
Thing
p1618
(dp1619
g4
g22
sg6
I0
sbs(I21
I7
tp1620
(izone
Thing
p1621
(dp1622
g4
g41
sg6
I0
sbs(I34
I17
tp1623
(izone
Thing
p1624
(dp1625
g4
g133
sg6
I0
sbs(I8
I4
tp1626
(izone
Thing
p1627
(dp1628
g4
g5
sg6
I0
sbs(I32
I1
tp1629
(izone
Thing
p1630
(dp1631
g4
g10
sg6
I0
sbs(I35
I12
tp1632
(izone
Thing
p1633
(dp1634
g4
g41
sg6
I0
sbs(I9
I1
tp1635
(izone
Thing
p1636
(dp1637
g4
g22
sg6
I0
sbs(I33
I12
tp1638
(izone
Thing
p1639
(dp1640
g4
g41
sg6
I0
sbs(I36
I15
tp1641
(izone
Thing
p1642
(dp1643
g4
g60
sg6
I0
sbs(I10
I6
tp1644
(izone
Thing
p1645
(dp1646
g4
g22
sg6
I0
sbs(I34
I11
tp1647
(izone
Thing
p1648
(dp1649
g4
g41
sg6
I0
sbs(I37
I14
tp1650
(izone
Thing
p1651
(dp1652
g4
g10
sg6
I0
sbs(I11
I23
tp1653
(izone
Thing
p1654
(dp1655
g4
g22
sg6
I0
sbs(I35
I18
tp1656
(izone
Thing
p1657
(dp1658
g4
g318
sg6
I0
sbs(I0
I16
tp1659
(izone
Thing
p1660
(dp1661
g4
g5
sg6
I0
sbs(I24
I13
tp1662
(izone
Thing
p1663
(dp1664
g4
g41
sg6
I0
sbs(I14
I0
tp1665
(izone
Thing
p1666
(dp1667
g4
g22
sg6
I0
sbs(I38
I13
tp1668
(izone
Thing
p1669
(dp1670
g4
g41
sg6
I0
sbs(I12
I16
tp1671
(izone
Thing
p1672
(dp1673
g4
g101
sg6
I0
sbs(I36
I21
tp1674
(izone
Thing
p1675
(dp1676
g4
g10
sg6
I0
sbs(I1
I29
tp1677
(izone
Thing
p1678
(dp1679
g4
g22
sg6
I0
sbs(I25
I8
tp1680
(izone
Thing
p1681
(dp1682
g4
g41
sg6
I0
sbs(I15
I5
tp1683
(izone
Thing
p1684
(dp1685
g4
g22
sg6
I0
sbs(I39
I8
tp1686
(izone
Thing
p1687
(dp1688
g4
g10
sg6
I0
sbs(I13
I21
tp1689
(izone
Thing
p1690
(dp1691
g4
g22
sg6
I0
sbs(I28
I19
tp1692
(izone
Thing
p1693
(dp1694
g4
g10
sg6
I0
sbs(I2
I26
tp1695
(izone
Thing
p1696
(dp1697
g4
g22
sg6
I0
sbs(I26
I15
tp1698
(izone
Thing
p1699
(dp1700
g4
g60
sg6
I0
sbs(I29
I18
tp1701
(izone
Thing
p1702
(dp1703
g4
g318
sg6
I0
sbs(I3
I3
tp1704
(izone
Thing
p1705
(dp1706
g4
g5
sg6
I0
sbs(I27
I14
tp1707
(izone
Thing
p1708
(dp1709
g4
g10
sg6
I0
sbs(I30
I9
tp1710
(izone
Thing
p1711
(dp1712
g4
g41
sg6
I0
sbs(I4
I4
tp1713
(izone
Thing
p1714
(dp1715
g4
g5
sg6
I0
sbs(I28
I9
tp1716
(izone
Thing
p1717
(dp1718
g4
g41
sg6
I0
sbs(I31
I12
tp1719
(izone
Thing
p1720
(dp1721
g4
g41
sg6
I0
sbs(I5
I25
tp1722
(izone
Thing
p1723
(dp1724
g4
g22
sg6
I0
sbs(I29
I12
tp1725
(izone
Thing
p1726
(dp1727
g4
g41
sg6
I0
sbs(I16
I15
tp1728
(izone
Thing
p1729
(dp1730
g4
g101
sg6
I0
sbs(I6
I22
tp1731
(izone
Thing
p1732
(dp1733
g4
g155
sg6
I0
sbs(I30
I19
tp1734
(izone
Thing
p1735
(dp1736
g4
g10
sg6
I0
sbs(I19
I10
tp1737
(izone
Thing
p1738
(dp1739
g4
g41
sg6
I0
sbs(I17
I14
tp1740
(izone
Thing
p1741
(dp1742
g4
(I2
I6
tp1743
sg6
I0
sbs(I7
I23
tp1744
(izone
Thing
p1745
(dp1746
g4
g155
sg6
I0
sbs(I22
I21
tp1747
(izone
Thing
p1748
(dp1749
g4
g22
sg6
I0
sbs(I20
I13
tp1750
(izone
Thing
p1751
(dp1752
g4
g41
sg6
I0
sbs(I18
I13
tp1753
(izone
Thing
p1754
(dp1755
g4
g389
sg6
I0
sbs(I23
I16
tp1756
(izone
Thing
p1757
(dp1758
g4
g168
sg6
I0
sbs(I21
I0
tp1759
(izone
Thing
p1760
(dp1761
g4
g22
sg6
I0
sbs(I8
I11
tp1762
(izone
Thing
p1763
(dp1764
g4
g5
sg6
I0
sbs(I32
I24
tp1765
(izone
Thing
p1766
(dp1767
g4
g10
sg6
I0
sbs(I22
I15
tp1768
(izone
Thing
p1769
(dp1770
g4
g195
sg6
I0
sbs(I9
I10
tp1771
(izone
Thing
p1772
(dp1773
g4
g22
sg6
I0
sbs(I33
I5
tp1774
(izone
Thing
p1775
(dp1776
g4
g10
sg6
I0
sbs(I23
I14
tp1777
(izone
Thing
p1778
(dp1779
g4
g91
sg6
I0
sbs(I10
I1
tp1780
(izone
Thing
p1781
(dp1782
g4
g22
sg6
I0
sbs(I34
I2
tp1783
(izone
Thing
p1784
(dp1785
g4
g10
sg6
I0
sbs(I8
I17
tp1786
(izone
Thing
p1787
(dp1788
g4
g5
sg6
I0
sbs(I11
I12
tp1789
(izone
Thing
p1790
(dp1791
g4
g22
sg6
I0
sbs(I35
I27
tp1792
(izone
Thing
p1793
(dp1794
g4
g10
sg6
I0
sbs(I0
I23
tp1795
(izone
Thing
p1796
(dp1797
g4
g155
sg6
I0
sbs(I24
I20
tp1798
(izone
Thing
p1799
(dp1800
g4
g237
sg6
I0
sbs(I14
I11
tp1801
(izone
Thing
p1802
(dp1803
g4
g18
sg6
I0
sbs(I38
I4
tp1804
(izone
Thing
p1805
(dp1806
g4
g10
sg6
I0
sbs(I12
I15
tp1807
(izone
Thing
p1808
(dp1809
g4
g101
sg6
I0
sbs(I36
I28
tp1810
(izone
Thing
p1811
(dp1812
g4
g10
sg6
I0
sbs(I1
I22
tp1813
(izone
Thing
p1814
(dp1815
g4
g155
sg6
I0
sbs(I25
I17
tp1816
(izone
Thing
p1817
(dp1818
g4
g133
sg6
I0
sbs(I15
I2
tp1819
(izone
Thing
p1820
(dp1821
g4
g22
sg6
I0
sbs(I39
I1
tp1822
(izone
Thing
p1823
(dp1824
g4
g10
sg6
I0
sbs(I13
I14
tp1825
(izone
Thing
p1826
(dp1827
g4
g816
sg6
I0
sbs(I37
I17
tp1828
(izone
Thing
p1829
(dp1830
g4
g133
sg6
I0
sbs(I2
I21
tp1831
(izone
Thing
p1832
(dp1833
g4
g155
sg6
I0
sbs(I26
I22
tp1834
(izone
Thing
p1835
(dp1836
g4
g10
sg6
I0
sbs(I0
I13
tp1837
(izone
Thing
p1838
(dp1839
g4
g5
sg6
I0
sbs(I3
I8
tp1840
(izone
Thing
p1841
(dp1842
g4
g5
sg6
I0
sbs(I27
I7
tp1843
(izone
Thing
p1844
(dp1845
g4
g41
sg6
I0
sbs(I1
I8
tp1846
(izone
Thing
p1847
(dp1848
g4
g5
sg6
I0
sbs(I4
I3
tp1849
(izone
Thing
p1850
(dp1851
g4
g5
sg6
I0
sbs(I28
I0
tp1852
(izone
Thing
p1853
(dp1854
g4
g10
sg6
I0
sbs(I2
I15
tp1855
(izone
Thing
p1856
(dp1857
g4
g5
sg6
I0
sbs(I5
I2
tp1858
(izone
Thing
p1859
(dp1860
g4
g5
sg6
I0
sbs(I29
I5
tp1861
(izone
Thing
p1862
(dp1863
g4
g10
sg6
I0
sbs(I16
I6
tp1864
(izone
Thing
p1865
(dp1866
g4
g22
sg6
I0
sbs(I6
I9
tp1867
(izone
Thing
p1868
(dp1869
g4
g5
sg6
I0
sbs(I30
I26
tp1870
(izone
Thing
p1871
(dp1872
g4
g10
sg6
I0
sbs(I19
I19
tp1873
(izone
Thing
p1874
(dp1875
g4
g22
sg6
I0
sbs(I17
I7
tp1876
(izone
Thing
p1877
(dp1878
g4
g188
sg6
I0
sbs(I7
I12
tp1879
(izone
Thing
p1880
(dp1881
g4
g5
sg6
I0
sbs(I31
I19
tp1882
(izone
Thing
p1883
(dp1884
g4
g10
sg6
I0
sbs(I20
I20
tp1885
(izone
Thing
p1886
(dp1887
g4
(I8
I7
tp1888
sg6
I0
sbs(I18
I4
tp1889
(izone
Thing
p1890
(dp1891
g4
g22
sg6
I0
sbs(I16
I28
tp1892
(izone
Thing
p1893
(dp1894
g4
g22
sg6
I0
sbs(I21
I9
tp1895
(izone
Thing
p1896
(dp1897
g4
g41
sg6
I0
sbs(I17
I25
tp1898
(izone
Thing
p1899
(dp1900
g4
g22
sg6
I0
sbs(I22
I6
tp1901
(izone
Thing
p1902
(dp1903
g4
g22
sg6
I0
sbs(I23
I7
tp1904
(izone
Thing
p1905
(dp1906
g4
g41
sg6
I0
sbs(I10
I8
tp1907
(izone
Thing
p1908
(dp1909
g4
g22
sg6
I0
sbs(I34
I29
tp1910
(izone
Thing
p1911
(dp1912
g4
g10
sg6
I0
sbs(I8
I24
tp1913
(izone
Thing
p1914
(dp1915
g4
g14
sg6
I0
sbs(I11
I5
tp1916
(izone
Thing
p1917
(dp1918
g4
g22
sg6
I0
sbs(I35
I0
tp1919
(izone
Thing
p1920
(dp1921
g4
g10
sg6
I0
sbs(I9
I21
tp1922
(izone
Thing
p1923
(dp1924
g4
g155
sg6
I0
sbs(I24
I27
tp1925
(izone
Thing
p1926
(dp1927
g4
g237
sg6
I0
sbs(I14
I18
tp1928
(izone
Thing
p1929
(dp1930
g4
(I1
I7
tp1931
sg6
I0
sbs(I12
I6
tp1932
(izone
Thing
p1933
(dp1934
g4
g22
sg6
I0
sbs(I36
I27
tp1935
(izone
Thing
p1936
(dp1937
g4
g10
sg6
I0
sbs(I10
I18
tp1938
(izone
Thing
p1939
(dp1940
g4
g953
sg6
I0
sbs(I25
I26
tp1941
(izone
Thing
p1942
(dp1943
g4
g10
sg6
I0
sbs(I15
I11
tp1944
(izone
Thing
p1945
(dp1946
g4
g18
sg6
I0
sbs(I13
I7
tp1947
(izone
Thing
p1948
(dp1949
g4
g18
sg6
I0
sbs(I37
I26
tp1950
(izone
Thing
p1951
(dp1952
g4
g10
sg6
I0
sbs(I11
I27
tp1953
(izone
Thing
p1954
(dp1955
g4
g14
sg6
I0
sbs(I26
I17
tp1956
(izone
Thing
p1957
(dp1958
g4
g133
sg6
I0
sbs(I0
I4
tp1959
(izone
Thing
p1960
(dp1961
g4
g5
sg6
I0
sbs(I24
I1
tp1962
(izone
Thing
p1963
(dp1964
g4
g10
sg6
I0
sbs(I38
I17
tp1965
(izone
Thing
p1966
(dp1967
g4
g133
sg6
I0
sbs(I12
I28
tp1968
(izone
Thing
p1969
(dp1970
g4
g22
sg6
I0
sbs(I27
I28
tp1971
(izone
Thing
p1972
(dp1973
g4
g10
sg6
I0
sbs(I1
I1
tp1974
(izone
Thing
p1975
(dp1976
g4
g5
sg6
I0
sbs(I39
I20
tp1977
(izone
Thing
p1978
(dp1979
g4
g10
sg6
I0
sbs(I4
I10
tp1980
(izone
Thing
p1981
(dp1982
g4
g5
sg6
I0
sbs(I2
I6
tp1983
(izone
Thing
p1984
(dp1985
g4
g5
sg6
I0
sbs(I5
I11
tp1986
(izone
Thing
p1987
(dp1988
g4
g5
sg6
I0
sbs(I3
I23
tp1989
(izone
Thing
p1990
(dp1991
g4
g155
sg6
I0
sbs(I6
I0
tp1992
(izone
Thing
p1993
(dp1994
g4
g5
sg6
I0
sbs(I30
I29
tp1995
(izone
Thing
p1996
(dp1997
g4
g10
sg6
I0
sbs(I4
I16
tp1998
(izone
Thing
p1999
(dp2000
g4
g5
sg6
I0
sbs(I19
I24
tp2001
(izone
Thing
p2002
(dp2003
g4
g1450
sg6
I0
sbs(I7
I5
tp2004
(izone
Thing
p2005
(dp2006
g4
g5
sg6
I0
sbs(I31
I24
tp2007
(izone
Thing
p2008
(dp2009
g4
g10
sg6
I0
sbs(I5
I21
tp2010
(izone
Thing
p2011
(dp2012
g4
g155
sg6
I0
sbs(I20
I19
tp2013
(izone
Thing
p2014
(dp2015
g4
g22
sg6
I0
sbs(I16
I19
tp2016
(izone
Thing
p2017
(dp2018
g4
g682
sg6
I0
sbs(I6
I26
tp2019
(izone
Thing
p2020
(dp2021
g4
g22
sg6
I0
sbs(I21
I18
tp2022
(izone
Thing
p2023
(dp2024
g4
g318
sg6
I0
sbs(I17
I18
tp2025
(izone
Thing
p2026
(dp2027
g4
(I2
I8
tp2028
sg6
I0
sbs(I32
I22
tp2029
(izone
Thing
p2030
(dp2031
g4
g10
sg6
I0
sbs(I22
I25
tp2032
(izone
Thing
p2033
(dp2034
g4
g22
sg6
I0
sbs(I18
I25
tp2035
(izone
Thing
p2036
(dp2037
g4
g22
sg6
I0
sbs(I33
I23
tp2038
(izone
Thing
p2039
(dp2040
g4
g10
sg6
I0
sbs(I23
I28
tp2041
(izone
Thing
p2042
(dp2043
g4
g22
sg6
I0
sbs(I34
I20
tp2044
(izone
Thing
p2045
(dp2046
g4
g10
sg6
I0
sbs(I32
I12
tp2047
(izone
Thing
p2048
(dp2049
g4
g41
sg6
I0
sbs(I35
I9
tp2050
(izone
Thing
p2051
(dp2052
g4
g41
sg6
I0
sbs(I33
I9
tp2053
(izone
Thing
p2054
(dp2055
g4
g41
sg6
I0
sbs(I14
I21
tp2056
(izone
Thing
p2057
(dp2058
g4
g22
sg6
I0
sbs(I36
I2
tp2059
(izone
Thing
p2060
(dp2061
g4
g10
sg6
I0
sbs(I10
I29
tp2062
(izone
Thing
p2063
(dp2064
g4
g22
sg6
I0
sbs(I34
I14
tp2065
(izone
Thing
p2066
(dp2067
g4
g10
sg6
I0
sbs(I15
I16
tp2068
(izone
Thing
p2069
(dp2070
g4
g101
sg6
I0
sbs(I13
I0
tp2071
(izone
Thing
p2072
(dp2073
g4
g22
sg6
I0
sbs(I37
I3
tp2074
(izone
Thing
p2075
(dp2076
g4
g10
sg6
I0
sbs(I11
I16
tp2077
(izone
Thing
p2078
(dp2079
g4
g227
sg6
I0
sbs(I26
I24
tp2080
(izone
Thing
p2081
(dp2082
g4
g10
sg6
I0
sbs(I0
I27
tp2083
(izone
Thing
p2084
(dp2085
g4
g22
sg6
I0
sbs(I24
I8
tp2086
(izone
Thing
p2087
(dp2088
g4
g41
sg6
I0
sbs(I38
I8
tp2089
(izone
Thing
p2090
(dp2091
g4
g41
sg6
I0
sbs(I12
I27
tp2092
(izone
Thing
p2093
(dp2094
g4
g14
sg6
I0
sbs(I27
I21
tp2095
(izone
Thing
p2096
(dp2097
g4
g10
sg6
I0
sbs(I1
I26
tp2098
(izone
Thing
p2099
(dp2100
g4
g22
sg6
I0
sbs(I25
I5
tp2101
(izone
Thing
p2102
(dp2103
g4
g10
sg6
I0
sbs(I39
I13
tp2104
(izone
Thing
p2105
(dp2106
g4
g10
sg6
I0
sbs(I13
I26
tp2107
(izone
Thing
p2108
(dp2109
g4
g22
sg6
I0
sbs(I28
I22
tp2110
(izone
Thing
p2111
(dp2112
g4
g10
sg6
I0
sbs(I2
I1
tp2113
(izone
Thing
p2114
(dp2115
g4
g5
sg6
I0
sbs(I26
I2
tp2116
(izone
Thing
p2117
(dp2118
g4
g10
sg6
I0
sbs(I29
I23
tp2119
(izone
Thing
p2120
(dp2121
g4
g10
sg6
I0
sbs(I3
I28
tp2122
(izone
Thing
p2123
(dp2124
g4
g22
sg6
I0
sbs(I27
I11
tp2125
(izone
Thing
p2126
(dp2127
g4
g41
sg6
I0
sbs(I30
I4
tp2128
(izone
Thing
p2129
(dp2130
g4
g10
sg6
I0
sbs(I28
I12
tp2131
(izone
Thing
p2132
(dp2133
g4
g41
sg6
I0
sbs(I7
I2
tp2134
(izone
Thing
p2135
(dp2136
g4
g5
sg6
I0
sbs(I31
I1
tp2137
(izone
Thing
p2138
(dp2139
g4
g10
sg6
I0
sbs(I20
I26
tp2140
(izone
Thing
p2141
(dp2142
g4
g14
sg6
I0
sbs(I16
I10
tp2143
(izone
Thing
p2144
(dp2145
g4
g18
sg6
I0
sbs(I6
I29
tp2146
(izone
Thing
p2147
(dp2148
g4
g22
sg6
I0
sbs(I21
I27
tp2149
(izone
Thing
p2150
(dp2151
g4
g22
sg6
I0
sbs(I19
I7
tp2152
(izone
Thing
p2153
(dp2154
g4
g41
sg6
I0
sbs(I17
I11
tp2155
(izone
Thing
p2156
(dp2157
g4
g188
sg6
I0
sbs(I7
I24
tp2158
(izone
Thing
p2159
(dp2160
g4
g155
sg6
I0
sbs(I22
I16
tp2161
(izone
Thing
p2162
(dp2163
g4
g168
sg6
I0
sbs(I20
I0
tp2164
(izone
Thing
p2165
(dp2166
g4
g22
sg6
I0
sbs(I18
I16
tp2167
(izone
Thing
p2168
(dp2169
g4
g168
sg6
I0
sbs(I23
I21
tp2170
(izone
Thing
p2171
(dp2172
g4
g22
sg6
I0
sbs(I21
I5
tp2173
(izone
Thing
p2174
(dp2175
g4
g22
sg6
I0
sbs(I8
I6
tp2176
(izone
Thing
p2177
(dp2178
g4
g5
sg6
I0
sbs(I32
I3
tp2179
(izone
Thing
p2180
(dp2181
g4
g10
sg6
I0
sbs(I22
I10
tp2182
(izone
Thing
p2183
(dp2184
g4
g41
sg6
I0
sbs(I35
I14
tp2185
(izone
Thing
p2186
(dp2187
g4
g10
sg6
I0
sbs(I9
I7
tp2188
(izone
Thing
p2189
(dp2190
g4
g22
sg6
I0
sbs(I33
I2
tp2191
(izone
Thing
p2192
(dp2193
g4
g10
sg6
I0
sbs(I14
I28
tp2194
(izone
Thing
p2195
(dp2196
g4
g22
sg6
I0
sbs(I36
I9
tp2197
(izone
Thing
p2198
(dp2199
g4
g41
sg6
I0
sbs(I10
I4
tp2200
(izone
Thing
p2201
(dp2202
g4
g22
sg6
I0
sbs(I34
I9
tp2203
(izone
Thing
p2204
(dp2205
g4
g41
sg6
I0
sbs(I15
I25
tp2206
(izone
Thing
p2207
(dp2208
g4
g22
sg6
I0
sbs(I37
I12
tp2209
(izone
Thing
p2210
(dp2211
g4
g41
sg6
I0
sbs(I11
I9
tp2212
(izone
Thing
p2213
(dp2214
g4
g18
sg6
I0
sbs(I35
I20
tp2215
(izone
Thing
p2216
(dp2217
g4
g10
sg6
I0
sbs(I0
I18
tp2218
(izone
Thing
p2219
(dp2220
g4
g155
sg6
I0
sbs(I24
I15
tp2221
(izone
Thing
p2222
(dp2223
g4
g60
sg6
I0
sbs(I14
I6
tp2224
(izone
Thing
p2225
(dp2226
g4
g22
sg6
I0
sbs(I38
I3
tp2227
(izone
Thing
p2228
(dp2229
g4
g10
sg6
I0
sbs(I12
I18
tp2230
(izone
Thing
p2231
(dp2232
g4
(I1
I8
tp2233
sg6
I0
sbs(I36
I23
tp2234
(izone
Thing
p2235
(dp2236
g4
g10
sg6
I0
sbs(I1
I19
tp2237
(izone
Thing
p2238
(dp2239
g4
g155
sg6
I0
sbs(I25
I14
tp2240
(izone
Thing
p2241
(dp2242
g4
g91
sg6
I0
sbs(I15
I7
tp2243
(izone
Thing
p2244
(dp2245
g4
g18
sg6
I0
sbs(I39
I10
tp2246
(izone
Thing
p2247
(dp2248
g4
g10
sg6
I0
sbs(I13
I19
tp2249
(izone
Thing
p2250
(dp2251
g4
g379
sg6
I0
sbs(I37
I22
tp2252
(izone
Thing
p2253
(dp2254
g4
g10
sg6
I0
sbs(I2
I24
tp2255
(izone
Thing
p2256
(dp2257
g4
g22
sg6
I0
sbs(I26
I13
tp2258
(izone
Thing
p2259
(dp2260
g4
g41
sg6
I0
sbs(I0
I8
tp2261
(izone
Thing
p2262
(dp2263
g4
g5
sg6
I0
sbs(I29
I16
tp2264
(izone
Thing
p2265
(dp2266
g4
g168
sg6
I0
sbs(I3
I5
tp2267
(izone
Thing
p2268
(dp2269
g4
g5
sg6
I0
sbs(I27
I0
tp2270
(izone
Thing
p2271
(dp2272
g4
g10
sg6
I0
sbs(I30
I15
tp2273
(izone
Thing
p2274
(dp2275
g4
g60
sg6
I0
sbs(I4
I6
tp2276
(izone
Thing
p2277
(dp2278
g4
g5
sg6
I0
sbs(I28
I11
tp2279
(izone
Thing
p2280
(dp2281
g4
g41
sg6
I0
sbs(I31
I14
tp2282
(izone
Thing
p2283
(dp2284
g4
g10
sg6
I0
sbs(I5
I7
tp2285
(izone
Thing
p2286
(dp2287
g4
g5
sg6
I0
sbs(I29
I10
tp2288
(izone
Thing
p2289
(dp2290
g4
g41
sg6
I0
sbs(I16
I1
tp2291
(izone
Thing
p2292
(dp2293
g4
g22
sg6
I0
sbs(I6
I20
tp2294
(izone
Thing
p2295
(dp2296
g4
g155
sg6
I0
sbs(I30
I17
tp2297
(izone
Thing
p2298
(dp2299
g4
g133
sg6
I0
sbs(I19
I12
tp2300
(izone
Thing
p2301
(dp2302
g4
g41
sg6
I0
sbs(I17
I12
tp2303
(izone
Thing
p2304
(dp2305
g4
g22
sg6
I0
sbs(I7
I17
tp2306
(izone
Thing
p2307
(dp2308
g4
g5
sg6
I0
sbs(I31
I20
tp2309
(izone
Thing
p2310
(dp2311
g4
g10
sg6
I0
sbs(I20
I15
tp2312
(izone
Thing
p2313
(dp2314
g4
g60
sg6
I0
sbs(I18
I11
tp2315
(izone
Thing
p2316
(dp2317
g4
g41
sg6
I0
sbs(I23
I18
tp2318
(izone
Thing
p2319
(dp2320
g4
g318
sg6
I0
sbs(I21
I14
tp2321
(izone
Thing
p2322
(dp2323
g4
g91
sg6
I0
sbs(I8
I13
tp2324
(izone
Thing
p2325
(dp2326
g4
g5
sg6
I0
sbs(I32
I26
tp2327
(izone
Thing
p2328
(dp2329
g4
g10
sg6
I0
sbs(I22
I13
tp2330
(izone
Thing
p2331
(dp2332
g4
g41
sg6
I0
sbs(I9
I8
tp2333
(izone
Thing
p2334
(dp2335
g4
g22
sg6
I0
sbs(I33
I27
tp2336
(izone
Thing
p2337
(dp2338
g4
g10
sg6
I0
sbs(I23
I8
tp2339
(izone
Thing
p2340
(dp2341
g4
g41
sg6
I0
sbs(I10
I15
tp2342
(izone
Thing
p2343
(dp2344
g4
g953
sg6
I0
sbs(I34
I0
tp2345
(izone
Thing
p2346
(dp2347
g4
g10
sg6
I0
sbs(I8
I19
tp2348
(izone
Thing
p2349
(dp2350
g4
g155
sg6
I0
sbs(I11
I14
tp2351
(izone
Thing
p2352
(dp2353
g4
(I0
I6
tp2354
sg6
I0
sbs(I35
I29
tp2355
(izone
Thing
p2356
(dp2357
g4
g10
sg6
I0
sbs(I9
I18
tp2358
(izone
Thing
p2359
(dp2360
g4
g22
sg6
I0
sbs(I24
I22
tp2361
(izone
Thing
p2362
(dp2363
g4
g237
sg6
I0
sbs(I14
I9
tp2364
(izone
Thing
p2365
(dp2366
g4
g18
sg6
I0
sbs(I12
I9
tp2367
(izone
Thing
p2368
(dp2369
g4
(I8
I19
tp2370
sg6
I0
sbs(I1
I20
tp2371
(izone
Thing
p2372
(dp2373
g4
g155
sg6
I0
sbs(I25
I23
tp2374
(izone
Thing
p2375
(dp2376
g4
g10
sg6
I0
sbs(I15
I12
tp2377
(izone
Thing
p2378
(dp2379
g4
g22
sg6
I0
sbs(I39
I3
tp2380
(izone
Thing
p2381
(dp2382
g4
g10
sg6
I0
sbs(I13
I12
tp2383
(izone
Thing
p2384
(dp2385
g4
(I8
I7
tp2386
sg6
I0
sbs(I2
I19
tp2387
(izone
Thing
p2388
(dp2389
g4
g155
sg6
I0
sbs(I26
I20
tp2390
(izone
Thing
p2391
(dp2392
g4
g10
sg6
I0
sbs(I0
I15
tp2393
(izone
Thing
p2394
(dp2395
g4
g5
sg6
I0
sbs(I38
I28
tp2396
(izone
Thing
p2397
(dp2398
g4
g10
sg6
I0
sbs(I3
I10
tp2399
(izone
Thing
p2400
(dp2401
g4
g5
sg6
I0
sbs(I27
I25
tp2402
(izone
Thing
p2403
(dp2404
g4
g10
sg6
I0
sbs(I1
I14
tp2405
(izone
Thing
p2406
(dp2407
g4
g5
sg6
I0
sbs(I39
I25
tp2408
(izone
Thing
p2409
(dp2410
g4
g10
sg6
I0
sbs(I4
I13
tp2411
(izone
Thing
p2412
(dp2413
g4
g5
sg6
I0
sbs(I28
I2
tp2414
(izone
Thing
p2415
(dp2416
g4
g10
sg6
I0
sbs(I2
I13
tp2417
(izone
Thing
p2418
(dp2419
g4
g5
sg6
I0
sbs(I5
I0
tp2420
(izone
Thing
p2421
(dp2422
g4
g5
sg6
I0
sbs(I29
I3
tp2423
(izone
Thing
p2424
(dp2425
g4
g10
sg6
I0
sbs(I3
I16
tp2426
(izone
Thing
p2427
(dp2428
g4
g5
sg6
I0
sbs(I6
I15
tp2429
(izone
Thing
p2430
(dp2431
g4
g5
sg6
I0
sbs(I30
I24
tp2432
(izone
Thing
p2433
(dp2434
g4
g10
sg6
I0
sbs(I19
I21
tp2435
(izone
Thing
p2436
(dp2437
g4
g1450
sg6
I0
sbs(I17
I5
tp2438
(izone
Thing
p2439
(dp2440
g4
g22
sg6
I0
sbs(I7
I14
tp2441
(izone
Thing
p2442
(dp2443
g4
g5
sg6
I0
sbs(I31
I29
tp2444
(izone
Thing
p2445
(dp2446
g4
g10
sg6
I0
sbs(I20
I22
tp2447
(izone
Thing
p2448
(dp2449
g4
g14
sg6
I0
sbs(I18
I2
tp2450
(izone
Thing
p2451
(dp2452
g4
g22
sg6
I0
sbs(I21
I23
tp2453
(izone
Thing
p2454
(dp2455
g4
g22
sg6
I0
sbs(I32
I17
tp2456
(izone
Thing
p2457
(dp2458
g4
g133
sg6
I0
sbs(I22
I4
tp2459
(izone
Thing
p2460
(dp2461
g4
g22
sg6
I0
sbs(I18
I28
tp2462
(izone
Thing
p2463
(dp2464
g4
g22
sg6
I0
sbs(I33
I28
tp2465
(izone
Thing
p2466
(dp2467
g4
g10
sg6
I0
sbs(I23
I1
tp2468
(izone
Thing
p2469
(dp2470
g4
g22
sg6
I0
sbs(I34
I27
tp2471
(izone
Thing
p2472
(dp2473
g4
g10
sg6
I0
sbs(I8
I26
tp2474
(izone
Thing
p2475
(dp2476
g4
g14
sg6
I0
sbs(I11
I7
tp2477
(izone
Thing
p2478
(dp2479
g4
g18
sg6
I0
sbs(I35
I2
tp2480
(izone
Thing
p2481
(dp2482
g4
g10
sg6
I0
sbs(I9
I27
tp2483
(izone
Thing
p2484
(dp2485
g4
g14
sg6
I0
sbs(I24
I29
tp2486
(izone
Thing
p2487
(dp2488
g4
g237
sg6
I0
sbs(I14
I16
tp2489
(izone
Thing
p2490
(dp2491
g4
g101
sg6
I0
sbs(I12
I0
tp2492
(izone
Thing
p2493
(dp2494
g4
g22
sg6
I0
sbs(I36
I5
tp2495
(izone
Thing
p2496
(dp2497
g4
g10
sg6
I0
sbs(I10
I16
tp2498
(izone
Thing
p2499
(dp2500
g4
g953
sg6
I0
sbs(I25
I24
tp2501
(izone
Thing
p2502
(dp2503
g4
g10
sg6
I0
sbs(I15
I21
tp2504
(izone
Thing
p2505
(dp2506
g4
g22
sg6
I0
sbs(I13
I5
tp2507
(izone
Thing
p2508
(dp2509
g4
g22
sg6
I0
sbs(I37
I24
tp2510
(izone
Thing
p2511
(dp2512
g4
g10
sg6
I0
sbs(I11
I29
tp2513
(izone
Thing
p2514
(dp2515
g4
g22
sg6
I0
sbs(I0
I6
tp2516
(izone
Thing
p2517
(dp2518
g4
g5
sg6
I0
sbs(I24
I3
tp2519
(izone
Thing
p2520
(dp2521
g4
g10
sg6
I0
sbs(I38
I23
tp2522
(izone
Thing
p2523
(dp2524
g4
g10
sg6
I0
sbs(I1
I7
tp2525
(izone
Thing
p2526
(dp2527
g4
g5
sg6
I0
sbs(I25
I2
tp2528
(izone
Thing
p2529
(dp2530
g4
g10
sg6
I0
sbs(I39
I22
tp2531
(izone
Thing
p2532
(dp2533
g4
g10
sg6
I0
sbs(I28
I25
tp2534
(izone
Thing
p2535
(dp2536
g4
g10
sg6
I0
sbs(I2
I4
tp2537
(izone
Thing
p2538
(dp2539
g4
g5
sg6
I0
sbs(I5
I9
tp2540
(izone
Thing
p2541
(dp2542
g4
g5
sg6
I0
sbs(I29
I28
tp2543
(izone
Thing
p2544
(dp2545
g4
g10
sg6
I0
sbs(I3
I25
tp2546
(izone
Thing
p2547
(dp2548
g4
g22
sg6
I0
sbs(I6
I6
tp2549
(izone
Thing
p2550
(dp2551
g4
g5
sg6
I0
sbs(I30
I3
tp2552
(izone
Thing
p2553
(dp2554
g4
g10
sg6
I0
sbs(I4
I18
tp2555
(izone
Thing
p2556
(dp2557
g4
g155
sg6
I0
sbs(I19
I26
tp2558
(izone
Thing
p2559
(dp2560
g4
g1450
sg6
I0
sbs(I7
I7
tp2561
(izone
Thing
p2562
(dp2563
g4
g5
sg6
I0
sbs(I31
I26
tp2564
(izone
Thing
p2565
(dp2566
g4
g10
sg6
I0
sbs(I5
I19
tp2567
(izone
Thing
p2568
(dp2569
g4
g155
sg6
I0
sbs(I20
I29
tp2570
(izone
Thing
p2571
(dp2572
g4
g22
sg6
I0
sbs(I16
I21
tp2573
(izone
Thing
p2574
(dp2575
g4
g22
sg6
I0
sbs(I6
I24
tp2576
(izone
Thing
p2577
(dp2578
g4
g155
sg6
I0
sbs(I21
I16
tp2579
(izone
Thing
p2580
(dp2581
g4
g168
sg6
I0
sbs(I19
I0
tp2582
(izone
Thing
p2583
(dp2584
g4
g22
sg6
I0
sbs(I17
I16
tp2585
(izone
Thing
p2586
(dp2587
g4
(I1
I7
tp2588
sg6
I0
sbs(I7
I29
tp2589
(izone
Thing
p2590
(dp2591
g4
g22
sg6
I0
sbs(I18
I23
tp2592
(izone
Thing
p2593
(dp2594
g4
g22
sg6
I0
sbs(I33
I21
tp2595
(izone
Thing
p2596
(dp2597
g4
g10
sg6
I0
sbs(I34
I18
tp2598
(izone
Thing
p2599
(dp2600
g4
g318
sg6
I0
sbs(I8
I1
tp2601
(izone
Thing
p2602
(dp2603
g4
g5
sg6
I0
sbs(I32
I14
tp2604
(izone
Thing
p2605
(dp2606
g4
g10
sg6
I0
sbs(I35
I11
tp2607
(izone
Thing
p2608
(dp2609
g4
g41
sg6
I0
sbs(I9
I28
tp2610
(izone
Thing
p2611
(dp2612
g4
g22
sg6
I0
sbs(I33
I15
tp2613
(izone
Thing
p2614
(dp2615
g4
g60
sg6
I0
sbs(I14
I27
tp2616
(izone
Thing
p2617
(dp2618
g4
g14
sg6
I0
sbs(I36
I12
tp2619
(izone
Thing
p2620
(dp2621
g4
g41
sg6
I0
sbs(I10
I27
tp2622
(izone
Thing
p2623
(dp2624
g4
g14
sg6
I0
sbs(I34
I12
tp2625
(izone
Thing
p2626
(dp2627
g4
g41
sg6
I0
sbs(I15
I18
tp2628
(izone
Thing
p2629
(dp2630
g4
g1931
sg6
I0
sbs(I37
I1
tp2631
(izone
Thing
p2632
(dp2633
g4
g10
sg6
I0
sbs(I11
I18
tp2634
(izone
Thing
p2635
(dp2636
g4
(I0
I8
tp2637
sg6
I0
sbs(I35
I17
tp2638
(izone
Thing
p2639
(dp2640
g4
g133
sg6
I0
sbs(I0
I29
tp2641
(izone
Thing
p2642
(dp2643
g4
g22
sg6
I0
sbs(I24
I10
tp2644
(izone
Thing
p2645
(dp2646
g4
g41
sg6
I0
sbs(I38
I14
tp2647
(izone
Thing
p2648
(dp2649
g4
g10
sg6
I0
sbs(I12
I21
tp2650
(izone
Thing
p2651
(dp2652
g4
g22
sg6
I0
sbs(I27
I23
tp2653
(izone
Thing
p2654
(dp2655
g4
g10
sg6
I0
sbs(I1
I24
tp2656
(izone
Thing
p2657
(dp2658
g4
g22
sg6
I0
sbs(I25
I11
tp2659
(izone
Thing
p2660
(dp2661
g4
g41
sg6
I0
sbs(I39
I15
tp2662
(izone
Thing
p2663
(dp2664
g4
g60
sg6
I0
sbs(I13
I24
tp2665
(izone
Thing
p2666
(dp2667
g4
g22
sg6
I0
sbs(I28
I16
tp2668
(izone
Thing
p2669
(dp2670
g4
g168
sg6
I0
sbs(I26
I0
tp2671
(izone
Thing
p2672
(dp2673
g4
g10
sg6
I0
sbs(I29
I21
tp2674
(izone
Thing
p2675
(dp2676
g4
g10
sg6
I0
sbs(I27
I13
tp2677
(izone
Thing
p2678
(dp2679
g4
g41
sg6
I0
sbs(I30
I10
tp2680
(izone
Thing
p2681
(dp2682
g4
g41
sg6
I0
sbs(I4
I25
tp2683
(izone
Thing
p2684
(dp2685
g4
g22
sg6
I0
sbs(I28
I14
tp2686
(izone
Thing
p2687
(dp2688
g4
g91
sg6
I0
sbs(I31
I3
tp2689
(izone
Thing
p2690
(dp2691
g4
g10
sg6
I0
sbs(I5
I28
tp2692
(izone
Thing
p2693
(dp2694
g4
g22
sg6
I0
sbs(I29
I15
tp2695
(izone
Thing
p2696
(dp2697
g4
g60
sg6
I0
sbs(I16
I12
tp2698
(izone
Thing
p2699
(dp2700
g4
g22
sg6
I0
sbs(I6
I19
tp2701
(izone
Thing
p2702
(dp2703
g4
g155
sg6
I0
sbs(I21
I25
tp2704
(izone
Thing
p2705
(dp2706
g4
g22
sg6
I0
sbs(I19
I9
tp2707
(izone
Thing
p2708
(dp2709
g4
g41
sg6
I0
sbs(I17
I9
tp2710
(izone
Thing
p2711
(dp2712
g4
g188
sg6
I0
sbs(I7
I26
tp2713
(izone
Thing
p2714
(dp2715
g4
g22
sg6
I0
sbs(I22
I22
tp2716
(izone
Thing
p2717
(dp2718
g4
g22
sg6
I0
sbs(I20
I2
tp2719
(izone
Thing
p2720
(dp2721
g4
g22
sg6
I0
sbs(I18
I14
tp2722
(izone
Thing
p2723
(dp2724
g4
(I7
I7
tp2725
sg6
I0
sbs(I23
I23
tp2726
(izone
Thing
p2727
(dp2728
g4
g22
sg6
I0
sbs(I21
I3
tp2729
(izone
Thing
p2730
(dp2731
g4
g22
sg6
I0
sbs(I8
I8
tp2732
(izone
Thing
p2733
(dp2734
g4
g5
sg6
I0
sbs(I32
I5
tp2735
(izone
Thing
p2736
(dp2737
g4
g10
sg6
I0
sbs(I22
I8
tp2738
(izone
Thing
p2739
(dp2740
g4
g41
sg6
I0
sbs(I9
I5
tp2741
(izone
Thing
p2742
(dp2743
g4
g22
sg6
I0
sbs(I33
I0
tp2744
(izone
Thing
p2745
(dp2746
g4
g10
sg6
I0
sbs(I23
I13
tp2747
(izone
Thing
p2748
(dp2749
g4
g41
sg6
I0
sbs(I36
I11
tp2750
(izone
Thing
p2751
(dp2752
g4
g41
sg6
I0
sbs(I10
I2
tp2753
(izone
Thing
p2754
(dp2755
g4
g22
sg6
I0
sbs(I34
I7
tp2756
(izone
Thing
p2757
(dp2758
g4
g41
sg6
I0
sbs(I15
I27
tp2759
(izone
Thing
p2760
(dp2761
g4
g14
sg6
I0
sbs(I37
I10
tp2762
(izone
Thing
p2763
(dp2764
g4
g41
sg6
I0
sbs(I11
I11
tp2765
(izone
Thing
p2766
(dp2767
g4
g18
sg6
I0
sbs(I35
I22
tp2768
(izone
Thing
p2769
(dp2770
g4
g10
sg6
I0
sbs(I0
I20
tp2771
(izone
Thing
p2772
(dp2773
g4
g155
sg6
I0
sbs(I24
I17
tp2774
(izone
Thing
p2775
(dp2776
g4
g133
sg6
I0
sbs(I14
I4
tp2777
(izone
Thing
p2778
(dp2779
g4
g22
sg6
I0
sbs(I38
I1
tp2780
(izone
Thing
p2781
(dp2782
g4
g10
sg6
I0
sbs(I12
I12
tp2783
(izone
Thing
p2784
(dp2785
g4
g22
sg6
I0
sbs(I36
I17
tp2786
(izone
Thing
p2787
(dp2788
g4
g133
sg6
I0
sbs(I1
I17
tp2789
(izone
Thing
p2790
(dp2791
g4
g5
sg6
I0
sbs(I25
I12
tp2792
(izone
Thing
p2793
(dp2794
g4
g41
sg6
I0
sbs(I15
I1
tp2795
(izone
Thing
p2796
(dp2797
g4
g22
sg6
I0
sbs(I39
I4
tp2798
(izone
Thing
p2799
(dp2800
g4
g10
sg6
I0
sbs(I13
I17
tp2801
(izone
Thing
p2802
(dp2803
g4
g101
sg6
I0
sbs(I37
I20
tp2804
(izone
Thing
p2805
(dp2806
g4
g10
sg6
I0
sbs(I2
I22
tp2807
(izone
Thing
p2808
(dp2809
g4
g155
sg6
I0
sbs(I26
I11
tp2810
(izone
Thing
p2811
(dp2812
g4
g41
sg6
I0
sbs(I0
I10
tp2813
(izone
Thing
p2814
(dp2815
g4
g5
sg6
I0
sbs(I38
I27
tp2816
(izone
Thing
p2817
(dp2818
g4
g10
sg6
I0
sbs(I3
I7
tp2819
(izone
Thing
p2820
(dp2821
g4
g5
sg6
I0
sbs(I27
I2
tp2822
(izone
Thing
p2823
(dp2824
g4
g10
sg6
I0
sbs(I1
I11
tp2825
(izone
Thing
p2826
(dp2827
g4
g5
sg6
I0
sbs(I30
I13
tp2828
(izone
Thing
p2829
(dp2830
g4
g41
sg6
I0
sbs(I4
I0
tp2831
(izone
Thing
p2832
(dp2833
g4
g5
sg6
I0
sbs(I28
I5
tp2834
(izone
Thing
p2835
(dp2836
g4
g10
sg6
I0
sbs(I31
I8
tp2837
(izone
Thing
p2838
(dp2839
g4
g41
sg6
I0
sbs(I5
I5
tp2840
(izone
Thing
p2841
(dp2842
g4
g5
sg6
I0
sbs(I29
I8
tp2843
(izone
Thing
p2844
(dp2845
g4
g41
sg6
I0
sbs(I16
I3
tp2846
(izone
Thing
p2847
(dp2848
g4
g22
sg6
I0
sbs(I6
I10
tp2849
(izone
Thing
p2850
(dp2851
g4
g5
sg6
I0
sbs(I30
I23
tp2852
(izone
Thing
p2853
(dp2854
g4
g10
sg6
I0
sbs(I19
I14
tp2855
(izone
Thing
p2856
(dp2857
g4
g91
sg6
I0
sbs(I17
I2
tp2858
(izone
Thing
p2859
(dp2860
g4
g22
sg6
I0
sbs(I7
I19
tp2861
(izone
Thing
p2862
(dp2863
g4
g155
sg6
I0
sbs(I31
I22
tp2864
(izone
Thing
p2865
(dp2866
g4
g10
sg6
I0
sbs(I20
I9
tp2867
(izone
Thing
p2868
(dp2869
g4
g41
sg6
I0
sbs(I18
I9
tp2870
(izone
Thing
p2871
(dp2872
g4
g188
sg6
I0
sbs(I16
I25
tp2873
(izone
Thing
p2874
(dp2875
g4
g22
sg6
I0
sbs(I21
I12
tp2876
(izone
Thing
p2877
(dp2878
g4
g41
sg6
I0
sbs(I8
I15
tp2879
(izone
Thing
p2880
(dp2881
g4
g5
sg6
I0
sbs(I32
I28
tp2882
(izone
Thing
p2883
(dp2884
g4
g10
sg6
I0
sbs(I22
I3
tp2885
(izone
Thing
p2886
(dp2887
g4
g22
sg6
I0
sbs(I9
I14
tp2888
(izone
Thing
p2889
(dp2890
g4
g22
sg6
I0
sbs(I33
I25
tp2891
(izone
Thing
p2892
(dp2893
g4
g10
sg6
I0
sbs(I23
I10
tp2894
(izone
Thing
p2895
(dp2896
g4
g41
sg6
I0
sbs(I10
I13
tp2897
(izone
Thing
p2898
(dp2899
g4
g22
sg6
I0
sbs(I8
I21
tp2900
(izone
Thing
p2901
(dp2902
g4
g14
sg6
I0
sbs(I11
I0
tp2903
(izone
Thing
p2904
(dp2905
g4
g22
sg6
I0
sbs(I9
I16
tp2906
(izone
Thing
p2907
(dp2908
g4
g22
sg6
I0
sbs(I24
I24
tp2909
(izone
Thing
p2910
(dp2911
g4
g237
sg6
I0
sbs(I14
I15
tp2912
(izone
Thing
p2913
(dp2914
g4
g101
sg6
I0
sbs(I12
I11
tp2915
(izone
Thing
p2916
(dp2917
g4
g188
sg6
I0
sbs(I36
I24
tp2918
(izone
Thing
p2919
(dp2920
g4
g10
sg6
I0
sbs(I10
I23
tp2921
(izone
Thing
p2922
(dp2923
g4
g155
sg6
I0
sbs(I25
I21
tp2924
(izone
Thing
p2925
(dp2926
g4
g10
sg6
I0
sbs(I15
I14
tp2927
(izone
Thing
p2928
(dp2929
g4
g816
sg6
I0
sbs(I13
I10
tp2930
(izone
Thing
p2931
(dp2932
g4
g18
sg6
I0
sbs(I37
I29
tp2933
(izone
Thing
p2934
(dp2935
g4
g10
sg6
I0
sbs(I2
I17
tp2936
(izone
Thing
p2937
(dp2938
g4
g5
sg6
I0
sbs(I26
I18
tp2939
(izone
Thing
p2940
(dp2941
g4
g318
sg6
I0
sbs(I0
I1
tp2942
(izone
Thing
p2943
(dp2944
g4
g5
sg6
I0
sbs(I38
I18
tp2945
(izone
Thing
p2946
(dp2947
g4
g318
sg6
I0
sbs(I3
I12
tp2948
(izone
Thing
p2949
(dp2950
g4
g5
sg6
I0
sbs(I27
I27
tp2951
(izone
Thing
p2952
(dp2953
g4
g10
sg6
I0
sbs(I1
I12
tp2954
(izone
Thing
p2955
(dp2956
g4
g5
sg6
I0
sbs(I39
I27
tp2957
(izone
Thing
p2958
(dp2959
g4
g10
sg6
I0
sbs(I4
I15
tp2960
(izone
Thing
p2961
(dp2962
g4
g5
sg6
I0
sbs(I28
I28
tp2963
(izone
Thing
p2964
(dp2965
g4
g10
sg6
I0
sbs(I2
I11
tp2966
(izone
Thing
p2967
(dp2968
g4
g5
sg6
I0
sbs(I5
I14
tp2969
(izone
Thing
p2970
(dp2971
g4
g5
sg6
I0
sbs(I29
I1
tp2972
(izone
Thing
p2973
(dp2974
g4
g10
sg6
I0
sbs(I3
I18
tp2975
(izone
Thing
p2976
(dp2977
g4
g155
sg6
I0
sbs(I6
I13
tp2978
(izone
Thing
p2979
(dp2980
g4
g5
sg6
I0
sbs(I4
I21
tp2981
(izone
Thing
p2982
(dp2983
g4
g155
sg6
I0
sbs(I19
I23
tp2984
(izone
Thing
p2985
(dp2986
g4
g1450
sg6
I0
sbs(I7
I8
tp2987
(izone
Thing
p2988
(dp2989
g4
g5
sg6
I0
sbs(I20
I16
tp2990
(izone
Thing
p2991
(dp2992
g4
g168
sg6
I0
sbs(I18
I0
tp2993
(izone
Thing
p2994
(dp2995
g4
g22
sg6
I0
sbs(I16
I16
tp2996
(izone
Thing
p2997
(dp2998
g4
g2588
sg6
I0
sbs(I21
I21
tp2999
(izone
Thing
p3000
(dp3001
g4
g22
sg6
I0
sbs(I17
I29
tp3002
(izone
Thing
p3003
(dp3004
g4
g22
sg6
I0
sbs(I32
I19
tp3005
(izone
Thing
p3006
(dp3007
g4
g10
sg6
I0
sbs(I22
I26
tp3008
(izone
Thing
p3009
(dp3010
g4
g22
sg6
I0
sbs(I18
I26
tp3011
(izone
Thing
p3012
(dp3013
g4
g22
sg6
I0
sbs(I33
I18
tp3014
(izone
Thing
p3015
(dp3016
g4
g318
sg6
I0
sbs(I23
I3
tp3017
(izone
Thing
p3018
(dp3019
g4
g22
sg6
I0
sbs(I34
I25
tp3020
(izone
Thing
p3021
(dp3022
g4
g10
sg6
I0
sbs(I8
I28
tp3023
(izone
Thing
p3024
(dp3025
g4
g22
sg6
I0
sbs(I32
I9
tp3026
(izone
Thing
p3027
(dp3028
g4
g41
sg6
I0
sbs(I35
I4
tp3029
(izone
Thing
p3030
(dp3031
g4
g10
sg6
I0
sbs(I9
I25
tp3032
(izone
Thing
p3033
(dp3034
g4
g155
sg6
I0
sbs(I14
I22
tp3035
(izone
Thing
p3036
(dp3037
g4
g22
sg6
I0
sbs(I12
I2
tp3038
(izone
Thing
p3039
(dp3040
g4
g22
sg6
I0
sbs(I36
I7
tp3041
(izone
Thing
p3042
(dp3043
g4
g41
sg6
I0
sbs(I15
I23
tp3044
(izone
Thing
p3045
(dp3046
g4
g22
sg6
I0
sbs(I13
I3
tp3047
(izone
Thing
p3048
(dp3049
g4
g22
sg6
I0
sbs(I37
I6
tp3050
(izone
Thing
p3051
(dp3052
g4
g10
sg6
I0
sbs(I26
I29
tp3053
(izone
Thing
p3054
(dp3055
g4
g10
sg6
I0
sbs(I0
I24
tp3056
(izone
Thing
p3057
(dp3058
g4
g22
sg6
I0
sbs(I24
I5
tp3059
(izone
Thing
p3060
(dp3061
g4
g10
sg6
I0
sbs(I38
I21
tp3062
(izone
Thing
p3063
(dp3064
g4
g10
sg6
I0
sbs(I12
I24
tp3065
(izone
Thing
p3066
(dp3067
g4
g22
sg6
I0
sbs(I27
I16
tp3068
(izone
Thing
p3069
(dp3070
g4
g168
sg6
I0
sbs(I1
I5
tp3071
(izone
Thing
p3072
(dp3073
g4
g5
sg6
I0
sbs(I25
I0
tp3074
(izone
Thing
p3075
(dp3076
g4
g10
sg6
I0
sbs(I39
I16
tp3077
(izone
Thing
p3078
(dp3079
g4
g168
sg6
I0
sbs(I13
I29
tp3080
(izone
Thing
p3081
(dp3082
g4
g22
sg6
I0
sbs(I28
I27
tp3083
(izone
Thing
p3084
(dp3085
g4
g10
sg6
I0
sbs(I2
I2
tp3086
(izone
Thing
p3087
(dp3088
g4
g5
sg6
I0
sbs(I26
I7
tp3089
(izone
Thing
p3090
(dp3091
g4
g41
sg6
I0
sbs(I29
I26
tp3092
(izone
Thing
p3093
(dp3094
g4
g10
sg6
I0
sbs(I3
I27
tp3095
(izone
Thing
p3096
(dp3097
g4
g22
sg6
I0
sbs(I6
I4
tp3098
(izone
Thing
p3099
(dp3100
g4
g5
sg6
I0
sbs(I30
I1
tp3101
(izone
Thing
p3102
(dp3103
g4
g10
sg6
I0
sbs(I4
I28
tp3104
(izone
Thing
p3105
(dp3106
g4
g22
sg6
I0
sbs(I19
I28
tp3107
(izone
Thing
p3108
(dp3109
g4
g22
sg6
I0
sbs(I7
I1
tp3110
(izone
Thing
p3111
(dp3112
g4
g5
sg6
I0
sbs(I31
I4
tp3113
(izone
Thing
p3114
(dp3115
g4
g10
sg6
I0
sbs(I5
I17
tp3116
(izone
Thing
p3117
(dp3118
g4
g5
sg6
I0
sbs(I16
I23
tp3119
(izone
Thing
p3120
(dp3121
g4
g22
sg6
I0
sbs(I19
I2
tp3122
(izone
Thing
p3123
(dp3124
g4
g22
sg6
I0
sbs(I17
I22
tp3125
(izone
Thing
p3126
(dp3127
g4
g22
sg6
I0
sbs(I22
I29
tp3128
(izone
Thing
p3129
(dp3130
g4
g22
sg6
I0
sbs(I20
I5
tp3131
(izone
Thing
p3132
(dp3133
g4
g22
sg6
I0
sbs(I18
I21
tp3134
(izone
Thing
p3135
(dp3136
g4
g22
sg6
I0
sbs(I23
I24
tp3137
(izone
Thing
p3138
(dp3139
g4
g22
sg6
I0
sbs(I34
I16
tp3140
(izone
Thing
p3141
(dp3142
g4
g168
sg6
I0
sbs(I8
I3
tp3143
(izone
Thing
p3144
(dp3145
g4
g5
sg6
I0
sbs(I32
I0
tp3146
(izone
Thing
p3147
(dp3148
g4
g10
sg6
I0
sbs(I35
I13
tp3149
(izone
Thing
p3150
(dp3151
g4
g41
sg6
I0
sbs(I9
I2
tp3152
(izone
Thing
p3153
(dp3154
g4
g22
sg6
I0
sbs(I33
I13
tp3155
(izone
Thing
p3156
(dp3157
g4
g41
sg6
I0
sbs(I14
I25
tp3158
(izone
Thing
p3159
(dp3160
g4
g22
sg6
I0
sbs(I36
I14
tp3161
(izone
Thing
p3162
(dp3163
g4
g10
sg6
I0
sbs(I10
I25
tp3164
(izone
Thing
p3165
(dp3166
g4
g155
sg6
I0
sbs(I34
I10
tp3167
(izone
Thing
p3168
(dp3169
g4
g41
sg6
I0
sbs(I15
I28
tp3170
(izone
Thing
p3171
(dp3172
g4
g22
sg6
I0
sbs(I37
I15
tp3173
(izone
Thing
p3174
(dp3175
g4
g60
sg6
I0
sbs(I11
I20
tp3176
(izone
Thing
p3177
(dp3178
g4
g1386
sg6
I0
sbs(I35
I19
tp3179
(izone
Thing
p3180
(dp3181
g4
g10
sg6
I0
sbs(I24
I12
tp3182
(izone
Thing
p3183
(dp3184
g4
g41
sg6
I0
sbs(I14
I3
tp3185
(izone
Thing
p3186
(dp3187
g4
g22
sg6
I0
sbs(I38
I12
tp3188
(izone
Thing
p3189
(dp3190
g4
g41
sg6
I0
sbs(I12
I23
tp3191
(izone
Thing
p3192
(dp3193
g4
g22
sg6
I0
sbs(I36
I20
tp3194
(izone
Thing
p3195
(dp3196
g4
g10
sg6
I0
sbs(I25
I9
tp3197
(izone
Thing
p3198
(dp3199
g4
g41
sg6
I0
sbs(I39
I9
tp3200
(izone
Thing
p3201
(dp3202
g4
g10
sg6
I0
sbs(I13
I22
tp3203
(izone
Thing
p3204
(dp3205
g4
g22
sg6
I0
sbs(I28
I18
tp3206
(izone
Thing
p3207
(dp3208
g4
g318
sg6
I0
sbs(I2
I29
tp3209
(izone
Thing
p3210
(dp3211
g4
g22
sg6
I0
sbs(I26
I14
tp3212
(izone
Thing
p3213
(dp3214
g4
g10
sg6
I0
sbs(I29
I19
tp3215
(izone
Thing
p3216
(dp3217
g4
g10
sg6
I0
sbs(I3
I0
tp3218
(izone
Thing
p3219
(dp3220
g4
g5
sg6
I0
sbs(I27
I15
tp3221
(izone
Thing
p3222
(dp3223
g4
g60
sg6
I0
sbs(I30
I8
tp3224
(izone
Thing
p3225
(dp3226
g4
g41
sg6
I0
sbs(I4
I27
tp3227
(izone
Thing
p3228
(dp3229
g4
g22
sg6
I0
sbs(I28
I8
tp3230
(izone
Thing
p3231
(dp3232
g4
g41
sg6
I0
sbs(I31
I13
tp3233
(izone
Thing
p3234
(dp3235
g4
g41
sg6
I0
sbs(I5
I26
tp3236
(izone
Thing
p3237
(dp3238
g4
g22
sg6
I0
sbs(I29
I13
tp3239
(izone
Thing
p3240
(dp3241
g4
g41
sg6
I0
sbs(I16
I14
tp3242
(izone
Thing
p3243
(dp3244
g4
g816
sg6
I0
sbs(I6
I17
tp3245
(izone
Thing
p3246
(dp3247
g4
g5
sg6
I0
sbs(I30
I18
tp3248
(izone
Thing
p3249
(dp3250
g4
g318
sg6
I0
sbs(I19
I11
tp3251
(izone
Thing
p3252
(dp3253
g4
g41
sg6
I0
sbs(I17
I15
tp3254
(izone
Thing
p3255
(dp3256
g4
(I2
I7
tp3257
sg6
I0
sbs(I7
I20
tp3258
(izone
Thing
p3259
(dp3260
g4
g155
sg6
I0
sbs(I22
I20
tp3261
(izone
Thing
p3262
(dp3263
g4
g22
sg6
I0
sbs(I20
I12
tp3264
(izone
Thing
p3265
(dp3266
g4
g41
sg6
I0
sbs(I18
I12
tp3267
(izone
Thing
p3268
(dp3269
g4
g22
sg6
I0
sbs(I23
I17
tp3270
(izone
Thing
p3271
(dp3272
g4
g133
sg6
I0
sbs(I21
I1
tp3273
(izone
Thing
p3274
(dp3275
g4
g22
sg6
I0
sbs(I8
I10
tp3276
(izone
Thing
p3277
(dp3278
g4
g5
sg6
I0
sbs(I32
I7
tp3279
(izone
Thing
p3280
(dp3281
g4
g41
sg6
I0
sbs(I22
I14
tp3282
(izone
Thing
p3283
(dp3284
g4
g91
sg6
I0
sbs(I9
I11
tp3285
(izone
Thing
p3286
(dp3287
g4
g22
sg6
I0
sbs(I33
I6
tp3288
(izone
Thing
p3289
(dp3290
g4
g10
sg6
I0
sbs(I23
I15
tp3291
(izone
Thing
p3292
(dp3293
g4
g60
sg6
I0
sbs(I10
I0
tp3294
(izone
Thing
p3295
(dp3296
g4
g1386
sg6
I0
sbs(I34
I5
tp3297
(izone
Thing
p3298
(dp3299
g4
g10
sg6
I0
sbs(I8
I16
tp3300
(izone
Thing
p3301
(dp3302
g4
g5
sg6
I0
sbs(I37
I8
tp3303
(izone
Thing
p3304
(dp3305
g4
g41
sg6
I0
sbs(I11
I13
tp3306
(izone
Thing
p3307
(dp3308
g4
g1164
sg6
I0
sbs(I35
I24
tp3309
(izone
Thing
p3310
(dp3311
g4
g10
sg6
I0
sbs(I0
I22
tp3312
(izone
Thing
p3313
(dp3314
g4
g155
sg6
I0
sbs(I24
I19
tp3315
(izone
Thing
p3316
(dp3317
g4
g10
sg6
I0
sbs(I14
I10
tp3318
(izone
Thing
p3319
(dp3320
g4
g18
sg6
I0
sbs(I38
I7
tp3321
(izone
Thing
p3322
(dp3323
g4
g41
sg6
I0
sbs(I12
I14
tp3324
(izone
Thing
p3325
(dp3326
g4
g816
sg6
I0
sbs(I36
I19
tp3327
(izone
Thing
p3328
(dp3329
g4
g10
sg6
I0
sbs(I1
I23
tp3330
(izone
Thing
p3331
(dp3332
g4
g155
sg6
I0
sbs(I25
I18
tp3333
(izone
Thing
p3334
(dp3335
g4
g318
sg6
I0
sbs(I15
I3
tp3336
(izone
Thing
p3337
(dp3338
g4
g22
sg6
I0
sbs(I39
I6
tp3339
(izone
Thing
p3340
(dp3341
g4
g10
sg6
I0
sbs(I13
I15
tp3342
(izone
Thing
p3343
(dp3344
g4
g101
sg6
I0
sbs(I37
I18
tp3345
(izone
Thing
p3346
(dp3347
g4
g318
sg6
I0
sbs(I2
I20
tp3348
(izone
Thing
p3349
(dp3350
g4
g155
sg6
I0
sbs(I26
I9
tp3351
(izone
Thing
p3352
(dp3353
g4
g41
sg6
I0
sbs(I0
I12
tp3354
(izone
Thing
p3355
(dp3356
g4
g5
sg6
I0
sbs(I38
I25
tp3357
(izone
Thing
p3358
(dp3359
g4
g10
sg6
I0
sbs(I3
I9
tp3360
(izone
Thing
p3361
(dp3362
g4
g5
sg6
I0
sbs(I27
I4
tp3363
(izone
Thing
p3364
(dp3365
g4
g10
sg6
I0
sbs(I1
I9
tp3366
(izone
Thing
p3367
(dp3368
g4
g5
sg6
I0
sbs(I39
I28
tp3369
(izone
Thing
p3370
(dp3371
g4
g10
sg6
I0
sbs(I4
I2
tp3372
(izone
Thing
p3373
(dp3374
g4
g5
sg6
I0
sbs(I28
I7
tp3375
(izone
Thing
p3376
(dp3377
g4
g41
sg6
I0
sbs(I2
I14
tp3378
(izone
Thing
p3379
(dp3380
g4
g5
sg6
I0
sbs(I31
I10
tp3381
(izone
Thing
p3382
(dp3383
g4
g41
sg6
I0
sbs(I5
I3
tp3384
(izone
Thing
p3385
(dp3386
g4
g5
sg6
I0
sbs(I29
I6
tp3387
(izone
Thing
p3388
(dp3389
g4
g10
sg6
I0
sbs(I16
I5
tp3390
(izone
Thing
p3391
(dp3392
g4
g22
sg6
I0
sbs(I6
I8
tp3393
(izone
Thing
p3394
(dp3395
g4
g5
sg6
I0
sbs(I30
I21
tp3396
(izone
Thing
p3397
(dp3398
g4
g10
sg6
I0
sbs(I19
I16
tp3399
(izone
Thing
p3400
(dp3401
g4
g168
sg6
I0
sbs(I17
I0
tp3402
(izone
Thing
p3403
(dp3404
g4
g22
sg6
I0
sbs(I7
I13
tp3405
(izone
Thing
p3406
(dp3407
g4
g5
sg6
I0
sbs(I31
I16
tp3408
(izone
Thing
p3409
(dp3410
g4
g168
sg6
I0
sbs(I20
I11
tp3411
(izone
Thing
p3412
(dp3413
g4
g41
sg6
I0
sbs(I18
I7
tp3414
(izone
Thing
p3415
(dp3416
g4
g188
sg6
I0
sbs(I16
I27
tp3417
(izone
Thing
p3418
(dp3419
g4
g14
sg6
I0
sbs(I21
I10
tp3420
(izone
Thing
p3421
(dp3422
g4
g41
sg6
I0
sbs(I17
I26
tp3423
(izone
Thing
p3424
(dp3425
g4
g22
sg6
I0
sbs(I22
I1
tp3426
(izone
Thing
p3427
(dp3428
g4
g22
sg6
I0
sbs(I9
I12
tp3429
(izone
Thing
p3430
(dp3431
g4
g22
sg6
I0
sbs(I23
I4
tp3432
(izone
Thing
p3433
(dp3434
g4
g22
sg6
I0
sbs(I10
I11
tp3435
(izone
Thing
p3436
(dp3437
g4
g22
sg6
I0
sbs(I34
I28
tp3438
(izone
Thing
p3439
(dp3440
g4
g10
sg6
I0
sbs(I8
I23
tp3441
(izone
Thing
p3442
(dp3443
g4
g14
sg6
I0
sbs(I11
I2
tp3444
(izone
Thing
p3445
(dp3446
g4
g22
sg6
I0
sbs(I35
I1
tp3447
(izone
Thing
p3448
(dp3449
g4
g10
sg6
I0
sbs(I9
I22
tp3450
(izone
Thing
p3451
(dp3452
g4
g155
sg6
I0
sbs(I24
I26
tp3453
(izone
Thing
p3454
(dp3455
g4
g237
sg6
I0
sbs(I14
I13
tp3456
(izone
Thing
p3457
(dp3458
g4
g1376
sg6
I0
sbs(I12
I5
tp3459
(izone
Thing
p3460
(dp3461
g4
g22
sg6
I0
sbs(I36
I26
tp3462
(izone
Thing
p3463
(dp3464
g4
g10
sg6
I0
sbs(I10
I21
tp3465
(izone
Thing
p3466
(dp3467
g4
g155
sg6
I0
sbs(I25
I27
tp3468
(izone
Thing
p3469
(dp3470
g4
g10
sg6
I0
sbs(I15
I8
tp3471
(izone
Thing
p3472
(dp3473
g4
g18
sg6
I0
sbs(I13
I8
tp3474
(izone
Thing
p3475
(dp3476
g4
g18
sg6
I0
sbs(I37
I27
tp3477
(izone
Thing
p3478
(dp3479
g4
g10
sg6
I0
sbs(I11
I24
tp3480
(izone
Thing
p3481
(dp3482
g4
g155
sg6
I0
sbs(I26
I16
tp3483
(izone
Thing
p3484
(dp3485
g4
g168
sg6
I0
sbs(I0
I3
tp3486
(izone
Thing
p3487
(dp3488
g4
g5
sg6
I0
sbs(I24
I0
tp3489
(izone
Thing
p3490
(dp3491
g4
g10
sg6
I0
sbs(I38
I16
tp3492
(izone
Thing
p3493
(dp3494
g4
g168
sg6
I0
sbs(I3
I14
tp3495
(izone
Thing
p3496
(dp3497
g4
g5
sg6
I0
sbs(I27
I29
tp3498
(izone
Thing
p3499
(dp3500
g4
g10
sg6
I0
sbs(I1
I2
tp3501
(izone
Thing
p3502
(dp3503
g4
g5
sg6
I0
sbs(I39
I21
tp3504
(izone
Thing
p3505
(dp3506
g4
g10
sg6
I0
sbs(I4
I9
tp3507
(izone
Thing
p3508
(dp3509
g4
g5
sg6
I0
sbs(I2
I9
tp3510
(izone
Thing
p3511
(dp3512
g4
g5
sg6
I0
sbs(I5
I12
tp3513
(izone
Thing
p3514
(dp3515
g4
g5
sg6
I0
sbs(I3
I20
tp3516
(izone
Thing
p3517
(dp3518
g4
g155
sg6
I0
sbs(I6
I3
tp3519
(izone
Thing
p3520
(dp3521
g4
g5
sg6
I0
sbs(I30
I28
tp3522
(izone
Thing
p3523
(dp3524
g4
g10
sg6
I0
sbs(I4
I23
tp3525
(izone
Thing
p3526
(dp3527
g4
g155
sg6
I0
sbs(I19
I25
tp3528
(izone
Thing
p3529
(dp3530
g4
g1450
sg6
I0
sbs(I7
I10
tp3531
(izone
Thing
p3532
(dp3533
g4
g5
sg6
I0
sbs(I31
I25
tp3534
(izone
Thing
p3535
(dp3536
g4
g10
sg6
I0
sbs(I5
I22
tp3537
(izone
Thing
p3538
(dp3539
g4
g155
sg6
I0
sbs(I20
I18
tp3540
(izone
Thing
p3541
(dp3542
g4
g318
sg6
I0
sbs(I16
I18
tp3543
(izone
Thing
p3544
(dp3545
g4
g2233
sg6
I0
sbs(I21
I19
tp3546
(izone
Thing
p3547
(dp3548
g4
g22
sg6
I0
sbs(I17
I19
tp3549
(izone
Thing
p3550
(dp3551
g4
(I8
I6
tp3552
sg6
I0
sbs(I32
I21
tp3553
(izone
Thing
p3554
(dp3555
g4
g10
sg6
I0
sbs(I22
I24
tp3556
(izone
Thing
p3557
(dp3558
g4
g22
sg6
I0
sbs(I18
I24
tp3559
(izone
Thing
p3560
(dp3561
g4
g22
sg6
I0
sbs(I33
I16
tp3562
(izone
Thing
p3563
(dp3564
g4
(I5
I7
tp3565
sg6
I0
sbs(I23
I29
tp3566
(izone
Thing
p3567
(dp3568
g4
g22
sg6
I0
sbs(I34
I23
tp3569
(izone
Thing
p3570
(dp3571
g4
g10
sg6
I0
sbs(I32
I11
tp3572
(izone
Thing
p3573
(dp3574
g4
g41
sg6
I0
sbs(I35
I6
tp3575
(izone
Thing
p3576
(dp3577
g4
g10
sg6
I0
sbs(I33
I10
tp3578
(izone
Thing
p3579
(dp3580
g4
g41
sg6
I0
sbs(I14
I20
tp3581
(izone
Thing
p3582
(dp3583
g4
g120
sg6
I0
sbs(I36
I1
tp3584
(izone
Thing
p3585
(dp3586
g4
g10
sg6
I0
sbs(I10
I28
tp3587
(izone
Thing
p3588
(dp3589
g4
g22
sg6
I0
sbs(I25
I28
tp3590
(izone
Thing
p3591
(dp3592
g4
g10
sg6
I0
sbs(I15
I17
tp3593
(izone
Thing
p3594
(dp3595
g4
g101
sg6
I0
sbs(I13
I1
tp3596
(izone
Thing
p3597
(dp3598
g4
g22
sg6
I0
sbs(I37
I4
tp3599
(izone
Thing
p3600
(dp3601
g4
g10
sg6
I0
sbs(I11
I17
tp3602
(izone
Thing
p3603
(dp3604
g4
g227
sg6
I0
sbs(I26
I27
tp3605
(izone
Thing
p3606
(dp3607
g4
g10
sg6
I0
sbs(I0
I26
tp3608
(izone
Thing
p3609
(dp3610
g4
g22
sg6
I0
sbs(I24
I7
tp3611
(izone
Thing
p3612
(dp3613
g4
g41
sg6
I0
sbs(I38
I11
tp3614
(izone
Thing
p3615
(dp3616
g4
g41
sg6
I0
sbs(I12
I26
tp3617
(izone
Thing
p3618
(dp3619
g4
g22
sg6
I0
sbs(I27
I18
tp3620
(izone
Thing
p3621
(dp3622
g4
g318
sg6
I0
sbs(I1
I27
tp3623
(izone
Thing
p3624
(dp3625
g4
g22
sg6
I0
sbs(I25
I6
tp3626
(izone
Thing
p3627
(dp3628
g4
g10
sg6
I0
sbs(I39
I18
tp3629
(izone
Thing
p3630
(dp3631
g4
g318
sg6
I0
sbs(I13
I27
tp3632
(izone
Thing
p3633
(dp3634
g4
g14
sg6
I0
sbs(I28
I21
tp3635
(izone
Thing
p3636
(dp3637
g4
g10
sg6
I0
sbs(I2
I0
tp3638
(izone
Thing
p3639
(dp3640
g4
g5
sg6
I0
sbs(I26
I5
tp3641
(izone
Thing
p3642
(dp3643
g4
g10
sg6
I0
sbs(I29
I24
tp3644
(izone
Thing
p3645
(dp3646
g4
g10
sg6
I0
sbs(I3
I29
tp3647
(izone
Thing
p3648
(dp3649
g4
g22
sg6
I0
sbs(I27
I8
tp3650
(izone
Thing
p3651
(dp3652
g4
g41
sg6
I0
sbs(I30
I7
tp3653
(izone
Thing
p3654
(dp3655
g4
g41
sg6
I0
sbs.