(dp0
(I7
I3
tp1
(izone
Thing
p2
(dp3
S'tile'
p4
(I8
I7
tp5
sS'sheet'
p6
I0
sbs(I31
I6
tp7
(izone
Thing
p8
(dp9
g4
(I8
I7
tp10
sg6
I0
sbs(I20
I25
tp11
(izone
Thing
p12
(dp13
g4
(I8
I7
tp14
sg6
I0
sbs(I16
I9
tp15
(izone
Thing
p16
(dp17
g4
(I8
I19
tp18
sg6
I0
sbs(I6
I28
tp19
(izone
Thing
p20
(dp21
g4
(I8
I7
tp22
sg6
I0
sbs(I21
I28
tp23
(izone
Thing
p24
(dp25
g4
g22
sg6
I0
sbs(I19
I4
tp26
(izone
Thing
p27
(dp28
g4
g22
sg6
I0
sbs(I17
I20
tp29
(izone
Thing
p30
(dp31
g4
g22
sg6
I0
sbs(I7
I25
tp32
(izone
Thing
p33
(dp34
g4
g22
sg6
I0
sbs(I22
I19
tp35
(izone
Thing
p36
(dp37
g4
g22
sg6
I0
sbs(I20
I7
tp38
(izone
Thing
p39
(dp40
g4
(I8
I19
tp41
sg6
I0
sbs(I18
I19
tp42
(izone
Thing
p43
(dp44
g4
g22
sg6
I0
sbs(I23
I26
tp45
(izone
Thing
p46
(dp47
g4
g22
sg6
I0
sbs(I21
I6
tp48
(izone
Thing
p49
(dp50
g4
g22
sg6
I0
sbs(I8
I5
tp51
(izone
Thing
p52
(dp53
g4
g5
sg6
I0
sbs(I32
I2
tp54
(izone
Thing
p55
(dp56
g4
g10
sg6
I0
sbs(I35
I15
tp57
(izone
Thing
p58
(dp59
g4
(I8
I8
tp60
sg6
I0
sbs(I9
I0
tp61
(izone
Thing
p62
(dp63
g4
g22
sg6
I0
sbs(I33
I3
tp64
(izone
Thing
p65
(dp66
g4
g10
sg6
I0
sbs(I36
I8
tp67
(izone
Thing
p68
(dp69
g4
g41
sg6
I0
sbs(I10
I7
tp70
(izone
Thing
p71
(dp72
g4
g22
sg6
I0
sbs(I34
I8
tp73
(izone
Thing
p74
(dp75
g4
g41
sg6
I0
sbs(I37
I13
tp76
(izone
Thing
p77
(dp78
g4
g41
sg6
I0
sbs(I11
I22
tp79
(izone
Thing
p80
(dp81
g4
g22
sg6
I0
sbs(I35
I21
tp82
(izone
Thing
p83
(dp84
g4
g10
sg6
I0
sbs(I0
I17
tp85
(izone
Thing
p86
(dp87
g4
g5
sg6
I0
sbs(I24
I14
tp88
(izone
Thing
p89
(dp90
g4
(I8
I7
tp91
sg6
I0
sbs(I14
I1
tp92
(izone
Thing
p93
(dp94
g4
g22
sg6
I0
sbs(I38
I2
tp95
(izone
Thing
p96
(dp97
g4
g10
sg6
I0
sbs(I12
I17
tp98
(izone
Thing
p99
(dp100
g4
(I1
I7
tp101
sg6
I0
sbs(I36
I22
tp102
(izone
Thing
p103
(dp104
g4
g10
sg6
I0
sbs(I1
I28
tp105
(izone
Thing
p106
(dp107
g4
g22
sg6
I0
sbs(I25
I15
tp108
(izone
Thing
p109
(dp110
g4
g60
sg6
I0
sbs(I15
I4
tp111
(izone
Thing
p112
(dp113
g4
g22
sg6
I0
sbs(I39
I11
tp114
(izone
Thing
p115
(dp116
g4
g10
sg6
I0
sbs(I13
I20
tp117
(izone
Thing
p118
(dp119
g4
(I8
I7
tp120
sg6
I0
sbs(I37
I23
tp121
(izone
Thing
p122
(dp123
g4
g10
sg6
I0
sbs(I2
I27
tp124
(izone
Thing
p125
(dp126
g4
g22
sg6
I0
sbs(I26
I12
tp127
(izone
Thing
p128
(dp129
g4
g41
sg6
I0
sbs(I29
I17
tp130
(izone
Thing
p131
(dp132
g4
(I8
I6
tp133
sg6
I0
sbs(I3
I2
tp134
(izone
Thing
p135
(dp136
g4
g5
sg6
I0
sbs(I27
I1
tp137
(izone
Thing
p138
(dp139
g4
g10
sg6
I0
sbs(I30
I14
tp140
(izone
Thing
p141
(dp142
g4
g10
sg6
I0
sbs(I4
I5
tp143
(izone
Thing
p144
(dp145
g4
g5
sg6
I0
sbs(I28
I10
tp146
(izone
Thing
p147
(dp148
g4
g41
sg6
I0
sbs(I31
I15
tp149
(izone
Thing
p150
(dp151
g4
g60
sg6
I0
sbs(I5
I24
tp152
(izone
Thing
p153
(dp154
g4
(I8
I7
tp155
sg6
I0
sbs(I29
I11
tp156
(izone
Thing
p157
(dp158
g4
g41
sg6
I0
sbs(I16
I0
tp159
(izone
Thing
p160
(dp161
g4
g22
sg6
I0
sbs(I6
I23
tp162
(izone
Thing
p163
(dp164
g4
g155
sg6
I0
sbs(I30
I16
tp165
(izone
Thing
p166
(dp167
g4
(I5
I7
tp168
sg6
I0
sbs(I19
I13
tp169
(izone
Thing
p170
(dp171
g4
g22
sg6
I0
sbs(I17
I13
tp172
(izone
Thing
p173
(dp174
g4
(I8
I8
tp175
sg6
I0
sbs(I7
I22
tp176
(izone
Thing
p177
(dp178
g4
g155
sg6
I0
sbs(I31
I21
tp179
(izone
Thing
p180
(dp181
g4
g10
sg6
I0
sbs(I20
I14
tp182
(izone
Thing
p183
(dp184
g4
g91
sg6
I0
sbs(I18
I10
tp185
(izone
Thing
p186
(dp187
g4
(I8
I19
tp188
sg6
I0
sbs(I23
I19
tp189
(izone
Thing
p190
(dp191
g4
g10
sg6
I0
sbs(I21
I15
tp192
(izone
Thing
p193
(dp194
g4
(I8
I8
tp195
sg6
I0
sbs(I8
I12
tp196
(izone
Thing
p197
(dp198
g4
(I8
I7
tp199
sg6
I0
sbs(I32
I25
tp200
(izone
Thing
p201
(dp202
g4
g10
sg6
I0
sbs(I22
I12
tp203
(izone
Thing
p204
(dp205
g4
g41
sg6
I0
sbs(I9
I9
tp206
(izone
Thing
p207
(dp208
g4
g22
sg6
I0
sbs(I33
I4
tp209
(izone
Thing
p210
(dp211
g4
g10
sg6
I0
sbs(I23
I9
tp212
(izone
Thing
p213
(dp214
g4
g41
sg6
I0
sbs(I10
I14
tp215
(izone
Thing
p216
(dp217
g4
(I9
I7
tp218
sg6
I0
sbs(I34
I3
tp219
(izone
Thing
p220
(dp221
g4
g10
sg6
I0
sbs(I8
I18
tp222
(izone
Thing
p223
(dp224
g4
g155
sg6
I0
sbs(I11
I15
tp225
(izone
Thing
p226
(dp227
g4
(I0
I7
tp228
sg6
I0
sbs(I35
I26
tp229
(izone
Thing
p230
(dp231
g4
g10
sg6
I0
sbs(I9
I19
tp232
(izone
Thing
p233
(dp234
g4
g22
sg6
I0
sbs(I24
I21
tp235
(izone
Thing
p236
(dp237
g4
(I8
I7
tp238
sg6
I0
sbs(I14
I8
tp239
(izone
Thing
p240
(dp241
g4
g18
sg6
I0
sbs(I38
I5
tp242
(izone
Thing
p243
(dp244
g4
g10
sg6
I0
sbs(I12
I8
tp245
(izone
Thing
p246
(dp247
g4
g18
sg6
I0
sbs(I36
I29
tp248
(izone
Thing
p249
(dp250
g4
g10
sg6
I0
sbs(I1
I21
tp251
(izone
Thing
p252
(dp253
g4
g155
sg6
I0
sbs(I25
I16
tp254
(izone
Thing
p255
(dp256
g4
g168
sg6
I0
sbs(I15
I13
tp257
(izone
Thing
p258
(dp259
g4
(I7
I7
tp260
sg6
I0
sbs(I39
I0
tp261
(izone
Thing
p262
(dp263
g4
g10
sg6
I0
sbs(I13
I13
tp264
(izone
Thing
p265
(dp266
g4
(I9
I8
tp267
sg6
I0
sbs(I37
I16
tp268
(izone
Thing
p269
(dp270
g4
g168
sg6
I0
sbs(I2
I18
tp271
(izone
Thing
p272
(dp273
g4
g155
sg6
I0
sbs(I26
I23
tp274
(izone
Thing
p275
(dp276
g4
g10
sg6
I0
sbs(I0
I14
tp277
(izone
Thing
p278
(dp279
g4
g5
sg6
I0
sbs(I3
I11
tp280
(izone
Thing
p281
(dp282
g4
g5
sg6
I0
sbs(I27
I6
tp283
(izone
Thing
p284
(dp285
g4
g10
sg6
I0
sbs(I1
I15
tp286
(izone
Thing
p287
(dp288
g4
g5
sg6
I0
sbs(I4
I12
tp289
(izone
Thing
p290
(dp291
g4
g5
sg6
I0
sbs(I28
I1
tp292
(izone
Thing
p293
(dp294
g4
g10
sg6
I0
sbs(I2
I12
tp295
(izone
Thing
p296
(dp297
g4
g5
sg6
I0
sbs(I5
I1
tp298
(izone
Thing
p299
(dp300
g4
g5
sg6
I0
sbs(I29
I4
tp301
(izone
Thing
p302
(dp303
g4
g10
sg6
I0
sbs(I3
I17
tp304
(izone
Thing
p305
(dp306
g4
g5
sg6
I0
sbs(I16
I7
tp307
(izone
Thing
p308
(dp309
g4
g18
sg6
I0
sbs(I6
I14
tp310
(izone
Thing
p311
(dp312
g4
g5
sg6
I0
sbs(I30
I27
tp313
(izone
Thing
p314
(dp315
g4
g10
sg6
I0
sbs(I19
I18
tp316
(izone
Thing
p317
(dp318
g4
(I8
I7
tp319
sg6
I0
sbs(I17
I6
tp320
(izone
Thing
p321
(dp322
g4
g22
sg6
I0
sbs(I7
I15
tp323
(izone
Thing
p324
(dp325
g4
g5
sg6
I0
sbs(I31
I18
tp326
(izone
Thing
p327
(dp328
g4
g319
sg6
I0
sbs(I20
I21
tp329
(izone
Thing
p330
(dp331
g4
g14
sg6
I0
sbs(I18
I5
tp332
(izone
Thing
p333
(dp334
g4
g22
sg6
I0
sbs(I16
I29
tp335
(izone
Thing
p336
(dp337
g4
g22
sg6
I0
sbs(I21
I8
tp338
(izone
Thing
p339
(dp340
g4
g41
sg6
I0
sbs(I17
I24
tp341
(izone
Thing
p342
(dp343
g4
g22
sg6
I0
sbs(I32
I16
tp344
(izone
Thing
p345
(dp346
g4
g168
sg6
I0
sbs(I22
I7
tp347
(izone
Thing
p348
(dp349
g4
g41
sg6
I0
sbs(I33
I29
tp350
(izone
Thing
p351
(dp352
g4
g10
sg6
I0
sbs(I23
I6
tp353
(izone
Thing
p354
(dp355
g4
g22
sg6
I0
sbs(I10
I9
tp356
(izone
Thing
p357
(dp358
g4
(I10
I9
tp359
sg6
I0
sbs(I34
I26
tp360
(izone
Thing
p361
(dp362
g4
g10
sg6
I0
sbs(I8
I25
tp363
(izone
Thing
p364
(dp365
g4
g14
sg6
I0
sbs(I11
I4
tp366
(izone
Thing
p367
(dp368
g4
g22
sg6
I0
sbs(I35
I3
tp369
(izone
Thing
p370
(dp371
g4
g10
sg6
I0
sbs(I9
I20
tp372
(izone
Thing
p373
(dp374
g4
g155
sg6
I0
sbs(I24
I28
tp375
(izone
Thing
p376
(dp377
g4
g238
sg6
I0
sbs(I14
I19
tp378
(izone
Thing
p379
(dp380
g4
(I8
I6
tp381
sg6
I0
sbs(I12
I7
tp382
(izone
Thing
p383
(dp384
g4
g18
sg6
I0
sbs(I36
I4
tp385
(izone
Thing
p386
(dp387
g4
g10
sg6
I0
sbs(I10
I19
tp388
(izone
Thing
p389
(dp390
g4
(I8
I7
tp391
sg6
I0
sbs(I25
I25
tp392
(izone
Thing
p393
(dp394
g4
g10
sg6
I0
sbs(I15
I10
tp395
(izone
Thing
p396
(dp397
g4
g18
sg6
I0
sbs(I13
I6
tp398
(izone
Thing
p399
(dp400
g4
g22
sg6
I0
sbs(I37
I25
tp401
(izone
Thing
p402
(dp403
g4
g10
sg6
I0
sbs(I11
I26
tp404
(izone
Thing
p405
(dp406
g4
g14
sg6
I0
sbs(I0
I5
tp407
(izone
Thing
p408
(dp409
g4
g5
sg6
I0
sbs(I24
I2
tp410
(izone
Thing
p411
(dp412
g4
g10
sg6
I0
sbs(I38
I22
tp413
(izone
Thing
p414
(dp415
g4
g10
sg6
I0
sbs(I12
I29
tp416
(izone
Thing
p417
(dp418
g4
g22
sg6
I0
sbs(I1
I0
tp419
(izone
Thing
p420
(dp421
g4
g5
sg6
I0
sbs(I25
I3
tp422
(izone
Thing
p423
(dp424
g4
g10
sg6
I0
sbs(I39
I23
tp425
(izone
Thing
p426
(dp427
g4
g10
sg6
I0
sbs(I4
I11
tp428
(izone
Thing
p429
(dp430
g4
g5
sg6
I0
sbs(I28
I24
tp431
(izone
Thing
p432
(dp433
g4
g10
sg6
I0
sbs(I2
I7
tp434
(izone
Thing
p435
(dp436
g4
g5
sg6
I0
sbs(I5
I10
tp437
(izone
Thing
p438
(dp439
g4
g5
sg6
I0
sbs(I29
I29
tp440
(izone
Thing
p441
(dp442
g4
g10
sg6
I0
sbs(I3
I22
tp443
(izone
Thing
p444
(dp445
g4
g155
sg6
I0
sbs(I6
I1
tp446
(izone
Thing
p447
(dp448
g4
g5
sg6
I0
sbs(I30
I2
tp449
(izone
Thing
p450
(dp451
g4
g10
sg6
I0
sbs(I4
I17
tp452
(izone
Thing
p453
(dp454
g4
g5
sg6
I0
sbs(I19
I27
tp455
(izone
Thing
p456
(dp457
g4
g14
sg6
I0
sbs(I7
I4
tp458
(izone
Thing
p459
(dp460
g4
g5
sg6
I0
sbs(I31
I27
tp461
(izone
Thing
p462
(dp463
g4
g10
sg6
I0
sbs(I5
I20
tp464
(izone
Thing
p465
(dp466
g4
g155
sg6
I0
sbs(I20
I28
tp467
(izone
Thing
p468
(dp469
g4
g22
sg6
I0
sbs(I16
I20
tp470
(izone
Thing
p471
(dp472
g4
g120
sg6
I0
sbs(I6
I27
tp473
(izone
Thing
p474
(dp475
g4
g22
sg6
I0
sbs(I21
I17
tp476
(izone
Thing
p477
(dp478
g4
g133
sg6
I0
sbs(I19
I1
tp479
(izone
Thing
p480
(dp481
g4
g22
sg6
I0
sbs(I17
I17
tp482
(izone
Thing
p483
(dp484
g4
(I2
I7
tp485
sg6
I0
sbs(I32
I23
tp486
(izone
Thing
p487
(dp488
g4
g10
sg6
I0
sbs(I18
I22
tp489
(izone
Thing
p490
(dp491
g4
g22
sg6
I0
sbs(I33
I22
tp492
(izone
Thing
p493
(dp494
g4
g10
sg6
I0
sbs(I34
I21
tp495
(izone
Thing
p496
(dp497
g4
g10
sg6
I0
sbs(I8
I0
tp498
(izone
Thing
p499
(dp500
g4
g5
sg6
I0
sbs(I32
I13
tp501
(izone
Thing
p502
(dp503
g4
g41
sg6
I0
sbs(I35
I8
tp504
(izone
Thing
p505
(dp506
g4
g41
sg6
I0
sbs(I9
I29
tp507
(izone
Thing
p508
(dp509
g4
g22
sg6
I0
sbs(I33
I8
tp510
(izone
Thing
p511
(dp512
g4
g41
sg6
I0
sbs(I14
I26
tp513
(izone
Thing
p514
(dp515
g4
g22
sg6
I0
sbs(I36
I3
tp516
(izone
Thing
p517
(dp518
g4
g10
sg6
I0
sbs(I10
I26
tp519
(izone
Thing
p520
(dp521
g4
g14
sg6
I0
sbs(I34
I15
tp522
(izone
Thing
p523
(dp524
g4
g60
sg6
I0
sbs(I15
I19
tp525
(izone
Thing
p526
(dp527
g4
g381
sg6
I0
sbs(I37
I2
tp528
(izone
Thing
p529
(dp530
g4
g10
sg6
I0
sbs(I11
I19
tp531
(izone
Thing
p532
(dp533
g4
(I8
I6
tp534
sg6
I0
sbs(I26
I25
tp535
(izone
Thing
p536
(dp537
g4
g10
sg6
I0
sbs(I0
I28
tp538
(izone
Thing
p539
(dp540
g4
g22
sg6
I0
sbs(I24
I9
tp541
(izone
Thing
p542
(dp543
g4
g41
sg6
I0
sbs(I38
I9
tp544
(izone
Thing
p545
(dp546
g4
g41
sg6
I0
sbs(I12
I20
tp547
(izone
Thing
p548
(dp549
g4
g120
sg6
I0
sbs(I27
I20
tp550
(izone
Thing
p551
(dp552
g4
g10
sg6
I0
sbs(I1
I25
tp553
(izone
Thing
p554
(dp555
g4
g22
sg6
I0
sbs(I25
I4
tp556
(izone
Thing
p557
(dp558
g4
g10
sg6
I0
sbs(I39
I12
tp559
(izone
Thing
p560
(dp561
g4
g10
sg6
I0
sbs(I13
I25
tp562
(izone
Thing
p563
(dp564
g4
g22
sg6
I0
sbs(I28
I23
tp565
(izone
Thing
p566
(dp567
g4
g10
sg6
I0
sbs(I26
I3
tp568
(izone
Thing
p569
(dp570
g4
g10
sg6
I0
sbs(I29
I22
tp571
(izone
Thing
p572
(dp573
g4
g10
sg6
I0
sbs(I27
I10
tp574
(izone
Thing
p575
(dp576
g4
g41
sg6
I0
sbs(I30
I5
tp577
(izone
Thing
p578
(dp579
g4
g10
sg6
I0
sbs(I4
I24
tp580
(izone
Thing
p581
(dp582
g4
g22
sg6
I0
sbs(I28
I13
tp583
(izone
Thing
p584
(dp585
g4
g41
sg6
I0
sbs(I31
I0
tp586
(izone
Thing
p587
(dp588
g4
g10
sg6
I0
sbs(I5
I29
tp589
(izone
Thing
p590
(dp591
g4
g22
sg6
I0
sbs(I20
I27
tp592
(izone
Thing
p593
(dp594
g4
g14
sg6
I0
sbs(I16
I11
tp595
(izone
Thing
p596
(dp597
g4
g18
sg6
I0
sbs(I6
I18
tp598
(izone
Thing
p599
(dp600
g4
g155
sg6
I0
sbs(I21
I26
tp601
(izone
Thing
p602
(dp603
g4
g22
sg6
I0
sbs(I19
I6
tp604
(izone
Thing
p605
(dp606
g4
g22
sg6
I0
sbs(I17
I10
tp607
(izone
Thing
p608
(dp609
g4
g188
sg6
I0
sbs(I7
I27
tp610
(izone
Thing
p611
(dp612
g4
g14
sg6
I0
sbs(I22
I17
tp613
(izone
Thing
p614
(dp615
g4
g133
sg6
I0
sbs(I20
I1
tp616
(izone
Thing
p617
(dp618
g4
g22
sg6
I0
sbs(I18
I17
tp619
(izone
Thing
p620
(dp621
g4
(I7
I6
tp622
sg6
I0
sbs(I23
I20
tp623
(izone
Thing
p624
(dp625
g4
g238
sg6
I0
sbs(I21
I4
tp626
(izone
Thing
p627
(dp628
g4
g22
sg6
I0
sbs(I8
I7
tp629
(izone
Thing
p630
(dp631
g4
(I8
I7
tp632
sg6
I0
sbs(I32
I4
tp633
(izone
Thing
p634
(dp635
g4
g10
sg6
I0
sbs(I22
I11
tp636
(izone
Thing
p637
(dp638
g4
g41
sg6
I0
sbs(I9
I6
tp639
(izone
Thing
p640
(dp641
g4
g22
sg6
I0
sbs(I33
I1
tp642
(izone
Thing
p643
(dp644
g4
g10
sg6
I0
sbs(I14
I29
tp645
(izone
Thing
p646
(dp647
g4
g22
sg6
I0
sbs(I36
I10
tp648
(izone
Thing
p649
(dp650
g4
g41
sg6
I0
sbs(I10
I5
tp651
(izone
Thing
p652
(dp653
g4
g22
sg6
I0
sbs(I34
I6
tp654
(izone
Thing
p655
(dp656
g4
g10
sg6
I0
sbs(I15
I24
tp657
(izone
Thing
p658
(dp659
g4
g22
sg6
I0
sbs(I37
I11
tp660
(izone
Thing
p661
(dp662
g4
g41
sg6
I0
sbs(I11
I8
tp663
(izone
Thing
p664
(dp665
g4
g18
sg6
I0
sbs(I35
I23
tp666
(izone
Thing
p667
(dp668
g4
g10
sg6
I0
sbs(I0
I19
tp669
(izone
Thing
p670
(dp671
g4
g155
sg6
I0
sbs(I24
I16
tp672
(izone
Thing
p673
(dp674
g4
(I5
I7
tp675
sg6
I0
sbs(I14
I7
tp676
(izone
Thing
p677
(dp678
g4
g18
sg6
I0
sbs(I38
I0
tp679
(izone
Thing
p680
(dp681
g4
g10
sg6
I0
sbs(I12
I19
tp682
(izone
Thing
p683
(dp684
g4
(I8
I6
tp685
sg6
I0
sbs(I36
I16
tp686
(izone
Thing
p687
(dp688
g4
g168
sg6
I0
sbs(I1
I18
tp689
(izone
Thing
p690
(dp691
g4
g155
sg6
I0
sbs(I25
I13
tp692
(izone
Thing
p693
(dp694
g4
g41
sg6
I0
sbs(I15
I6
tp695
(izone
Thing
p696
(dp697
g4
g22
sg6
I0
sbs(I39
I5
tp698
(izone
Thing
p699
(dp700
g4
g10
sg6
I0
sbs(I13
I18
tp701
(izone
Thing
p702
(dp703
g4
(I1
I7
tp704
sg6
I0
sbs(I37
I21
tp705
(izone
Thing
p706
(dp707
g4
g10
sg6
I0
sbs(I2
I25
tp708
(izone
Thing
p709
(dp710
g4
g22
sg6
I0
sbs(I26
I10
tp711
(izone
Thing
p712
(dp713
g4
g41
sg6
I0
sbs(I0
I9
tp714
(izone
Thing
p715
(dp716
g4
g5
sg6
I0
sbs(I38
I26
tp717
(izone
Thing
p718
(dp719
g4
g10
sg6
I0
sbs(I3
I4
tp720
(izone
Thing
p721
(dp722
g4
g5
sg6
I0
sbs(I27
I3
tp723
(izone
Thing
p724
(dp725
g4
g10
sg6
I0
sbs(I30
I12
tp726
(izone
Thing
p727
(dp728
g4
g41
sg6
I0
sbs(I4
I7
tp729
(izone
Thing
p730
(dp731
g4
g5
sg6
I0
sbs(I28
I4
tp732
(izone
Thing
p733
(dp734
g4
g10
sg6
I0
sbs(I31
I9
tp735
(izone
Thing
p736
(dp737
g4
g41
sg6
I0
sbs(I5
I6
tp738
(izone
Thing
p739
(dp740
g4
g5
sg6
I0
sbs(I29
I9
tp741
(izone
Thing
p742
(dp743
g4
g41
sg6
I0
sbs(I16
I2
tp744
(izone
Thing
p745
(dp746
g4
g22
sg6
I0
sbs(I6
I21
tp747
(izone
Thing
p748
(dp749
g4
g155
sg6
I0
sbs(I30
I22
tp750
(izone
Thing
p751
(dp752
g4
g10
sg6
I0
sbs(I19
I15
tp753
(izone
Thing
p754
(dp755
g4
g60
sg6
I0
sbs(I17
I3
tp756
(izone
Thing
p757
(dp758
g4
g22
sg6
I0
sbs(I7
I16
tp759
(izone
Thing
p760
(dp761
g4
g5
sg6
I0
sbs(I31
I23
tp762
(izone
Thing
p763
(dp764
g4
g10
sg6
I0
sbs(I20
I8
tp765
(izone
Thing
p766
(dp767
g4
g41
sg6
I0
sbs(I18
I8
tp768
(izone
Thing
p769
(dp770
g4
g188
sg6
I0
sbs(I16
I24
tp771
(izone
Thing
p772
(dp773
g4
g22
sg6
I0
sbs(I21
I13
tp774
(izone
Thing
p775
(dp776
g4
g41
sg6
I0
sbs(I8
I14
tp777
(izone
Thing
p778
(dp779
g4
g5
sg6
I0
sbs(I32
I27
tp780
(izone
Thing
p781
(dp782
g4
g10
sg6
I0
sbs(I22
I2
tp783
(izone
Thing
p784
(dp785
g4
g22
sg6
I0
sbs(I9
I15
tp786
(izone
Thing
p787
(dp788
g4
g22
sg6
I0
sbs(I33
I26
tp789
(izone
Thing
p790
(dp791
g4
g10
sg6
I0
sbs(I23
I11
tp792
(izone
Thing
p793
(dp794
g4
g41
sg6
I0
sbs(I10
I12
tp795
(izone
Thing
p796
(dp797
g4
g22
sg6
I0
sbs(I34
I1
tp798
(izone
Thing
p799
(dp800
g4
g10
sg6
I0
sbs(I8
I20
tp801
(izone
Thing
p802
(dp803
g4
g155
sg6
I0
sbs(I11
I1
tp804
(izone
Thing
p805
(dp806
g4
g22
sg6
I0
sbs(I35
I28
tp807
(izone
Thing
p808
(dp809
g4
g10
sg6
I0
sbs(I9
I17
tp810
(izone
Thing
p811
(dp812
g4
g22
sg6
I0
sbs(I24
I23
tp813
(izone
Thing
p814
(dp815
g4
g238
sg6
I0
sbs(I14
I14
tp816
(izone
Thing
p817
(dp818
g4
(I1
I6
tp819
sg6
I0
sbs(I12
I10
tp820
(izone
Thing
p821
(dp822
g4
g18
sg6
I0
sbs(I10
I22
tp823
(izone
Thing
p824
(dp825
g4
g155
sg6
I0
sbs(I25
I22
tp826
(izone
Thing
p827
(dp828
g4
g10
sg6
I0
sbs(I15
I15
tp829
(izone
Thing
p830
(dp831
g4
(I1
I7
tp832
sg6
I0
sbs(I39
I2
tp833
(izone
Thing
p834
(dp835
g4
g10
sg6
I0
sbs(I13
I11
tp836
(izone
Thing
p837
(dp838
g4
g188
sg6
I0
sbs(I2
I16
tp839
(izone
Thing
p840
(dp841
g4
g5
sg6
I0
sbs(I26
I21
tp842
(izone
Thing
p843
(dp844
g4
g10
sg6
I0
sbs(I0
I0
tp845
(izone
Thing
p846
(dp847
g4
g5
sg6
I0
sbs(I38
I29
tp848
(izone
Thing
p849
(dp850
g4
g10
sg6
I0
sbs(I3
I13
tp851
(izone
Thing
p852
(dp853
g4
g5
sg6
I0
sbs(I27
I24
tp854
(izone
Thing
p855
(dp856
g4
g10
sg6
I0
sbs(I1
I13
tp857
(izone
Thing
p858
(dp859
g4
g5
sg6
I0
sbs(I39
I24
tp860
(izone
Thing
p861
(dp862
g4
g10
sg6
I0
sbs(I4
I14
tp863
(izone
Thing
p864
(dp865
g4
g5
sg6
I0
sbs(I28
I3
tp866
(izone
Thing
p867
(dp868
g4
g10
sg6
I0
sbs(I2
I10
tp869
(izone
Thing
p870
(dp871
g4
g5
sg6
I0
sbs(I5
I15
tp872
(izone
Thing
p873
(dp874
g4
g5
sg6
I0
sbs(I29
I2
tp875
(izone
Thing
p876
(dp877
g4
g10
sg6
I0
sbs(I3
I19
tp878
(izone
Thing
p879
(dp880
g4
g155
sg6
I0
sbs(I6
I12
tp881
(izone
Thing
p882
(dp883
g4
g5
sg6
I0
sbs(I30
I25
tp884
(izone
Thing
p885
(dp886
g4
g10
sg6
I0
sbs(I4
I20
tp887
(izone
Thing
p888
(dp889
g4
g155
sg6
I0
sbs(I19
I20
tp890
(izone
Thing
p891
(dp892
g4
g22
sg6
I0
sbs(I17
I4
tp893
(izone
Thing
p894
(dp895
g4
g22
sg6
I0
sbs(I7
I9
tp896
(izone
Thing
p897
(dp898
g4
g5
sg6
I0
sbs(I31
I28
tp899
(izone
Thing
p900
(dp901
g4
g10
sg6
I0
sbs(I20
I23
tp902
(izone
Thing
p903
(dp904
g4
g14
sg6
I0
sbs(I18
I3
tp905
(izone
Thing
p906
(dp907
g4
g22
sg6
I0
sbs(I21
I22
tp908
(izone
Thing
p909
(dp910
g4
g22
sg6
I0
sbs(I32
I18
tp911
(izone
Thing
p912
(dp913
g4
g319
sg6
I0
sbs(I22
I5
tp914
(izone
Thing
p915
(dp916
g4
g22
sg6
I0
sbs(I18
I29
tp917
(izone
Thing
p918
(dp919
g4
g22
sg6
I0
sbs(I33
I19
tp920
(izone
Thing
p921
(dp922
g4
g10
sg6
I0
sbs(I23
I0
tp923
(izone
Thing
p924
(dp925
g4
g22
sg6
I0
sbs(I34
I24
tp926
(izone
Thing
p927
(dp928
g4
g10
sg6
I0
sbs(I8
I27
tp929
(izone
Thing
p930
(dp931
g4
g14
sg6
I0
sbs(I32
I8
tp932
(izone
Thing
p933
(dp934
g4
g41
sg6
I0
sbs(I11
I6
tp935
(izone
Thing
p936
(dp937
g4
g22
sg6
I0
sbs(I35
I5
tp938
(izone
Thing
p939
(dp940
g4
g10
sg6
I0
sbs(I9
I26
tp941
(izone
Thing
p942
(dp943
g4
g22
sg6
I0
sbs(I14
I17
tp944
(izone
Thing
p945
(dp946
g4
g101
sg6
I0
sbs(I12
I1
tp947
(izone
Thing
p948
(dp949
g4
g22
sg6
I0
sbs(I36
I6
tp950
(izone
Thing
p951
(dp952
g4
g10
sg6
I0
sbs(I10
I17
tp953
(izone
Thing
p954
(dp955
g4
(I9
I7
tp956
sg6
I0
sbs(I15
I20
tp957
(izone
Thing
p958
(dp959
g4
g120
sg6
I0
sbs(I13
I4
tp960
(izone
Thing
p961
(dp962
g4
g22
sg6
I0
sbs(I37
I7
tp963
(izone
Thing
p964
(dp965
g4
g41
sg6
I0
sbs(I11
I28
tp966
(izone
Thing
p967
(dp968
g4
g22
sg6
I0
sbs(I26
I28
tp969
(izone
Thing
p970
(dp971
g4
g10
sg6
I0
sbs(I0
I7
tp972
(izone
Thing
p973
(dp974
g4
g5
sg6
I0
sbs(I24
I4
tp975
(izone
Thing
p976
(dp977
g4
g10
sg6
I0
sbs(I38
I20
tp978
(izone
Thing
p979
(dp980
g4
g10
sg6
I0
sbs(I27
I17
tp981
(izone
Thing
p982
(dp983
g4
g133
sg6
I0
sbs(I1
I6
tp984
(izone
Thing
p985
(dp986
g4
g5
sg6
I0
sbs(I25
I1
tp987
(izone
Thing
p988
(dp989
g4
g10
sg6
I0
sbs(I39
I17
tp990
(izone
Thing
p991
(dp992
g4
g133
sg6
I0
sbs(I28
I26
tp993
(izone
Thing
p994
(dp995
g4
g10
sg6
I0
sbs(I2
I5
tp996
(izone
Thing
p997
(dp998
g4
g5
sg6
I0
sbs(I26
I6
tp999
(izone
Thing
p1000
(dp1001
g4
g10
sg6
I0
sbs(I5
I8
tp1002
(izone
Thing
p1003
(dp1004
g4
g5
sg6
I0
sbs(I29
I27
tp1005
(izone
Thing
p1006
(dp1007
g4
g10
sg6
I0
sbs(I3
I24
tp1008
(izone
Thing
p1009
(dp1010
g4
g22
sg6
I0
sbs(I6
I7
tp1011
(izone
Thing
p1012
(dp1013
g4
g5
sg6
I0
sbs(I30
I0
tp1014
(izone
Thing
p1015
(dp1016
g4
g10
sg6
I0
sbs(I4
I19
tp1017
(izone
Thing
p1018
(dp1019
g4
g155
sg6
I0
sbs(I19
I29
tp1020
(izone
Thing
p1021
(dp1022
g4
g22
sg6
I0
sbs(I7
I6
tp1023
(izone
Thing
p1024
(dp1025
g4
g5
sg6
I0
sbs(I31
I5
tp1026
(izone
Thing
p1027
(dp1028
g4
g10
sg6
I0
sbs(I5
I18
tp1029
(izone
Thing
p1030
(dp1031
g4
(I8
I7
tp1032
sg6
I0
sbs(I16
I22
tp1033
(izone
Thing
p1034
(dp1035
g4
g22
sg6
I0
sbs(I6
I25
tp1036
(izone
Thing
p1037
(dp1038
g4
g22
sg6
I0
sbs(I19
I3
tp1039
(izone
Thing
p1040
(dp1041
g4
g22
sg6
I0
sbs(I17
I23
tp1042
(izone
Thing
p1043
(dp1044
g4
g22
sg6
I0
sbs(I7
I28
tp1045
(izone
Thing
p1046
(dp1047
g4
g22
sg6
I0
sbs(I22
I28
tp1048
(izone
Thing
p1049
(dp1050
g4
g22
sg6
I0
sbs(I20
I4
tp1051
(izone
Thing
p1052
(dp1053
g4
g22
sg6
I0
sbs(I18
I20
tp1054
(izone
Thing
p1055
(dp1056
g4
g22
sg6
I0
sbs(I33
I20
tp1057
(izone
Thing
p1058
(dp1059
g4
g10
sg6
I0
sbs(I23
I25
tp1060
(izone
Thing
p1061
(dp1062
g4
g22
sg6
I0
sbs(I34
I19
tp1063
(izone
Thing
p1064
(dp1065
g4
g10
sg6
I0
sbs(I8
I2
tp1066
(izone
Thing
p1067
(dp1068
g4
g5
sg6
I0
sbs(I32
I15
tp1069
(izone
Thing
p1070
(dp1071
g4
g60
sg6
I0
sbs(I35
I10
tp1072
(izone
Thing
p1073
(dp1074
g4
g41
sg6
I0
sbs(I9
I3
tp1075
(izone
Thing
p1076
(dp1077
g4
g22
sg6
I0
sbs(I33
I14
tp1078
(izone
Thing
p1079
(dp1080
g4
g10
sg6
I0
sbs(I14
I24
tp1081
(izone
Thing
p1082
(dp1083
g4
g22
sg6
I0
sbs(I36
I13
tp1084
(izone
Thing
p1085
(dp1086
g4
g41
sg6
I0
sbs(I10
I24
tp1087
(izone
Thing
p1088
(dp1089
g4
g155
sg6
I0
sbs(I34
I13
tp1090
(izone
Thing
p1091
(dp1092
g4
g41
sg6
I0
sbs(I15
I29
tp1093
(izone
Thing
p1094
(dp1095
g4
g22
sg6
I0
sbs(I37
I0
tp1096
(izone
Thing
p1097
(dp1098
g4
g10
sg6
I0
sbs(I11
I21
tp1099
(izone
Thing
p1100
(dp1101
g4
g22
sg6
I0
sbs(I35
I16
tp1102
(izone
Thing
p1103
(dp1104
g4
g168
sg6
I0
sbs(I24
I11
tp1105
(izone
Thing
p1106
(dp1107
g4
g41
sg6
I0
sbs(I14
I2
tp1108
(izone
Thing
p1109
(dp1110
g4
g22
sg6
I0
sbs(I38
I15
tp1111
(izone
Thing
p1112
(dp1113
g4
g60
sg6
I0
sbs(I12
I22
tp1114
(izone
Thing
p1115
(dp1116
g4
g22
sg6
I0
sbs(I27
I22
tp1117
(izone
Thing
p1118
(dp1119
g4
g10
sg6
I0
sbs(I25
I10
tp1120
(izone
Thing
p1121
(dp1122
g4
g41
sg6
I0
sbs(I39
I14
tp1123
(izone
Thing
p1124
(dp1125
g4
g10
sg6
I0
sbs(I13
I23
tp1126
(izone
Thing
p1127
(dp1128
g4
g22
sg6
I0
sbs(I28
I17
tp1129
(izone
Thing
p1130
(dp1131
g4
g133
sg6
I0
sbs(I2
I28
tp1132
(izone
Thing
p1133
(dp1134
g4
g22
sg6
I0
sbs(I26
I1
tp1135
(izone
Thing
p1136
(dp1137
g4
g10
sg6
I0
sbs(I29
I20
tp1138
(izone
Thing
p1139
(dp1140
g4
g10
sg6
I0
sbs(I3
I1
tp1141
(izone
Thing
p1142
(dp1143
g4
g5
sg6
I0
sbs(I27
I12
tp1144
(izone
Thing
p1145
(dp1146
g4
g41
sg6
I0
sbs(I30
I11
tp1147
(izone
Thing
p1148
(dp1149
g4
g41
sg6
I0
sbs(I4
I26
tp1150
(izone
Thing
p1151
(dp1152
g4
g22
sg6
I0
sbs(I28
I15
tp1153
(izone
Thing
p1154
(dp1155
g4
g60
sg6
I0
sbs(I31
I2
tp1156
(izone
Thing
p1157
(dp1158
g4
g10
sg6
I0
sbs(I5
I27
tp1159
(izone
Thing
p1160
(dp1161
g4
g22
sg6
I0
sbs(I29
I14
tp1162
(izone
Thing
p1163
(dp1164
g4
g10
sg6
I0
sbs(I16
I13
tp1165
(izone
Thing
p1166
(dp1167
g4
(I8
I8
tp1168
sg6
I0
sbs(I6
I16
tp1169
(izone
Thing
p1170
(dp1171
g4
g5
sg6
I0
sbs(I21
I24
tp1172
(izone
Thing
p1173
(dp1174
g4
g22
sg6
I0
sbs(I19
I8
tp1175
(izone
Thing
p1176
(dp1177
g4
g41
sg6
I0
sbs(I17
I8
tp1178
(izone
Thing
p1179
(dp1180
g4
g188
sg6
I0
sbs(I7
I21
tp1181
(izone
Thing
p1182
(dp1183
g4
g155
sg6
I0
sbs(I22
I23
tp1184
(izone
Thing
p1185
(dp1186
g4
g22
sg6
I0
sbs(I20
I3
tp1187
(izone
Thing
p1188
(dp1189
g4
g22
sg6
I0
sbs(I18
I15
tp1190
(izone
Thing
p1191
(dp1192
g4
(I7
I8
tp1193
sg6
I0
sbs(I23
I22
tp1194
(izone
Thing
p1195
(dp1196
g4
g22
sg6
I0
sbs(I21
I2
tp1197
(izone
Thing
p1198
(dp1199
g4
g22
sg6
I0
sbs(I8
I9
tp1200
(izone
Thing
p1201
(dp1202
g4
g199
sg6
I0
sbs(I32
I6
tp1203
(izone
Thing
p1204
(dp1205
g4
g10
sg6
I0
sbs(I22
I9
tp1206
(izone
Thing
p1207
(dp1208
g4
g41
sg6
I0
sbs(I9
I4
tp1209
(izone
Thing
p1210
(dp1211
g4
g22
sg6
I0
sbs(I33
I7
tp1212
(izone
Thing
p1213
(dp1214
g4
g41
sg6
I0
sbs(I23
I12
tp1215
(izone
Thing
p1216
(dp1217
g4
g41
sg6
I0
sbs(I10
I3
tp1218
(izone
Thing
p1219
(dp1220
g4
g22
sg6
I0
sbs(I34
I4
tp1221
(izone
Thing
p1222
(dp1223
g4
g10
sg6
I0
sbs(I15
I26
tp1224
(izone
Thing
p1225
(dp1226
g4
g22
sg6
I0
sbs(I37
I9
tp1227
(izone
Thing
p1228
(dp1229
g4
g41
sg6
I0
sbs(I11
I10
tp1230
(izone
Thing
p1231
(dp1232
g4
g18
sg6
I0
sbs(I35
I25
tp1233
(izone
Thing
p1234
(dp1235
g4
g10
sg6
I0
sbs(I0
I21
tp1236
(izone
Thing
p1237
(dp1238
g4
g155
sg6
I0
sbs(I24
I18
tp1239
(izone
Thing
p1240
(dp1241
g4
g319
sg6
I0
sbs(I14
I5
tp1242
(izone
Thing
p1243
(dp1244
g4
g22
sg6
I0
sbs(I38
I6
tp1245
(izone
Thing
p1246
(dp1247
g4
g10
sg6
I0
sbs(I12
I13
tp1248
(izone
Thing
p1249
(dp1250
g4
g1168
sg6
I0
sbs(I36
I18
tp1251
(izone
Thing
p1252
(dp1253
g4
g319
sg6
I0
sbs(I1
I16
tp1254
(izone
Thing
p1255
(dp1256
g4
g5
sg6
I0
sbs(I25
I19
tp1257
(izone
Thing
p1258
(dp1259
g4
g10
sg6
I0
sbs(I15
I0
tp1260
(izone
Thing
p1261
(dp1262
g4
g22
sg6
I0
sbs(I39
I7
tp1263
(izone
Thing
p1264
(dp1265
g4
g10
sg6
I0
sbs(I13
I16
tp1266
(izone
Thing
p1267
(dp1268
g4
g101
sg6
I0
sbs(I37
I19
tp1269
(izone
Thing
p1270
(dp1271
g4
g10
sg6
I0
sbs(I2
I23
tp1272
(izone
Thing
p1273
(dp1274
g4
g155
sg6
I0
sbs(I26
I8
tp1275
(izone
Thing
p1276
(dp1277
g4
g41
sg6
I0
sbs(I0
I11
tp1278
(izone
Thing
p1279
(dp1280
g4
g5
sg6
I0
sbs(I38
I24
tp1281
(izone
Thing
p1282
(dp1283
g4
g10
sg6
I0
sbs(I3
I6
tp1284
(izone
Thing
p1285
(dp1286
g4
g5
sg6
I0
sbs(I27
I5
tp1287
(izone
Thing
p1288
(dp1289
g4
g10
sg6
I0
sbs(I1
I10
tp1290
(izone
Thing
p1291
(dp1292
g4
g5
sg6
I0
sbs(I39
I29
tp1293
(izone
Thing
p1294
(dp1295
g4
g10
sg6
I0
sbs(I4
I1
tp1296
(izone
Thing
p1297
(dp1298
g4
g5
sg6
I0
sbs(I28
I6
tp1299
(izone
Thing
p1300
(dp1301
g4
g10
sg6
I0
sbs(I31
I11
tp1302
(izone
Thing
p1303
(dp1304
g4
g41
sg6
I0
sbs(I5
I4
tp1305
(izone
Thing
p1306
(dp1307
g4
g5
sg6
I0
sbs(I29
I7
tp1308
(izone
Thing
p1309
(dp1310
g4
g41
sg6
I0
sbs(I16
I4
tp1311
(izone
Thing
p1312
(dp1313
g4
g22
sg6
I0
sbs(I6
I11
tp1314
(izone
Thing
p1315
(dp1316
g4
g5
sg6
I0
sbs(I30
I20
tp1317
(izone
Thing
p1318
(dp1319
g4
g10
sg6
I0
sbs(I19
I17
tp1320
(izone
Thing
p1321
(dp1322
g4
g133
sg6
I0
sbs(I17
I1
tp1323
(izone
Thing
p1324
(dp1325
g4
g22
sg6
I0
sbs(I7
I18
tp1326
(izone
Thing
p1327
(dp1328
g4
g155
sg6
I0
sbs(I31
I17
tp1329
(izone
Thing
p1330
(dp1331
g4
g133
sg6
I0
sbs(I20
I10
tp1332
(izone
Thing
p1333
(dp1334
g4
g41
sg6
I0
sbs(I18
I6
tp1335
(izone
Thing
p1336
(dp1337
g4
g22
sg6
I0
sbs(I16
I26
tp1338
(izone
Thing
p1339
(dp1340
g4
g22
sg6
I0
sbs(I21
I11
tp1341
(izone
Thing
p1342
(dp1343
g4
g41
sg6
I0
sbs(I17
I27
tp1344
(izone
Thing
p1345
(dp1346
g4
g14
sg6
I0
sbs(I32
I29
tp1347
(izone
Thing
p1348
(dp1349
g4
g10
sg6
I0
sbs(I22
I0
tp1350
(izone
Thing
p1351
(dp1352
g4
g22
sg6
I0
sbs(I9
I13
tp1353
(izone
Thing
p1354
(dp1355
g4
g22
sg6
I0
sbs(I33
I24
tp1356
(izone
Thing
p1357
(dp1358
g4
g10
sg6
I0
sbs(I23
I5
tp1359
(izone
Thing
p1360
(dp1361
g4
g22
sg6
I0
sbs(I10
I10
tp1362
(izone
Thing
p1363
(dp1364
g4
g22
sg6
I0
sbs(I8
I22
tp1365
(izone
Thing
p1366
(dp1367
g4
g14
sg6
I0
sbs(I11
I3
tp1368
(izone
Thing
p1369
(dp1370
g4
g22
sg6
I0
sbs(I9
I23
tp1371
(izone
Thing
p1372
(dp1373
g4
g155
sg6
I0
sbs(I24
I25
tp1374
(izone
Thing
p1375
(dp1376
g4
g238
sg6
I0
sbs(I14
I12
tp1377
(izone
Thing
p1378
(dp1379
g4
(I3
I7
tp1380
sg6
I0
sbs(I12
I4
tp1381
(izone
Thing
p1382
(dp1383
g4
g22
sg6
I0
sbs(I36
I25
tp1384
(izone
Thing
p1385
(dp1386
g4
g10
sg6
I0
sbs(I10
I20
tp1387
(izone
Thing
p1388
(dp1389
g4
(I8
I7
tp1390
sg6
I0
sbs(I25
I20
tp1391
(izone
Thing
p1392
(dp1393
g4
g10
sg6
I0
sbs(I15
I9
tp1394
(izone
Thing
p1395
(dp1396
g4
g18
sg6
I0
sbs(I13
I9
tp1397
(izone
Thing
p1398
(dp1399
g4
g18
sg6
I0
sbs(I37
I28
tp1400
(izone
Thing
p1401
(dp1402
g4
g10
sg6
I0
sbs(I11
I25
tp1403
(izone
Thing
p1404
(dp1405
g4
g155
sg6
I0
sbs(I26
I19
tp1406
(izone
Thing
p1407
(dp1408
g4
g10
sg6
I0
sbs(I0
I2
tp1409
(izone
Thing
p1410
(dp1411
g4
g5
sg6
I0
sbs(I38
I19
tp1412
(izone
Thing
p1413
(dp1414
g4
g10
sg6
I0
sbs(I3
I15
tp1415
(izone
Thing
p1416
(dp1417
g4
g5
sg6
I0
sbs(I27
I26
tp1418
(izone
Thing
p1419
(dp1420
g4
g10
sg6
I0
sbs(I1
I3
tp1421
(izone
Thing
p1422
(dp1423
g4
g5
sg6
I0
sbs(I39
I26
tp1424
(izone
Thing
p1425
(dp1426
g4
g10
sg6
I0
sbs(I4
I8
tp1427
(izone
Thing
p1428
(dp1429
g4
g5
sg6
I0
sbs(I28
I29
tp1430
(izone
Thing
p1431
(dp1432
g4
g10
sg6
I0
sbs(I2
I8
tp1433
(izone
Thing
p1434
(dp1435
g4
g5
sg6
I0
sbs(I5
I13
tp1436
(izone
Thing
p1437
(dp1438
g4
g5
sg6
I0
sbs(I29
I0
tp1439
(izone
Thing
p1440
(dp1441
g4
g10
sg6
I0
sbs(I3
I21
tp1442
(izone
Thing
p1443
(dp1444
g4
g155
sg6
I0
sbs(I6
I2
tp1445
(izone
Thing
p1446
(dp1447
g4
g5
sg6
I0
sbs(I4
I22
tp1448
(izone
Thing
p1449
(dp1450
g4
g155
sg6
I0
sbs(I19
I22
tp1451
(izone
Thing
p1452
(dp1453
g4
(I8
I7
tp1454
sg6
I0
sbs(I7
I11
tp1455
(izone
Thing
p1456
(dp1457
g4
g5
sg6
I0
sbs(I5
I23
tp1458
(izone
Thing
p1459
(dp1460
g4
g155
sg6
I0
sbs(I20
I17
tp1461
(izone
Thing
p1462
(dp1463
g4
g133
sg6
I0
sbs(I18
I1
tp1464
(izone
Thing
p1465
(dp1466
g4
g22
sg6
I0
sbs(I16
I17
tp1467
(izone
Thing
p1468
(dp1469
g4
g101
sg6
I0
sbs(I21
I20
tp1470
(izone
Thing
p1471
(dp1472
g4
g22
sg6
I0
sbs(I17
I28
tp1473
(izone
Thing
p1474
(dp1475
g4
g22
sg6
I0
sbs(I32
I20
tp1476
(izone
Thing
p1477
(dp1478
g4
g10
sg6
I0
sbs(I22
I27
tp1479
(izone
Thing
p1480
(dp1481
g4
g22
sg6
I0
sbs(I18
I27
tp1482
(izone
Thing
p1483
(dp1484
g4
g14
sg6
I0
sbs(I33
I17
tp1485
(izone
Thing
p1486
(dp1487
g4
g133
sg6
I0
sbs(I23
I2
tp1488
(izone
Thing
p1489
(dp1490
g4
g22
sg6
I0
sbs(I34
I22
tp1491
(izone
Thing
p1492
(dp1493
g4
g10
sg6
I0
sbs(I8
I29
tp1494
(izone
Thing
p1495
(dp1496
g4
g22
sg6
I0
sbs(I32
I10
tp1497
(izone
Thing
p1498
(dp1499
g4
g41
sg6
I0
sbs(I35
I7
tp1500
(izone
Thing
p1501
(dp1502
g4
g41
sg6
I0
sbs(I9
I24
tp1503
(izone
Thing
p1504
(dp1505
g4
g155
sg6
I0
sbs(I33
I11
tp1506
(izone
Thing
p1507
(dp1508
g4
g41
sg6
I0
sbs(I14
I23
tp1509
(izone
Thing
p1510
(dp1511
g4
g22
sg6
I0
sbs(I12
I3
tp1512
(izone
Thing
p1513
(dp1514
g4
g22
sg6
I0
sbs(I36
I0
tp1515
(izone
Thing
p1516
(dp1517
g4
g10
sg6
I0
sbs(I25
I29
tp1518
(izone
Thing
p1519
(dp1520
g4
g10
sg6
I0
sbs(I15
I22
tp1521
(izone
Thing
p1522
(dp1523
g4
g22
sg6
I0
sbs(I13
I2
tp1524
(izone
Thing
p1525
(dp1526
g4
g22
sg6
I0
sbs(I37
I5
tp1527
(izone
Thing
p1528
(dp1529
g4
g10
sg6
I0
sbs(I26
I26
tp1530
(izone
Thing
p1531
(dp1532
g4
g10
sg6
I0
sbs(I0
I25
tp1533
(izone
Thing
p1534
(dp1535
g4
g22
sg6
I0
sbs(I24
I6
tp1536
(izone
Thing
p1537
(dp1538
g4
g10
sg6
I0
sbs(I38
I10
tp1539
(izone
Thing
p1540
(dp1541
g4
g41
sg6
I0
sbs(I12
I25
tp1542
(izone
Thing
p1543
(dp1544
g4
g155
sg6
I0
sbs(I27
I19
tp1545
(izone
Thing
p1546
(dp1547
g4
g10
sg6
I0
sbs(I1
I4
tp1548
(izone
Thing
p1549
(dp1550
g4
g5
sg6
I0
sbs(I25
I7
tp1551
(izone
Thing
p1552
(dp1553
g4
g41
sg6
I0
sbs(I39
I19
tp1554
(izone
Thing
p1555
(dp1556
g4
g10
sg6
I0
sbs(I13
I28
tp1557
(izone
Thing
p1558
(dp1559
g4
g22
sg6
I0
sbs(I28
I20
tp1560
(izone
Thing
p1561
(dp1562
g4
g10
sg6
I0
sbs(I2
I3
tp1563
(izone
Thing
p1564
(dp1565
g4
g5
sg6
I0
sbs(I26
I4
tp1566
(izone
Thing
p1567
(dp1568
g4
g10
sg6
I0
sbs(I29
I25
tp1569
(izone
Thing
p1570
(dp1571
g4
g10
sg6
I0
sbs(I3
I26
tp1572
(izone
Thing
p1573
(dp1574
g4
g22
sg6
I0
sbs(I27
I9
tp1575
(izone
Thing
p1576
(dp1577
g4
g41
sg6
I0
sbs(I6
I5
tp1578
(izone
Thing
p1579
(dp1580
g4
g5
sg6
I0
sbs(I30
I6
tp1581
(izone
Thing
p1582
(dp1583
g4
g10
sg6
I0
sbs(I4
I29
tp1584
(izone
Thing
p1585
(dp1586
g4
g22
sg6
I0
sbs(I7
I0
tp1587
(izone
Thing
p1588
(dp1589
g4
g5
sg6
I0
sbs(I31
I7
tp1590
(izone
Thing
p1591
(dp1592
g4
g41
sg6
I0
sbs(I5
I16
tp1593
(izone
Thing
p1594
(dp1595
g4
g199
sg6
I0
sbs(I20
I24
tp1596
(izone
Thing
p1597
(dp1598
g4
g14
sg6
I0
sbs(I16
I8
tp1599
(izone
Thing
p1600
(dp1601
g4
g18
sg6
I0
sbs(I21
I29
tp1602
(izone
Thing
p1603
(dp1604
g4
g22
sg6
I0
sbs(I19
I5
tp1605
(izone
Thing
p1606
(dp1607
g4
g22
sg6
I0
sbs(I17
I21
tp1608
(izone
Thing
p1609
(dp1610
g4
g22
sg6
I0
sbs(I22
I18
tp1611
(izone
Thing
p1612
(dp1613
g4
g319
sg6
I0
sbs(I20
I6
tp1614
(izone
Thing
p1615
(dp1616
g4
g22
sg6
I0
sbs(I18
I18
tp1617
(izone
Thing
p1618
(dp1619
g4
(I7
I7
tp1620
sg6
I0
sbs(I23
I27
tp1621
(izone
Thing
p1622
(dp1623
g4
g22
sg6
I0
sbs(I21
I7
tp1624
(izone
Thing
p1625
(dp1626
g4
g41
sg6
I0
sbs(I34
I17
tp1627
(izone
Thing
p1628
(dp1629
g4
g133
sg6
I0
sbs(I8
I4
tp1630
(izone
Thing
p1631
(dp1632
g4
g5
sg6
I0
sbs(I32
I1
tp1633
(izone
Thing
p1634
(dp1635
g4
g10
sg6
I0
sbs(I35
I12
tp1636
(izone
Thing
p1637
(dp1638
g4
g41
sg6
I0
sbs(I9
I1
tp1639
(izone
Thing
p1640
(dp1641
g4
g22
sg6
I0
sbs(I33
I12
tp1642
(izone
Thing
p1643
(dp1644
g4
g41
sg6
I0
sbs(I36
I15
tp1645
(izone
Thing
p1646
(dp1647
g4
g60
sg6
I0
sbs(I10
I6
tp1648
(izone
Thing
p1649
(dp1650
g4
g22
sg6
I0
sbs(I34
I11
tp1651
(izone
Thing
p1652
(dp1653
g4
g41
sg6
I0
sbs(I37
I14
tp1654
(izone
Thing
p1655
(dp1656
g4
g10
sg6
I0
sbs(I11
I23
tp1657
(izone
Thing
p1658
(dp1659
g4
g22
sg6
I0
sbs(I35
I18
tp1660
(izone
Thing
p1661
(dp1662
g4
g319
sg6
I0
sbs(I0
I16
tp1663
(izone
Thing
p1664
(dp1665
g4
g5
sg6
I0
sbs(I24
I13
tp1666
(izone
Thing
p1667
(dp1668
g4
g41
sg6
I0
sbs(I14
I0
tp1669
(izone
Thing
p1670
(dp1671
g4
g22
sg6
I0
sbs(I38
I13
tp1672
(izone
Thing
p1673
(dp1674
g4
g41
sg6
I0
sbs(I12
I16
tp1675
(izone
Thing
p1676
(dp1677
g4
g101
sg6
I0
sbs(I36
I21
tp1678
(izone
Thing
p1679
(dp1680
g4
g10
sg6
I0
sbs(I1
I29
tp1681
(izone
Thing
p1682
(dp1683
g4
g22
sg6
I0
sbs(I25
I8
tp1684
(izone
Thing
p1685
(dp1686
g4
g41
sg6
I0
sbs(I15
I5
tp1687
(izone
Thing
p1688
(dp1689
g4
g22
sg6
I0
sbs(I39
I8
tp1690
(izone
Thing
p1691
(dp1692
g4
g10
sg6
I0
sbs(I13
I21
tp1693
(izone
Thing
p1694
(dp1695
g4
g22
sg6
I0
sbs(I28
I19
tp1696
(izone
Thing
p1697
(dp1698
g4
g10
sg6
I0
sbs(I2
I26
tp1699
(izone
Thing
p1700
(dp1701
g4
g22
sg6
I0
sbs(I26
I15
tp1702
(izone
Thing
p1703
(dp1704
g4
g60
sg6
I0
sbs(I29
I18
tp1705
(izone
Thing
p1706
(dp1707
g4
g319
sg6
I0
sbs(I3
I3
tp1708
(izone
Thing
p1709
(dp1710
g4
g5
sg6
I0
sbs(I27
I14
tp1711
(izone
Thing
p1712
(dp1713
g4
g10
sg6
I0
sbs(I30
I9
tp1714
(izone
Thing
p1715
(dp1716
g4
g41
sg6
I0
sbs(I4
I4
tp1717
(izone
Thing
p1718
(dp1719
g4
g5
sg6
I0
sbs(I28
I9
tp1720
(izone
Thing
p1721
(dp1722
g4
g41
sg6
I0
sbs(I31
I12
tp1723
(izone
Thing
p1724
(dp1725
g4
g41
sg6
I0
sbs(I5
I25
tp1726
(izone
Thing
p1727
(dp1728
g4
g22
sg6
I0
sbs(I29
I12
tp1729
(izone
Thing
p1730
(dp1731
g4
g41
sg6
I0
sbs(I16
I15
tp1732
(izone
Thing
p1733
(dp1734
g4
g101
sg6
I0
sbs(I6
I22
tp1735
(izone
Thing
p1736
(dp1737
g4
g155
sg6
I0
sbs(I30
I19
tp1738
(izone
Thing
p1739
(dp1740
g4
g10
sg6
I0
sbs(I19
I10
tp1741
(izone
Thing
p1742
(dp1743
g4
g41
sg6
I0
sbs(I17
I14
tp1744
(izone
Thing
p1745
(dp1746
g4
(I2
I6
tp1747
sg6
I0
sbs(I7
I23
tp1748
(izone
Thing
p1749
(dp1750
g4
g155
sg6
I0
sbs(I22
I21
tp1751
(izone
Thing
p1752
(dp1753
g4
g22
sg6
I0
sbs(I20
I13
tp1754
(izone
Thing
p1755
(dp1756
g4
g41
sg6
I0
sbs(I18
I13
tp1757
(izone
Thing
p1758
(dp1759
g4
g391
sg6
I0
sbs(I23
I16
tp1760
(izone
Thing
p1761
(dp1762
g4
g168
sg6
I0
sbs(I21
I0
tp1763
(izone
Thing
p1764
(dp1765
g4
g22
sg6
I0
sbs(I8
I11
tp1766
(izone
Thing
p1767
(dp1768
g4
g199
sg6
I0
sbs(I32
I24
tp1769
(izone
Thing
p1770
(dp1771
g4
g10
sg6
I0
sbs(I22
I15
tp1772
(izone
Thing
p1773
(dp1774
g4
g195
sg6
I0
sbs(I9
I10
tp1775
(izone
Thing
p1776
(dp1777
g4
g22
sg6
I0
sbs(I33
I5
tp1778
(izone
Thing
p1779
(dp1780
g4
g10
sg6
I0
sbs(I23
I14
tp1781
(izone
Thing
p1782
(dp1783
g4
g91
sg6
I0
sbs(I10
I1
tp1784
(izone
Thing
p1785
(dp1786
g4
g22
sg6
I0
sbs(I34
I2
tp1787
(izone
Thing
p1788
(dp1789
g4
g10
sg6
I0
sbs(I8
I17
tp1790
(izone
Thing
p1791
(dp1792
g4
g5
sg6
I0
sbs(I11
I12
tp1793
(izone
Thing
p1794
(dp1795
g4
g22
sg6
I0
sbs(I35
I27
tp1796
(izone
Thing
p1797
(dp1798
g4
g10
sg6
I0
sbs(I0
I23
tp1799
(izone
Thing
p1800
(dp1801
g4
g155
sg6
I0
sbs(I24
I20
tp1802
(izone
Thing
p1803
(dp1804
g4
g238
sg6
I0
sbs(I14
I11
tp1805
(izone
Thing
p1806
(dp1807
g4
g18
sg6
I0
sbs(I38
I4
tp1808
(izone
Thing
p1809
(dp1810
g4
g10
sg6
I0
sbs(I12
I15
tp1811
(izone
Thing
p1812
(dp1813
g4
g101
sg6
I0
sbs(I36
I28
tp1814
(izone
Thing
p1815
(dp1816
g4
g10
sg6
I0
sbs(I1
I22
tp1817
(izone
Thing
p1818
(dp1819
g4
g155
sg6
I0
sbs(I25
I17
tp1820
(izone
Thing
p1821
(dp1822
g4
g133
sg6
I0
sbs(I15
I2
tp1823
(izone
Thing
p1824
(dp1825
g4
g22
sg6
I0
sbs(I39
I1
tp1826
(izone
Thing
p1827
(dp1828
g4
g10
sg6
I0
sbs(I13
I14
tp1829
(izone
Thing
p1830
(dp1831
g4
g819
sg6
I0
sbs(I37
I17
tp1832
(izone
Thing
p1833
(dp1834
g4
g133
sg6
I0
sbs(I2
I21
tp1835
(izone
Thing
p1836
(dp1837
g4
g155
sg6
I0
sbs(I26
I22
tp1838
(izone
Thing
p1839
(dp1840
g4
g10
sg6
I0
sbs(I0
I13
tp1841
(izone
Thing
p1842
(dp1843
g4
g5
sg6
I0
sbs(I3
I8
tp1844
(izone
Thing
p1845
(dp1846
g4
g5
sg6
I0
sbs(I27
I7
tp1847
(izone
Thing
p1848
(dp1849
g4
g41
sg6
I0
sbs(I1
I8
tp1850
(izone
Thing
p1851
(dp1852
g4
g5
sg6
I0
sbs(I4
I3
tp1853
(izone
Thing
p1854
(dp1855
g4
g5
sg6
I0
sbs(I28
I0
tp1856
(izone
Thing
p1857
(dp1858
g4
g10
sg6
I0
sbs(I2
I15
tp1859
(izone
Thing
p1860
(dp1861
g4
g5
sg6
I0
sbs(I5
I2
tp1862
(izone
Thing
p1863
(dp1864
g4
g5
sg6
I0
sbs(I29
I5
tp1865
(izone
Thing
p1866
(dp1867
g4
g10
sg6
I0
sbs(I16
I6
tp1868
(izone
Thing
p1869
(dp1870
g4
g22
sg6
I0
sbs(I6
I9
tp1871
(izone
Thing
p1872
(dp1873
g4
g5
sg6
I0
sbs(I30
I26
tp1874
(izone
Thing
p1875
(dp1876
g4
g10
sg6
I0
sbs(I19
I19
tp1877
(izone
Thing
p1878
(dp1879
g4
g22
sg6
I0
sbs(I17
I7
tp1880
(izone
Thing
p1881
(dp1882
g4
g188
sg6
I0
sbs(I7
I12
tp1883
(izone
Thing
p1884
(dp1885
g4
g5
sg6
I0
sbs(I31
I19
tp1886
(izone
Thing
p1887
(dp1888
g4
g10
sg6
I0
sbs(I20
I20
tp1889
(izone
Thing
p1890
(dp1891
g4
(I8
I7
tp1892
sg6
I0
sbs(I18
I4
tp1893
(izone
Thing
p1894
(dp1895
g4
g22
sg6
I0
sbs(I16
I28
tp1896
(izone
Thing
p1897
(dp1898
g4
g22
sg6
I0
sbs(I21
I9
tp1899
(izone
Thing
p1900
(dp1901
g4
g41
sg6
I0
sbs(I17
I25
tp1902
(izone
Thing
p1903
(dp1904
g4
g22
sg6
I0
sbs(I22
I6
tp1905
(izone
Thing
p1906
(dp1907
g4
g22
sg6
I0
sbs(I23
I7
tp1908
(izone
Thing
p1909
(dp1910
g4
g41
sg6
I0
sbs(I10
I8
tp1911
(izone
Thing
p1912
(dp1913
g4
g22
sg6
I0
sbs(I34
I29
tp1914
(izone
Thing
p1915
(dp1916
g4
g10
sg6
I0
sbs(I8
I24
tp1917
(izone
Thing
p1918
(dp1919
g4
g14
sg6
I0
sbs(I11
I5
tp1920
(izone
Thing
p1921
(dp1922
g4
g22
sg6
I0
sbs(I35
I0
tp1923
(izone
Thing
p1924
(dp1925
g4
g10
sg6
I0
sbs(I9
I21
tp1926
(izone
Thing
p1927
(dp1928
g4
g155
sg6
I0
sbs(I24
I27
tp1929
(izone
Thing
p1930
(dp1931
g4
g238
sg6
I0
sbs(I14
I18
tp1932
(izone
Thing
p1933
(dp1934
g4
(I1
I7
tp1935
sg6
I0
sbs(I12
I6
tp1936
(izone
Thing
p1937
(dp1938
g4
g22
sg6
I0
sbs(I36
I27
tp1939
(izone
Thing
p1940
(dp1941
g4
g10
sg6
I0
sbs(I10
I18
tp1942
(izone
Thing
p1943
(dp1944
g4
g956
sg6
I0
sbs(I25
I26
tp1945
(izone
Thing
p1946
(dp1947
g4
g10
sg6
I0
sbs(I15
I11
tp1948
(izone
Thing
p1949
(dp1950
g4
g18
sg6
I0
sbs(I13
I7
tp1951
(izone
Thing
p1952
(dp1953
g4
g18
sg6
I0
sbs(I37
I26
tp1954
(izone
Thing
p1955
(dp1956
g4
g10
sg6
I0
sbs(I11
I27
tp1957
(izone
Thing
p1958
(dp1959
g4
g14
sg6
I0
sbs(I26
I17
tp1960
(izone
Thing
p1961
(dp1962
g4
g133
sg6
I0
sbs(I0
I4
tp1963
(izone
Thing
p1964
(dp1965
g4
g5
sg6
I0
sbs(I24
I1
tp1966
(izone
Thing
p1967
(dp1968
g4
g10
sg6
I0
sbs(I38
I17
tp1969
(izone
Thing
p1970
(dp1971
g4
g133
sg6
I0
sbs(I12
I28
tp1972
(izone
Thing
p1973
(dp1974
g4
g22
sg6
I0
sbs(I27
I28
tp1975
(izone
Thing
p1976
(dp1977
g4
g10
sg6
I0
sbs(I1
I1
tp1978
(izone
Thing
p1979
(dp1980
g4
g5
sg6
I0
sbs(I39
I20
tp1981
(izone
Thing
p1982
(dp1983
g4
g10
sg6
I0
sbs(I4
I10
tp1984
(izone
Thing
p1985
(dp1986
g4
g5
sg6
I0
sbs(I2
I6
tp1987
(izone
Thing
p1988
(dp1989
g4
g5
sg6
I0
sbs(I5
I11
tp1990
(izone
Thing
p1991
(dp1992
g4
g5
sg6
I0
sbs(I3
I23
tp1993
(izone
Thing
p1994
(dp1995
g4
g155
sg6
I0
sbs(I6
I0
tp1996
(izone
Thing
p1997
(dp1998
g4
g5
sg6
I0
sbs(I30
I29
tp1999
(izone
Thing
p2000
(dp2001
g4
g10
sg6
I0
sbs(I4
I16
tp2002
(izone
Thing
p2003
(dp2004
g4
g5
sg6
I0
sbs(I19
I24
tp2005
(izone
Thing
p2006
(dp2007
g4
g1454
sg6
I0
sbs(I7
I5
tp2008
(izone
Thing
p2009
(dp2010
g4
g5
sg6
I0
sbs(I31
I24
tp2011
(izone
Thing
p2012
(dp2013
g4
g10
sg6
I0
sbs(I5
I21
tp2014
(izone
Thing
p2015
(dp2016
g4
g155
sg6
I0
sbs(I20
I19
tp2017
(izone
Thing
p2018
(dp2019
g4
g22
sg6
I0
sbs(I16
I19
tp2020
(izone
Thing
p2021
(dp2022
g4
g685
sg6
I0
sbs(I6
I26
tp2023
(izone
Thing
p2024
(dp2025
g4
g22
sg6
I0
sbs(I21
I18
tp2026
(izone
Thing
p2027
(dp2028
g4
g319
sg6
I0
sbs(I17
I18
tp2029
(izone
Thing
p2030
(dp2031
g4
(I2
I8
tp2032
sg6
I0
sbs(I32
I22
tp2033
(izone
Thing
p2034
(dp2035
g4
g10
sg6
I0
sbs(I22
I25
tp2036
(izone
Thing
p2037
(dp2038
g4
g22
sg6
I0
sbs(I18
I25
tp2039
(izone
Thing
p2040
(dp2041
g4
g22
sg6
I0
sbs(I33
I23
tp2042
(izone
Thing
p2043
(dp2044
g4
g10
sg6
I0
sbs(I23
I28
tp2045
(izone
Thing
p2046
(dp2047
g4
g22
sg6
I0
sbs(I34
I20
tp2048
(izone
Thing
p2049
(dp2050
g4
g10
sg6
I0
sbs(I32
I12
tp2051
(izone
Thing
p2052
(dp2053
g4
g41
sg6
I0
sbs(I35
I9
tp2054
(izone
Thing
p2055
(dp2056
g4
g41
sg6
I0
sbs(I33
I9
tp2057
(izone
Thing
p2058
(dp2059
g4
g41
sg6
I0
sbs(I14
I21
tp2060
(izone
Thing
p2061
(dp2062
g4
g22
sg6
I0
sbs(I36
I2
tp2063
(izone
Thing
p2064
(dp2065
g4
g10
sg6
I0
sbs(I10
I29
tp2066
(izone
Thing
p2067
(dp2068
g4
g22
sg6
I0
sbs(I34
I14
tp2069
(izone
Thing
p2070
(dp2071
g4
g10
sg6
I0
sbs(I15
I16
tp2072
(izone
Thing
p2073
(dp2074
g4
g101
sg6
I0
sbs(I13
I0
tp2075
(izone
Thing
p2076
(dp2077
g4
g22
sg6
I0
sbs(I37
I3
tp2078
(izone
Thing
p2079
(dp2080
g4
g10
sg6
I0
sbs(I11
I16
tp2081
(izone
Thing
p2082
(dp2083
g4
g228
sg6
I0
sbs(I26
I24
tp2084
(izone
Thing
p2085
(dp2086
g4
g10
sg6
I0
sbs(I0
I27
tp2087
(izone
Thing
p2088
(dp2089
g4
g22
sg6
I0
sbs(I24
I8
tp2090
(izone
Thing
p2091
(dp2092
g4
g41
sg6
I0
sbs(I38
I8
tp2093
(izone
Thing
p2094
(dp2095
g4
g41
sg6
I0
sbs(I12
I27
tp2096
(izone
Thing
p2097
(dp2098
g4
g14
sg6
I0
sbs(I27
I21
tp2099
(izone
Thing
p2100
(dp2101
g4
g10
sg6
I0
sbs(I1
I26
tp2102
(izone
Thing
p2103
(dp2104
g4
g22
sg6
I0
sbs(I25
I5
tp2105
(izone
Thing
p2106
(dp2107
g4
g10
sg6
I0
sbs(I39
I13
tp2108
(izone
Thing
p2109
(dp2110
g4
g10
sg6
I0
sbs(I13
I26
tp2111
(izone
Thing
p2112
(dp2113
g4
g22
sg6
I0
sbs(I28
I22
tp2114
(izone
Thing
p2115
(dp2116
g4
g10
sg6
I0
sbs(I2
I1
tp2117
(izone
Thing
p2118
(dp2119
g4
g5
sg6
I0
sbs(I26
I2
tp2120
(izone
Thing
p2121
(dp2122
g4
g10
sg6
I0
sbs(I29
I23
tp2123
(izone
Thing
p2124
(dp2125
g4
g10
sg6
I0
sbs(I3
I28
tp2126
(izone
Thing
p2127
(dp2128
g4
g22
sg6
I0
sbs(I27
I11
tp2129
(izone
Thing
p2130
(dp2131
g4
g41
sg6
I0
sbs(I30
I4
tp2132
(izone
Thing
p2133
(dp2134
g4
g10
sg6
I0
sbs(I28
I12
tp2135
(izone
Thing
p2136
(dp2137
g4
g41
sg6
I0
sbs(I7
I2
tp2138
(izone
Thing
p2139
(dp2140
g4
g5
sg6
I0
sbs(I31
I1
tp2141
(izone
Thing
p2142
(dp2143
g4
g10
sg6
I0
sbs(I20
I26
tp2144
(izone
Thing
p2145
(dp2146
g4
g14
sg6
I0
sbs(I16
I10
tp2147
(izone
Thing
p2148
(dp2149
g4
g18
sg6
I0
sbs(I6
I29
tp2150
(izone
Thing
p2151
(dp2152
g4
g22
sg6
I0
sbs(I21
I27
tp2153
(izone
Thing
p2154
(dp2155
g4
g22
sg6
I0
sbs(I19
I7
tp2156
(izone
Thing
p2157
(dp2158
g4
g41
sg6
I0
sbs(I17
I11
tp2159
(izone
Thing
p2160
(dp2161
g4
g188
sg6
I0
sbs(I7
I24
tp2162
(izone
Thing
p2163
(dp2164
g4
g155
sg6
I0
sbs(I22
I16
tp2165
(izone
Thing
p2166
(dp2167
g4
g168
sg6
I0
sbs(I20
I0
tp2168
(izone
Thing
p2169
(dp2170
g4
g22
sg6
I0
sbs(I18
I16
tp2171
(izone
Thing
p2172
(dp2173
g4
g168
sg6
I0
sbs(I23
I21
tp2174
(izone
Thing
p2175
(dp2176
g4
g22
sg6
I0
sbs(I21
I5
tp2177
(izone
Thing
p2178
(dp2179
g4
g22
sg6
I0
sbs(I8
I6
tp2180
(izone
Thing
p2181
(dp2182
g4
g5
sg6
I0
sbs(I32
I3
tp2183
(izone
Thing
p2184
(dp2185
g4
g10
sg6
I0
sbs(I22
I10
tp2186
(izone
Thing
p2187
(dp2188
g4
g41
sg6
I0
sbs(I35
I14
tp2189
(izone
Thing
p2190
(dp2191
g4
g10
sg6
I0
sbs(I9
I7
tp2192
(izone
Thing
p2193
(dp2194
g4
g199
sg6
I0
sbs(I33
I2
tp2195
(izone
Thing
p2196
(dp2197
g4
g10
sg6
I0
sbs(I14
I28
tp2198
(izone
Thing
p2199
(dp2200
g4
g22
sg6
I0
sbs(I36
I9
tp2201
(izone
Thing
p2202
(dp2203
g4
g41
sg6
I0
sbs(I10
I4
tp2204
(izone
Thing
p2205
(dp2206
g4
g22
sg6
I0
sbs(I34
I9
tp2207
(izone
Thing
p2208
(dp2209
g4
g41
sg6
I0
sbs(I15
I25
tp2210
(izone
Thing
p2211
(dp2212
g4
g22
sg6
I0
sbs(I37
I12
tp2213
(izone
Thing
p2214
(dp2215
g4
g41
sg6
I0
sbs(I11
I9
tp2216
(izone
Thing
p2217
(dp2218
g4
g18
sg6
I0
sbs(I35
I20
tp2219
(izone
Thing
p2220
(dp2221
g4
g10
sg6
I0
sbs(I0
I18
tp2222
(izone
Thing
p2223
(dp2224
g4
g155
sg6
I0
sbs(I24
I15
tp2225
(izone
Thing
p2226
(dp2227
g4
g60
sg6
I0
sbs(I14
I6
tp2228
(izone
Thing
p2229
(dp2230
g4
g22
sg6
I0
sbs(I38
I3
tp2231
(izone
Thing
p2232
(dp2233
g4
g10
sg6
I0
sbs(I12
I18
tp2234
(izone
Thing
p2235
(dp2236
g4
(I1
I8
tp2237
sg6
I0
sbs(I36
I23
tp2238
(izone
Thing
p2239
(dp2240
g4
g10
sg6
I0
sbs(I1
I19
tp2241
(izone
Thing
p2242
(dp2243
g4
g155
sg6
I0
sbs(I25
I14
tp2244
(izone
Thing
p2245
(dp2246
g4
g91
sg6
I0
sbs(I15
I7
tp2247
(izone
Thing
p2248
(dp2249
g4
g18
sg6
I0
sbs(I39
I10
tp2250
(izone
Thing
p2251
(dp2252
g4
g10
sg6
I0
sbs(I13
I19
tp2253
(izone
Thing
p2254
(dp2255
g4
g381
sg6
I0
sbs(I37
I22
tp2256
(izone
Thing
p2257
(dp2258
g4
g10
sg6
I0
sbs(I2
I24
tp2259
(izone
Thing
p2260
(dp2261
g4
g22
sg6
I0
sbs(I26
I13
tp2262
(izone
Thing
p2263
(dp2264
g4
g41
sg6
I0
sbs(I0
I8
tp2265
(izone
Thing
p2266
(dp2267
g4
g5
sg6
I0
sbs(I29
I16
tp2268
(izone
Thing
p2269
(dp2270
g4
g168
sg6
I0
sbs(I3
I5
tp2271
(izone
Thing
p2272
(dp2273
g4
g5
sg6
I0
sbs(I27
I0
tp2274
(izone
Thing
p2275
(dp2276
g4
g10
sg6
I0
sbs(I30
I15
tp2277
(izone
Thing
p2278
(dp2279
g4
g60
sg6
I0
sbs(I4
I6
tp2280
(izone
Thing
p2281
(dp2282
g4
g5
sg6
I0
sbs(I28
I11
tp2283
(izone
Thing
p2284
(dp2285
g4
g41
sg6
I0
sbs(I31
I14
tp2286
(izone
Thing
p2287
(dp2288
g4
g10
sg6
I0
sbs(I5
I7
tp2289
(izone
Thing
p2290
(dp2291
g4
g5
sg6
I0
sbs(I29
I10
tp2292
(izone
Thing
p2293
(dp2294
g4
g41
sg6
I0
sbs(I16
I1
tp2295
(izone
Thing
p2296
(dp2297
g4
g22
sg6
I0
sbs(I6
I20
tp2298
(izone
Thing
p2299
(dp2300
g4
g155
sg6
I0
sbs(I30
I17
tp2301
(izone
Thing
p2302
(dp2303
g4
g133
sg6
I0
sbs(I19
I12
tp2304
(izone
Thing
p2305
(dp2306
g4
g41
sg6
I0
sbs(I17
I12
tp2307
(izone
Thing
p2308
(dp2309
g4
g22
sg6
I0
sbs(I7
I17
tp2310
(izone
Thing
p2311
(dp2312
g4
g199
sg6
I0
sbs(I31
I20
tp2313
(izone
Thing
p2314
(dp2315
g4
g10
sg6
I0
sbs(I20
I15
tp2316
(izone
Thing
p2317
(dp2318
g4
g60
sg6
I0
sbs(I18
I11
tp2319
(izone
Thing
p2320
(dp2321
g4
g41
sg6
I0
sbs(I23
I18
tp2322
(izone
Thing
p2323
(dp2324
g4
g319
sg6
I0
sbs(I21
I14
tp2325
(izone
Thing
p2326
(dp2327
g4
g91
sg6
I0
sbs(I8
I13
tp2328
(izone
Thing
p2329
(dp2330
g4
g199
sg6
I0
sbs(I32
I26
tp2331
(izone
Thing
p2332
(dp2333
g4
g10
sg6
I0
sbs(I22
I13
tp2334
(izone
Thing
p2335
(dp2336
g4
g41
sg6
I0
sbs(I9
I8
tp2337
(izone
Thing
p2338
(dp2339
g4
g632
sg6
I0
sbs(I33
I27
tp2340
(izone
Thing
p2341
(dp2342
g4
g10
sg6
I0
sbs(I23
I8
tp2343
(izone
Thing
p2344
(dp2345
g4
g41
sg6
I0
sbs(I10
I15
tp2346
(izone
Thing
p2347
(dp2348
g4
g956
sg6
I0
sbs(I34
I0
tp2349
(izone
Thing
p2350
(dp2351
g4
g10
sg6
I0
sbs(I8
I19
tp2352
(izone
Thing
p2353
(dp2354
g4
g155
sg6
I0
sbs(I11
I14
tp2355
(izone
Thing
p2356
(dp2357
g4
(I0
I6
tp2358
sg6
I0
sbs(I35
I29
tp2359
(izone
Thing
p2360
(dp2361
g4
g10
sg6
I0
sbs(I9
I18
tp2362
(izone
Thing
p2363
(dp2364
g4
g22
sg6
I0
sbs(I24
I22
tp2365
(izone
Thing
p2366
(dp2367
g4
g238
sg6
I0
sbs(I14
I9
tp2368
(izone
Thing
p2369
(dp2370
g4
g18
sg6
I0
sbs(I12
I9
tp2371
(izone
Thing
p2372
(dp2373
g4
(I8
I19
tp2374
sg6
I0
sbs(I1
I20
tp2375
(izone
Thing
p2376
(dp2377
g4
g155
sg6
I0
sbs(I25
I23
tp2378
(izone
Thing
p2379
(dp2380
g4
g10
sg6
I0
sbs(I15
I12
tp2381
(izone
Thing
p2382
(dp2383
g4
g22
sg6
I0
sbs(I39
I3
tp2384
(izone
Thing
p2385
(dp2386
g4
g10
sg6
I0
sbs(I13
I12
tp2387
(izone
Thing
p2388
(dp2389
g4
(I8
I7
tp2390
sg6
I0
sbs(I2
I19
tp2391
(izone
Thing
p2392
(dp2393
g4
g155
sg6
I0
sbs(I26
I20
tp2394
(izone
Thing
p2395
(dp2396
g4
g10
sg6
I0
sbs(I0
I15
tp2397
(izone
Thing
p2398
(dp2399
g4
g5
sg6
I0
sbs(I38
I28
tp2400
(izone
Thing
p2401
(dp2402
g4
g10
sg6
I0
sbs(I3
I10
tp2403
(izone
Thing
p2404
(dp2405
g4
g5
sg6
I0
sbs(I27
I25
tp2406
(izone
Thing
p2407
(dp2408
g4
g10
sg6
I0
sbs(I1
I14
tp2409
(izone
Thing
p2410
(dp2411
g4
g5
sg6
I0
sbs(I39
I25
tp2412
(izone
Thing
p2413
(dp2414
g4
g10
sg6
I0
sbs(I4
I13
tp2415
(izone
Thing
p2416
(dp2417
g4
(I8
I7
tp2418
sg6
I0
sbs(I28
I2
tp2419
(izone
Thing
p2420
(dp2421
g4
g10
sg6
I0
sbs(I2
I13
tp2422
(izone
Thing
p2423
(dp2424
g4
g5
sg6
I0
sbs(I5
I0
tp2425
(izone
Thing
p2426
(dp2427
g4
g5
sg6
I0
sbs(I29
I3
tp2428
(izone
Thing
p2429
(dp2430
g4
g10
sg6
I0
sbs(I3
I16
tp2431
(izone
Thing
p2432
(dp2433
g4
g5
sg6
I0
sbs(I6
I15
tp2434
(izone
Thing
p2435
(dp2436
g4
g5
sg6
I0
sbs(I30
I24
tp2437
(izone
Thing
p2438
(dp2439
g4
g10
sg6
I0
sbs(I19
I21
tp2440
(izone
Thing
p2441
(dp2442
g4
g1454
sg6
I0
sbs(I17
I5
tp2443
(izone
Thing
p2444
(dp2445
g4
g22
sg6
I0
sbs(I7
I14
tp2446
(izone
Thing
p2447
(dp2448
g4
g5
sg6
I0
sbs(I31
I29
tp2449
(izone
Thing
p2450
(dp2451
g4
g10
sg6
I0
sbs(I20
I22
tp2452
(izone
Thing
p2453
(dp2454
g4
g14
sg6
I0
sbs(I18
I2
tp2455
(izone
Thing
p2456
(dp2457
g4
g22
sg6
I0
sbs(I21
I23
tp2458
(izone
Thing
p2459
(dp2460
g4
g22
sg6
I0
sbs(I32
I17
tp2461
(izone
Thing
p2462
(dp2463
g4
g133
sg6
I0
sbs(I22
I4
tp2464
(izone
Thing
p2465
(dp2466
g4
g22
sg6
I0
sbs(I18
I28
tp2467
(izone
Thing
p2468
(dp2469
g4
g22
sg6
I0
sbs(I33
I28
tp2470
(izone
Thing
p2471
(dp2472
g4
g10
sg6
I0
sbs(I23
I1
tp2473
(izone
Thing
p2474
(dp2475
g4
g22
sg6
I0
sbs(I34
I27
tp2476
(izone
Thing
p2477
(dp2478
g4
g10
sg6
I0
sbs(I8
I26
tp2479
(izone
Thing
p2480
(dp2481
g4
g14
sg6
I0
sbs(I11
I7
tp2482
(izone
Thing
p2483
(dp2484
g4
g18
sg6
I0
sbs(I35
I2
tp2485
(izone
Thing
p2486
(dp2487
g4
g10
sg6
I0
sbs(I9
I27
tp2488
(izone
Thing
p2489
(dp2490
g4
g14
sg6
I0
sbs(I24
I29
tp2491
(izone
Thing
p2492
(dp2493
g4
g238
sg6
I0
sbs(I14
I16
tp2494
(izone
Thing
p2495
(dp2496
g4
g101
sg6
I0
sbs(I12
I0
tp2497
(izone
Thing
p2498
(dp2499
g4
g22
sg6
I0
sbs(I36
I5
tp2500
(izone
Thing
p2501
(dp2502
g4
g10
sg6
I0
sbs(I10
I16
tp2503
(izone
Thing
p2504
(dp2505
g4
g956
sg6
I0
sbs(I25
I24
tp2506
(izone
Thing
p2507
(dp2508
g4
g10
sg6
I0
sbs(I15
I21
tp2509
(izone
Thing
p2510
(dp2511
g4
g22
sg6
I0
sbs(I13
I5
tp2512
(izone
Thing
p2513
(dp2514
g4
g22
sg6
I0
sbs(I37
I24
tp2515
(izone
Thing
p2516
(dp2517
g4
g10
sg6
I0
sbs(I11
I29
tp2518
(izone
Thing
p2519
(dp2520
g4
g22
sg6
I0
sbs(I0
I6
tp2521
(izone
Thing
p2522
(dp2523
g4
g5
sg6
I0
sbs(I24
I3
tp2524
(izone
Thing
p2525
(dp2526
g4
g10
sg6
I0
sbs(I38
I23
tp2527
(izone
Thing
p2528
(dp2529
g4
g10
sg6
I0
sbs(I1
I7
tp2530
(izone
Thing
p2531
(dp2532
g4
g5
sg6
I0
sbs(I25
I2
tp2533
(izone
Thing
p2534
(dp2535
g4
g10
sg6
I0
sbs(I39
I22
tp2536
(izone
Thing
p2537
(dp2538
g4
g10
sg6
I0
sbs(I28
I25
tp2539
(izone
Thing
p2540
(dp2541
g4
g10
sg6
I0
sbs(I2
I4
tp2542
(izone
Thing
p2543
(dp2544
g4
g5
sg6
I0
sbs(I5
I9
tp2545
(izone
Thing
p2546
(dp2547
g4
g5
sg6
I0
sbs(I29
I28
tp2548
(izone
Thing
p2549
(dp2550
g4
g10
sg6
I0
sbs(I3
I25
tp2551
(izone
Thing
p2552
(dp2553
g4
g22
sg6
I0
sbs(I6
I6
tp2554
(izone
Thing
p2555
(dp2556
g4
g5
sg6
I0
sbs(I30
I3
tp2557
(izone
Thing
p2558
(dp2559
g4
g10
sg6
I0
sbs(I4
I18
tp2560
(izone
Thing
p2561
(dp2562
g4
g155
sg6
I0
sbs(I19
I26
tp2563
(izone
Thing
p2564
(dp2565
g4
g1454
sg6
I0
sbs(I7
I7
tp2566
(izone
Thing
p2567
(dp2568
g4
g5
sg6
I0
sbs(I31
I26
tp2569
(izone
Thing
p2570
(dp2571
g4
g10
sg6
I0
sbs(I5
I19
tp2572
(izone
Thing
p2573
(dp2574
g4
g155
sg6
I0
sbs(I20
I29
tp2575
(izone
Thing
p2576
(dp2577
g4
g22
sg6
I0
sbs(I16
I21
tp2578
(izone
Thing
p2579
(dp2580
g4
g22
sg6
I0
sbs(I6
I24
tp2581
(izone
Thing
p2582
(dp2583
g4
g155
sg6
I0
sbs(I21
I16
tp2584
(izone
Thing
p2585
(dp2586
g4
g168
sg6
I0
sbs(I19
I0
tp2587
(izone
Thing
p2588
(dp2589
g4
g22
sg6
I0
sbs(I17
I16
tp2590
(izone
Thing
p2591
(dp2592
g4
(I1
I7
tp2593
sg6
I0
sbs(I7
I29
tp2594
(izone
Thing
p2595
(dp2596
g4
g22
sg6
I0
sbs(I18
I23
tp2597
(izone
Thing
p2598
(dp2599
g4
g22
sg6
I0
sbs(I33
I21
tp2600
(izone
Thing
p2601
(dp2602
g4
g10
sg6
I0
sbs(I34
I18
tp2603
(izone
Thing
p2604
(dp2605
g4
g319
sg6
I0
sbs(I8
I1
tp2606
(izone
Thing
p2607
(dp2608
g4
g5
sg6
I0
sbs(I32
I14
tp2609
(izone
Thing
p2610
(dp2611
g4
g10
sg6
I0
sbs(I35
I11
tp2612
(izone
Thing
p2613
(dp2614
g4
g41
sg6
I0
sbs(I9
I28
tp2615
(izone
Thing
p2616
(dp2617
g4
g22
sg6
I0
sbs(I33
I15
tp2618
(izone
Thing
p2619
(dp2620
g4
g60
sg6
I0
sbs(I14
I27
tp2621
(izone
Thing
p2622
(dp2623
g4
g14
sg6
I0
sbs(I36
I12
tp2624
(izone
Thing
p2625
(dp2626
g4
g41
sg6
I0
sbs(I10
I27
tp2627
(izone
Thing
p2628
(dp2629
g4
g14
sg6
I0
sbs(I34
I12
tp2630
(izone
Thing
p2631
(dp2632
g4
g41
sg6
I0
sbs(I15
I18
tp2633
(izone
Thing
p2634
(dp2635
g4
g1935
sg6
I0
sbs(I37
I1
tp2636
(izone
Thing
p2637
(dp2638
g4
g10
sg6
I0
sbs(I11
I18
tp2639
(izone
Thing
p2640
(dp2641
g4
(I0
I8
tp2642
sg6
I0
sbs(I35
I17
tp2643
(izone
Thing
p2644
(dp2645
g4
g133
sg6
I0
sbs(I0
I29
tp2646
(izone
Thing
p2647
(dp2648
g4
g22
sg6
I0
sbs(I24
I10
tp2649
(izone
Thing
p2650
(dp2651
g4
g41
sg6
I0
sbs(I38
I14
tp2652
(izone
Thing
p2653
(dp2654
g4
g10
sg6
I0
sbs(I12
I21
tp2655
(izone
Thing
p2656
(dp2657
g4
g22
sg6
I0
sbs(I27
I23
tp2658
(izone
Thing
p2659
(dp2660
g4
g10
sg6
I0
sbs(I1
I24
tp2661
(izone
Thing
p2662
(dp2663
g4
g22
sg6
I0
sbs(I25
I11
tp2664
(izone
Thing
p2665
(dp2666
g4
g41
sg6
I0
sbs(I39
I15
tp2667
(izone
Thing
p2668
(dp2669
g4
g60
sg6
I0
sbs(I13
I24
tp2670
(izone
Thing
p2671
(dp2672
g4
g22
sg6
I0
sbs(I28
I16
tp2673
(izone
Thing
p2674
(dp2675
g4
g168
sg6
I0
sbs(I26
I0
tp2676
(izone
Thing
p2677
(dp2678
g4
g10
sg6
I0
sbs(I29
I21
tp2679
(izone
Thing
p2680
(dp2681
g4
g10
sg6
I0
sbs(I27
I13
tp2682
(izone
Thing
p2683
(dp2684
g4
g41
sg6
I0
sbs(I30
I10
tp2685
(izone
Thing
p2686
(dp2687
g4
g41
sg6
I0
sbs(I4
I25
tp2688
(izone
Thing
p2689
(dp2690
g4
g22
sg6
I0
sbs(I28
I14
tp2691
(izone
Thing
p2692
(dp2693
g4
g91
sg6
I0
sbs(I31
I3
tp2694
(izone
Thing
p2695
(dp2696
g4
g10
sg6
I0
sbs(I5
I28
tp2697
(izone
Thing
p2698
(dp2699
g4
g22
sg6
I0
sbs(I29
I15
tp2700
(izone
Thing
p2701
(dp2702
g4
g60
sg6
I0
sbs(I16
I12
tp2703
(izone
Thing
p2704
(dp2705
g4
g22
sg6
I0
sbs(I6
I19
tp2706
(izone
Thing
p2707
(dp2708
g4
g155
sg6
I0
sbs(I21
I25
tp2709
(izone
Thing
p2710
(dp2711
g4
g22
sg6
I0
sbs(I19
I9
tp2712
(izone
Thing
p2713
(dp2714
g4
g41
sg6
I0
sbs(I17
I9
tp2715
(izone
Thing
p2716
(dp2717
g4
g188
sg6
I0
sbs(I7
I26
tp2718
(izone
Thing
p2719
(dp2720
g4
g22
sg6
I0
sbs(I22
I22
tp2721
(izone
Thing
p2722
(dp2723
g4
g22
sg6
I0
sbs(I20
I2
tp2724
(izone
Thing
p2725
(dp2726
g4
g22
sg6
I0
sbs(I18
I14
tp2727
(izone
Thing
p2728
(dp2729
g4
(I7
I7
tp2730
sg6
I0
sbs(I23
I23
tp2731
(izone
Thing
p2732
(dp2733
g4
g22
sg6
I0
sbs(I21
I3
tp2734
(izone
Thing
p2735
(dp2736
g4
g22
sg6
I0
sbs(I8
I8
tp2737
(izone
Thing
p2738
(dp2739
g4
g632
sg6
I0
sbs(I32
I5
tp2740
(izone
Thing
p2741
(dp2742
g4
g10
sg6
I0
sbs(I22
I8
tp2743
(izone
Thing
p2744
(dp2745
g4
g41
sg6
I0
sbs(I9
I5
tp2746
(izone
Thing
p2747
(dp2748
g4
g22
sg6
I0
sbs(I33
I0
tp2749
(izone
Thing
p2750
(dp2751
g4
g10
sg6
I0
sbs(I23
I13
tp2752
(izone
Thing
p2753
(dp2754
g4
g41
sg6
I0
sbs(I36
I11
tp2755
(izone
Thing
p2756
(dp2757
g4
g41
sg6
I0
sbs(I10
I2
tp2758
(izone
Thing
p2759
(dp2760
g4
g22
sg6
I0
sbs(I34
I7
tp2761
(izone
Thing
p2762
(dp2763
g4
g41
sg6
I0
sbs(I15
I27
tp2764
(izone
Thing
p2765
(dp2766
g4
g14
sg6
I0
sbs(I37
I10
tp2767
(izone
Thing
p2768
(dp2769
g4
g41
sg6
I0
sbs(I11
I11
tp2770
(izone
Thing
p2771
(dp2772
g4
g18
sg6
I0
sbs(I35
I22
tp2773
(izone
Thing
p2774
(dp2775
g4
g10
sg6
I0
sbs(I0
I20
tp2776
(izone
Thing
p2777
(dp2778
g4
g155
sg6
I0
sbs(I24
I17
tp2779
(izone
Thing
p2780
(dp2781
g4
g133
sg6
I0
sbs(I14
I4
tp2782
(izone
Thing
p2783
(dp2784
g4
g22
sg6
I0
sbs(I38
I1
tp2785
(izone
Thing
p2786
(dp2787
g4
g10
sg6
I0
sbs(I12
I12
tp2788
(izone
Thing
p2789
(dp2790
g4
g22
sg6
I0
sbs(I36
I17
tp2791
(izone
Thing
p2792
(dp2793
g4
g133
sg6
I0
sbs(I1
I17
tp2794
(izone
Thing
p2795
(dp2796
g4
g5
sg6
I0
sbs(I25
I12
tp2797
(izone
Thing
p2798
(dp2799
g4
g41
sg6
I0
sbs(I15
I1
tp2800
(izone
Thing
p2801
(dp2802
g4
g22
sg6
I0
sbs(I39
I4
tp2803
(izone
Thing
p2804
(dp2805
g4
g10
sg6
I0
sbs(I13
I17
tp2806
(izone
Thing
p2807
(dp2808
g4
g101
sg6
I0
sbs(I37
I20
tp2809
(izone
Thing
p2810
(dp2811
g4
g10
sg6
I0
sbs(I2
I22
tp2812
(izone
Thing
p2813
(dp2814
g4
g155
sg6
I0
sbs(I26
I11
tp2815
(izone
Thing
p2816
(dp2817
g4
g41
sg6
I0
sbs(I0
I10
tp2818
(izone
Thing
p2819
(dp2820
g4
g5
sg6
I0
sbs(I38
I27
tp2821
(izone
Thing
p2822
(dp2823
g4
g10
sg6
I0
sbs(I3
I7
tp2824
(izone
Thing
p2825
(dp2826
g4
g5
sg6
I0
sbs(I27
I2
tp2827
(izone
Thing
p2828
(dp2829
g4
g10
sg6
I0
sbs(I1
I11
tp2830
(izone
Thing
p2831
(dp2832
g4
g5
sg6
I0
sbs(I30
I13
tp2833
(izone
Thing
p2834
(dp2835
g4
g41
sg6
I0
sbs(I4
I0
tp2836
(izone
Thing
p2837
(dp2838
g4
g5
sg6
I0
sbs(I28
I5
tp2839
(izone
Thing
p2840
(dp2841
g4
g10
sg6
I0
sbs(I31
I8
tp2842
(izone
Thing
p2843
(dp2844
g4
g41
sg6
I0
sbs(I5
I5
tp2845
(izone
Thing
p2846
(dp2847
g4
g5
sg6
I0
sbs(I29
I8
tp2848
(izone
Thing
p2849
(dp2850
g4
g41
sg6
I0
sbs(I16
I3
tp2851
(izone
Thing
p2852
(dp2853
g4
g22
sg6
I0
sbs(I6
I10
tp2854
(izone
Thing
p2855
(dp2856
g4
g5
sg6
I0
sbs(I30
I23
tp2857
(izone
Thing
p2858
(dp2859
g4
g10
sg6
I0
sbs(I19
I14
tp2860
(izone
Thing
p2861
(dp2862
g4
g91
sg6
I0
sbs(I17
I2
tp2863
(izone
Thing
p2864
(dp2865
g4
g22
sg6
I0
sbs(I7
I19
tp2866
(izone
Thing
p2867
(dp2868
g4
g155
sg6
I0
sbs(I31
I22
tp2869
(izone
Thing
p2870
(dp2871
g4
g10
sg6
I0
sbs(I20
I9
tp2872
(izone
Thing
p2873
(dp2874
g4
g41
sg6
I0
sbs(I18
I9
tp2875
(izone
Thing
p2876
(dp2877
g4
g188
sg6
I0
sbs(I16
I25
tp2878
(izone
Thing
p2879
(dp2880
g4
g22
sg6
I0
sbs(I21
I12
tp2881
(izone
Thing
p2882
(dp2883
g4
g41
sg6
I0
sbs(I8
I15
tp2884
(izone
Thing
p2885
(dp2886
g4
g5
sg6
I0
sbs(I32
I28
tp2887
(izone
Thing
p2888
(dp2889
g4
g10
sg6
I0
sbs(I22
I3
tp2890
(izone
Thing
p2891
(dp2892
g4
g22
sg6
I0
sbs(I9
I14
tp2893
(izone
Thing
p2894
(dp2895
g4
g22
sg6
I0
sbs(I33
I25
tp2896
(izone
Thing
p2897
(dp2898
g4
g10
sg6
I0
sbs(I23
I10
tp2899
(izone
Thing
p2900
(dp2901
g4
g41
sg6
I0
sbs(I10
I13
tp2902
(izone
Thing
p2903
(dp2904
g4
g22
sg6
I0
sbs(I8
I21
tp2905
(izone
Thing
p2906
(dp2907
g4
g199
sg6
I0
sbs(I11
I0
tp2908
(izone
Thing
p2909
(dp2910
g4
g22
sg6
I0
sbs(I9
I16
tp2911
(izone
Thing
p2912
(dp2913
g4
g22
sg6
I0
sbs(I24
I24
tp2914
(izone
Thing
p2915
(dp2916
g4
g238
sg6
I0
sbs(I14
I15
tp2917
(izone
Thing
p2918
(dp2919
g4
g101
sg6
I0
sbs(I12
I11
tp2920
(izone
Thing
p2921
(dp2922
g4
g188
sg6
I0
sbs(I36
I24
tp2923
(izone
Thing
p2924
(dp2925
g4
g10
sg6
I0
sbs(I10
I23
tp2926
(izone
Thing
p2927
(dp2928
g4
g155
sg6
I0
sbs(I25
I21
tp2929
(izone
Thing
p2930
(dp2931
g4
g10
sg6
I0
sbs(I15
I14
tp2932
(izone
Thing
p2933
(dp2934
g4
g819
sg6
I0
sbs(I13
I10
tp2935
(izone
Thing
p2936
(dp2937
g4
g18
sg6
I0
sbs(I37
I29
tp2938
(izone
Thing
p2939
(dp2940
g4
g10
sg6
I0
sbs(I2
I17
tp2941
(izone
Thing
p2942
(dp2943
g4
g5
sg6
I0
sbs(I26
I18
tp2944
(izone
Thing
p2945
(dp2946
g4
g319
sg6
I0
sbs(I0
I1
tp2947
(izone
Thing
p2948
(dp2949
g4
g5
sg6
I0
sbs(I38
I18
tp2950
(izone
Thing
p2951
(dp2952
g4
g319
sg6
I0
sbs(I3
I12
tp2953
(izone
Thing
p2954
(dp2955
g4
g5
sg6
I0
sbs(I27
I27
tp2956
(izone
Thing
p2957
(dp2958
g4
g10
sg6
I0
sbs(I1
I12
tp2959
(izone
Thing
p2960
(dp2961
g4
g5
sg6
I0
sbs(I39
I27
tp2962
(izone
Thing
p2963
(dp2964
g4
g10
sg6
I0
sbs(I4
I15
tp2965
(izone
Thing
p2966
(dp2967
g4
g5
sg6
I0
sbs(I28
I28
tp2968
(izone
Thing
p2969
(dp2970
g4
g10
sg6
I0
sbs(I2
I11
tp2971
(izone
Thing
p2972
(dp2973
g4
g5
sg6
I0
sbs(I5
I14
tp2974
(izone
Thing
p2975
(dp2976
g4
g5
sg6
I0
sbs(I29
I1
tp2977
(izone
Thing
p2978
(dp2979
g4
g10
sg6
I0
sbs(I3
I18
tp2980
(izone
Thing
p2981
(dp2982
g4
g155
sg6
I0
sbs(I6
I13
tp2983
(izone
Thing
p2984
(dp2985
g4
g5
sg6
I0
sbs(I4
I21
tp2986
(izone
Thing
p2987
(dp2988
g4
g155
sg6
I0
sbs(I19
I23
tp2989
(izone
Thing
p2990
(dp2991
g4
g1454
sg6
I0
sbs(I7
I8
tp2992
(izone
Thing
p2993
(dp2994
g4
g5
sg6
I0
sbs(I20
I16
tp2995
(izone
Thing
p2996
(dp2997
g4
g168
sg6
I0
sbs(I18
I0
tp2998
(izone
Thing
p2999
(dp3000
g4
g22
sg6
I0
sbs(I16
I16
tp3001
(izone
Thing
p3002
(dp3003
g4
g2593
sg6
I0
sbs(I21
I21
tp3004
(izone
Thing
p3005
(dp3006
g4
g22
sg6
I0
sbs(I17
I29
tp3007
(izone
Thing
p3008
(dp3009
g4
g22
sg6
I0
sbs(I32
I19
tp3010
(izone
Thing
p3011
(dp3012
g4
g10
sg6
I0
sbs(I22
I26
tp3013
(izone
Thing
p3014
(dp3015
g4
g22
sg6
I0
sbs(I18
I26
tp3016
(izone
Thing
p3017
(dp3018
g4
g22
sg6
I0
sbs(I33
I18
tp3019
(izone
Thing
p3020
(dp3021
g4
g319
sg6
I0
sbs(I23
I3
tp3022
(izone
Thing
p3023
(dp3024
g4
g22
sg6
I0
sbs(I34
I25
tp3025
(izone
Thing
p3026
(dp3027
g4
g10
sg6
I0
sbs(I8
I28
tp3028
(izone
Thing
p3029
(dp3030
g4
g22
sg6
I0
sbs(I32
I9
tp3031
(izone
Thing
p3032
(dp3033
g4
g41
sg6
I0
sbs(I35
I4
tp3034
(izone
Thing
p3035
(dp3036
g4
g10
sg6
I0
sbs(I9
I25
tp3037
(izone
Thing
p3038
(dp3039
g4
g155
sg6
I0
sbs(I14
I22
tp3040
(izone
Thing
p3041
(dp3042
g4
g22
sg6
I0
sbs(I12
I2
tp3043
(izone
Thing
p3044
(dp3045
g4
g22
sg6
I0
sbs(I36
I7
tp3046
(izone
Thing
p3047
(dp3048
g4
g41
sg6
I0
sbs(I15
I23
tp3049
(izone
Thing
p3050
(dp3051
g4
g22
sg6
I0
sbs(I13
I3
tp3052
(izone
Thing
p3053
(dp3054
g4
g22
sg6
I0
sbs(I37
I6
tp3055
(izone
Thing
p3056
(dp3057
g4
g10
sg6
I0
sbs(I26
I29
tp3058
(izone
Thing
p3059
(dp3060
g4
g10
sg6
I0
sbs(I0
I24
tp3061
(izone
Thing
p3062
(dp3063
g4
g22
sg6
I0
sbs(I24
I5
tp3064
(izone
Thing
p3065
(dp3066
g4
g10
sg6
I0
sbs(I38
I21
tp3067
(izone
Thing
p3068
(dp3069
g4
g10
sg6
I0
sbs(I12
I24
tp3070
(izone
Thing
p3071
(dp3072
g4
g22
sg6
I0
sbs(I27
I16
tp3073
(izone
Thing
p3074
(dp3075
g4
g168
sg6
I0
sbs(I1
I5
tp3076
(izone
Thing
p3077
(dp3078
g4
g5
sg6
I0
sbs(I25
I0
tp3079
(izone
Thing
p3080
(dp3081
g4
g10
sg6
I0
sbs(I39
I16
tp3082
(izone
Thing
p3083
(dp3084
g4
g168
sg6
I0
sbs(I13
I29
tp3085
(izone
Thing
p3086
(dp3087
g4
g22
sg6
I0
sbs(I28
I27
tp3088
(izone
Thing
p3089
(dp3090
g4
g10
sg6
I0
sbs(I2
I2
tp3091
(izone
Thing
p3092
(dp3093
g4
g5
sg6
I0
sbs(I26
I7
tp3094
(izone
Thing
p3095
(dp3096
g4
g41
sg6
I0
sbs(I29
I26
tp3097
(izone
Thing
p3098
(dp3099
g4
g10
sg6
I0
sbs(I3
I27
tp3100
(izone
Thing
p3101
(dp3102
g4
g22
sg6
I0
sbs(I6
I4
tp3103
(izone
Thing
p3104
(dp3105
g4
g5
sg6
I0
sbs(I30
I1
tp3106
(izone
Thing
p3107
(dp3108
g4
g10
sg6
I0
sbs(I4
I28
tp3109
(izone
Thing
p3110
(dp3111
g4
g22
sg6
I0
sbs(I19
I28
tp3112
(izone
Thing
p3113
(dp3114
g4
g22
sg6
I0
sbs(I7
I1
tp3115
(izone
Thing
p3116
(dp3117
g4
g5
sg6
I0
sbs(I31
I4
tp3118
(izone
Thing
p3119
(dp3120
g4
g10
sg6
I0
sbs(I5
I17
tp3121
(izone
Thing
p3122
(dp3123
g4
g5
sg6
I0
sbs(I16
I23
tp3124
(izone
Thing
p3125
(dp3126
g4
g22
sg6
I0
sbs(I19
I2
tp3127
(izone
Thing
p3128
(dp3129
g4
g22
sg6
I0
sbs(I17
I22
tp3130
(izone
Thing
p3131
(dp3132
g4
g22
sg6
I0
sbs(I22
I29
tp3133
(izone
Thing
p3134
(dp3135
g4
g22
sg6
I0
sbs(I20
I5
tp3136
(izone
Thing
p3137
(dp3138
g4
g22
sg6
I0
sbs(I18
I21
tp3139
(izone
Thing
p3140
(dp3141
g4
g22
sg6
I0
sbs(I23
I24
tp3142
(izone
Thing
p3143
(dp3144
g4
g22
sg6
I0
sbs(I34
I16
tp3145
(izone
Thing
p3146
(dp3147
g4
g168
sg6
I0
sbs(I8
I3
tp3148
(izone
Thing
p3149
(dp3150
g4
g5
sg6
I0
sbs(I32
I0
tp3151
(izone
Thing
p3152
(dp3153
g4
g10
sg6
I0
sbs(I35
I13
tp3154
(izone
Thing
p3155
(dp3156
g4
g41
sg6
I0
sbs(I9
I2
tp3157
(izone
Thing
p3158
(dp3159
g4
g22
sg6
I0
sbs(I33
I13
tp3160
(izone
Thing
p3161
(dp3162
g4
g41
sg6
I0
sbs(I14
I25
tp3163
(izone
Thing
p3164
(dp3165
g4
g22
sg6
I0
sbs(I36
I14
tp3166
(izone
Thing
p3167
(dp3168
g4
g10
sg6
I0
sbs(I10
I25
tp3169
(izone
Thing
p3170
(dp3171
g4
g155
sg6
I0
sbs(I34
I10
tp3172
(izone
Thing
p3173
(dp3174
g4
g41
sg6
I0
sbs(I15
I28
tp3175
(izone
Thing
p3176
(dp3177
g4
g22
sg6
I0
sbs(I37
I15
tp3178
(izone
Thing
p3179
(dp3180
g4
g60
sg6
I0
sbs(I11
I20
tp3181
(izone
Thing
p3182
(dp3183
g4
g1390
sg6
I0
sbs(I35
I19
tp3184
(izone
Thing
p3185
(dp3186
g4
g10
sg6
I0
sbs(I24
I12
tp3187
(izone
Thing
p3188
(dp3189
g4
g41
sg6
I0
sbs(I14
I3
tp3190
(izone
Thing
p3191
(dp3192
g4
g22
sg6
I0
sbs(I38
I12
tp3193
(izone
Thing
p3194
(dp3195
g4
g41
sg6
I0
sbs(I12
I23
tp3196
(izone
Thing
p3197
(dp3198
g4
g22
sg6
I0
sbs(I36
I20
tp3199
(izone
Thing
p3200
(dp3201
g4
g10
sg6
I0
sbs(I25
I9
tp3202
(izone
Thing
p3203
(dp3204
g4
g41
sg6
I0
sbs(I39
I9
tp3205
(izone
Thing
p3206
(dp3207
g4
g10
sg6
I0
sbs(I13
I22
tp3208
(izone
Thing
p3209
(dp3210
g4
g22
sg6
I0
sbs(I28
I18
tp3211
(izone
Thing
p3212
(dp3213
g4
g319
sg6
I0
sbs(I2
I29
tp3214
(izone
Thing
p3215
(dp3216
g4
g22
sg6
I0
sbs(I26
I14
tp3217
(izone
Thing
p3218
(dp3219
g4
g10
sg6
I0
sbs(I29
I19
tp3220
(izone
Thing
p3221
(dp3222
g4
g10
sg6
I0
sbs(I3
I0
tp3223
(izone
Thing
p3224
(dp3225
g4
g5
sg6
I0
sbs(I27
I15
tp3226
(izone
Thing
p3227
(dp3228
g4
g60
sg6
I0
sbs(I30
I8
tp3229
(izone
Thing
p3230
(dp3231
g4
g41
sg6
I0
sbs(I4
I27
tp3232
(izone
Thing
p3233
(dp3234
g4
g22
sg6
I0
sbs(I28
I8
tp3235
(izone
Thing
p3236
(dp3237
g4
g41
sg6
I0
sbs(I31
I13
tp3238
(izone
Thing
p3239
(dp3240
g4
g41
sg6
I0
sbs(I5
I26
tp3241
(izone
Thing
p3242
(dp3243
g4
g22
sg6
I0
sbs(I29
I13
tp3244
(izone
Thing
p3245
(dp3246
g4
g41
sg6
I0
sbs(I16
I14
tp3247
(izone
Thing
p3248
(dp3249
g4
g819
sg6
I0
sbs(I6
I17
tp3250
(izone
Thing
p3251
(dp3252
g4
g5
sg6
I0
sbs(I30
I18
tp3253
(izone
Thing
p3254
(dp3255
g4
g319
sg6
I0
sbs(I19
I11
tp3256
(izone
Thing
p3257
(dp3258
g4
g41
sg6
I0
sbs(I17
I15
tp3259
(izone
Thing
p3260
(dp3261
g4
(I2
I7
tp3262
sg6
I0
sbs(I7
I20
tp3263
(izone
Thing
p3264
(dp3265
g4
g155
sg6
I0
sbs(I22
I20
tp3266
(izone
Thing
p3267
(dp3268
g4
g22
sg6
I0
sbs(I20
I12
tp3269
(izone
Thing
p3270
(dp3271
g4
g41
sg6
I0
sbs(I18
I12
tp3272
(izone
Thing
p3273
(dp3274
g4
g22
sg6
I0
sbs(I23
I17
tp3275
(izone
Thing
p3276
(dp3277
g4
g133
sg6
I0
sbs(I21
I1
tp3278
(izone
Thing
p3279
(dp3280
g4
g22
sg6
I0
sbs(I8
I10
tp3281
(izone
Thing
p3282
(dp3283
g4
g5
sg6
I0
sbs(I32
I7
tp3284
(izone
Thing
p3285
(dp3286
g4
g41
sg6
I0
sbs(I22
I14
tp3287
(izone
Thing
p3288
(dp3289
g4
g91
sg6
I0
sbs(I9
I11
tp3290
(izone
Thing
p3291
(dp3292
g4
g22
sg6
I0
sbs(I33
I6
tp3293
(izone
Thing
p3294
(dp3295
g4
g10
sg6
I0
sbs(I23
I15
tp3296
(izone
Thing
p3297
(dp3298
g4
g60
sg6
I0
sbs(I10
I0
tp3299
(izone
Thing
p3300
(dp3301
g4
g1390
sg6
I0
sbs(I34
I5
tp3302
(izone
Thing
p3303
(dp3304
g4
g10
sg6
I0
sbs(I8
I16
tp3305
(izone
Thing
p3306
(dp3307
g4
g5
sg6
I0
sbs(I37
I8
tp3308
(izone
Thing
p3309
(dp3310
g4
g41
sg6
I0
sbs(I11
I13
tp3311
(izone
Thing
p3312
(dp3313
g4
g1168
sg6
I0
sbs(I35
I24
tp3314
(izone
Thing
p3315
(dp3316
g4
g10
sg6
I0
sbs(I0
I22
tp3317
(izone
Thing
p3318
(dp3319
g4
g155
sg6
I0
sbs(I24
I19
tp3320
(izone
Thing
p3321
(dp3322
g4
g10
sg6
I0
sbs(I14
I10
tp3323
(izone
Thing
p3324
(dp3325
g4
g18
sg6
I0
sbs(I38
I7
tp3326
(izone
Thing
p3327
(dp3328
g4
g41
sg6
I0
sbs(I12
I14
tp3329
(izone
Thing
p3330
(dp3331
g4
g819
sg6
I0
sbs(I36
I19
tp3332
(izone
Thing
p3333
(dp3334
g4
g10
sg6
I0
sbs(I1
I23
tp3335
(izone
Thing
p3336
(dp3337
g4
g155
sg6
I0
sbs(I25
I18
tp3338
(izone
Thing
p3339
(dp3340
g4
g319
sg6
I0
sbs(I15
I3
tp3341
(izone
Thing
p3342
(dp3343
g4
g22
sg6
I0
sbs(I39
I6
tp3344
(izone
Thing
p3345
(dp3346
g4
g10
sg6
I0
sbs(I13
I15
tp3347
(izone
Thing
p3348
(dp3349
g4
g101
sg6
I0
sbs(I37
I18
tp3350
(izone
Thing
p3351
(dp3352
g4
g319
sg6
I0
sbs(I2
I20
tp3353
(izone
Thing
p3354
(dp3355
g4
g155
sg6
I0
sbs(I26
I9
tp3356
(izone
Thing
p3357
(dp3358
g4
g41
sg6
I0
sbs(I0
I12
tp3359
(izone
Thing
p3360
(dp3361
g4
g5
sg6
I0
sbs(I38
I25
tp3362
(izone
Thing
p3363
(dp3364
g4
g10
sg6
I0
sbs(I3
I9
tp3365
(izone
Thing
p3366
(dp3367
g4
g5
sg6
I0
sbs(I27
I4
tp3368
(izone
Thing
p3369
(dp3370
g4
g10
sg6
I0
sbs(I1
I9
tp3371
(izone
Thing
p3372
(dp3373
g4
g5
sg6
I0
sbs(I39
I28
tp3374
(izone
Thing
p3375
(dp3376
g4
g10
sg6
I0
sbs(I4
I2
tp3377
(izone
Thing
p3378
(dp3379
g4
g5
sg6
I0
sbs(I28
I7
tp3380
(izone
Thing
p3381
(dp3382
g4
g41
sg6
I0
sbs(I2
I14
tp3383
(izone
Thing
p3384
(dp3385
g4
g5
sg6
I0
sbs(I31
I10
tp3386
(izone
Thing
p3387
(dp3388
g4
g41
sg6
I0
sbs(I5
I3
tp3389
(izone
Thing
p3390
(dp3391
g4
g5
sg6
I0
sbs(I29
I6
tp3392
(izone
Thing
p3393
(dp3394
g4
g10
sg6
I0
sbs(I16
I5
tp3395
(izone
Thing
p3396
(dp3397
g4
g22
sg6
I0
sbs(I6
I8
tp3398
(izone
Thing
p3399
(dp3400
g4
g5
sg6
I0
sbs(I30
I21
tp3401
(izone
Thing
p3402
(dp3403
g4
g10
sg6
I0
sbs(I19
I16
tp3404
(izone
Thing
p3405
(dp3406
g4
g168
sg6
I0
sbs(I17
I0
tp3407
(izone
Thing
p3408
(dp3409
g4
g22
sg6
I0
sbs(I7
I13
tp3410
(izone
Thing
p3411
(dp3412
g4
g199
sg6
I0
sbs(I31
I16
tp3413
(izone
Thing
p3414
(dp3415
g4
g168
sg6
I0
sbs(I20
I11
tp3416
(izone
Thing
p3417
(dp3418
g4
g41
sg6
I0
sbs(I18
I7
tp3419
(izone
Thing
p3420
(dp3421
g4
g188
sg6
I0
sbs(I16
I27
tp3422
(izone
Thing
p3423
(dp3424
g4
g14
sg6
I0
sbs(I21
I10
tp3425
(izone
Thing
p3426
(dp3427
g4
g41
sg6
I0
sbs(I17
I26
tp3428
(izone
Thing
p3429
(dp3430
g4
g22
sg6
I0
sbs(I22
I1
tp3431
(izone
Thing
p3432
(dp3433
g4
g22
sg6
I0
sbs(I9
I12
tp3434
(izone
Thing
p3435
(dp3436
g4
g632
sg6
I0
sbs(I23
I4
tp3437
(izone
Thing
p3438
(dp3439
g4
g22
sg6
I0
sbs(I10
I11
tp3440
(izone
Thing
p3441
(dp3442
g4
g22
sg6
I0
sbs(I34
I28
tp3443
(izone
Thing
p3444
(dp3445
g4
g10
sg6
I0
sbs(I8
I23
tp3446
(izone
Thing
p3447
(dp3448
g4
g14
sg6
I0
sbs(I11
I2
tp3449
(izone
Thing
p3450
(dp3451
g4
g22
sg6
I0
sbs(I35
I1
tp3452
(izone
Thing
p3453
(dp3454
g4
g10
sg6
I0
sbs(I9
I22
tp3455
(izone
Thing
p3456
(dp3457
g4
g155
sg6
I0
sbs(I24
I26
tp3458
(izone
Thing
p3459
(dp3460
g4
g238
sg6
I0
sbs(I14
I13
tp3461
(izone
Thing
p3462
(dp3463
g4
g1380
sg6
I0
sbs(I12
I5
tp3464
(izone
Thing
p3465
(dp3466
g4
g22
sg6
I0
sbs(I36
I26
tp3467
(izone
Thing
p3468
(dp3469
g4
g10
sg6
I0
sbs(I10
I21
tp3470
(izone
Thing
p3471
(dp3472
g4
g155
sg6
I0
sbs(I25
I27
tp3473
(izone
Thing
p3474
(dp3475
g4
g10
sg6
I0
sbs(I15
I8
tp3476
(izone
Thing
p3477
(dp3478
g4
g18
sg6
I0
sbs(I13
I8
tp3479
(izone
Thing
p3480
(dp3481
g4
g18
sg6
I0
sbs(I37
I27
tp3482
(izone
Thing
p3483
(dp3484
g4
g10
sg6
I0
sbs(I11
I24
tp3485
(izone
Thing
p3486
(dp3487
g4
g155
sg6
I0
sbs(I26
I16
tp3488
(izone
Thing
p3489
(dp3490
g4
g168
sg6
I0
sbs(I0
I3
tp3491
(izone
Thing
p3492
(dp3493
g4
g5
sg6
I0
sbs(I24
I0
tp3494
(izone
Thing
p3495
(dp3496
g4
g10
sg6
I0
sbs(I38
I16
tp3497
(izone
Thing
p3498
(dp3499
g4
g168
sg6
I0
sbs(I3
I14
tp3500
(izone
Thing
p3501
(dp3502
g4
g5
sg6
I0
sbs(I27
I29
tp3503
(izone
Thing
p3504
(dp3505
g4
g10
sg6
I0
sbs(I1
I2
tp3506
(izone
Thing
p3507
(dp3508
g4
g5
sg6
I0
sbs(I39
I21
tp3509
(izone
Thing
p3510
(dp3511
g4
g10
sg6
I0
sbs(I4
I9
tp3512
(izone
Thing
p3513
(dp3514
g4
g5
sg6
I0
sbs(I2
I9
tp3515
(izone
Thing
p3516
(dp3517
g4
g5
sg6
I0
sbs(I5
I12
tp3518
(izone
Thing
p3519
(dp3520
g4
g5
sg6
I0
sbs(I3
I20
tp3521
(izone
Thing
p3522
(dp3523
g4
g155
sg6
I0
sbs(I6
I3
tp3524
(izone
Thing
p3525
(dp3526
g4
g5
sg6
I0
sbs(I30
I28
tp3527
(izone
Thing
p3528
(dp3529
g4
g10
sg6
I0
sbs(I4
I23
tp3530
(izone
Thing
p3531
(dp3532
g4
g155
sg6
I0
sbs(I19
I25
tp3533
(izone
Thing
p3534
(dp3535
g4
g1454
sg6
I0
sbs(I7
I10
tp3536
(izone
Thing
p3537
(dp3538
g4
g5
sg6
I0
sbs(I31
I25
tp3539
(izone
Thing
p3540
(dp3541
g4
g10
sg6
I0
sbs(I5
I22
tp3542
(izone
Thing
p3543
(dp3544
g4
g155
sg6
I0
sbs(I20
I18
tp3545
(izone
Thing
p3546
(dp3547
g4
g319
sg6
I0
sbs(I16
I18
tp3548
(izone
Thing
p3549
(dp3550
g4
g2237
sg6
I0
sbs(I21
I19
tp3551
(izone
Thing
p3552
(dp3553
g4
g22
sg6
I0
sbs(I17
I19
tp3554
(izone
Thing
p3555
(dp3556
g4
(I8
I6
tp3557
sg6
I0
sbs(I32
I21
tp3558
(izone
Thing
p3559
(dp3560
g4
g10
sg6
I0
sbs(I22
I24
tp3561
(izone
Thing
p3562
(dp3563
g4
g22
sg6
I0
sbs(I18
I24
tp3564
(izone
Thing
p3565
(dp3566
g4
g22
sg6
I0
sbs(I33
I16
tp3567
(izone
Thing
p3568
(dp3569
g4
(I5
I7
tp3570
sg6
I0
sbs(I23
I29
tp3571
(izone
Thing
p3572
(dp3573
g4
g22
sg6
I0
sbs(I34
I23
tp3574
(izone
Thing
p3575
(dp3576
g4
g10
sg6
I0
sbs(I32
I11
tp3577
(izone
Thing
p3578
(dp3579
g4
g41
sg6
I0
sbs(I35
I6
tp3580
(izone
Thing
p3581
(dp3582
g4
g10
sg6
I0
sbs(I33
I10
tp3583
(izone
Thing
p3584
(dp3585
g4
g41
sg6
I0
sbs(I14
I20
tp3586
(izone
Thing
p3587
(dp3588
g4
g120
sg6
I0
sbs(I36
I1
tp3589
(izone
Thing
p3590
(dp3591
g4
g10
sg6
I0
sbs(I10
I28
tp3592
(izone
Thing
p3593
(dp3594
g4
g22
sg6
I0
sbs(I25
I28
tp3595
(izone
Thing
p3596
(dp3597
g4
g10
sg6
I0
sbs(I15
I17
tp3598
(izone
Thing
p3599
(dp3600
g4
g101
sg6
I0
sbs(I13
I1
tp3601
(izone
Thing
p3602
(dp3603
g4
g22
sg6
I0
sbs(I37
I4
tp3604
(izone
Thing
p3605
(dp3606
g4
g10
sg6
I0
sbs(I11
I17
tp3607
(izone
Thing
p3608
(dp3609
g4
g228
sg6
I0
sbs(I26
I27
tp3610
(izone
Thing
p3611
(dp3612
g4
g10
sg6
I0
sbs(I0
I26
tp3613
(izone
Thing
p3614
(dp3615
g4
g22
sg6
I0
sbs(I24
I7
tp3616
(izone
Thing
p3617
(dp3618
g4
g41
sg6
I0
sbs(I38
I11
tp3619
(izone
Thing
p3620
(dp3621
g4
g41
sg6
I0
sbs(I12
I26
tp3622
(izone
Thing
p3623
(dp3624
g4
g22
sg6
I0
sbs(I27
I18
tp3625
(izone
Thing
p3626
(dp3627
g4
g319
sg6
I0
sbs(I1
I27
tp3628
(izone
Thing
p3629
(dp3630
g4
g22
sg6
I0
sbs(I25
I6
tp3631
(izone
Thing
p3632
(dp3633
g4
g10
sg6
I0
sbs(I39
I18
tp3634
(izone
Thing
p3635
(dp3636
g4
g319
sg6
I0
sbs(I13
I27
tp3637
(izone
Thing
p3638
(dp3639
g4
g14
sg6
I0
sbs(I28
I21
tp3640
(izone
Thing
p3641
(dp3642
g4
g10
sg6
I0
sbs(I2
I0
tp3643
(izone
Thing
p3644
(dp3645
g4
g5
sg6
I0
sbs(I26
I5
tp3646
(izone
Thing
p3647
(dp3648
g4
g10
sg6
I0
sbs(I29
I24
tp3649
(izone
Thing
p3650
(dp3651
g4
g10
sg6
I0
sbs(I3
I29
tp3652
(izone
Thing
p3653
(dp3654
g4
g22
sg6
I0
sbs(I27
I8
tp3655
(izone
Thing
p3656
(dp3657
g4
g41
sg6
I0
sbs(I30
I7
tp3658
(izone
Thing
p3659
(dp3660
g4
g41
sg6
I0
sbs.