(dp0
(I31
I6
tp1
(izone
Thing
p2
(dp3
S'tile'
p4
(I8
I3
tp5
sS'sheet'
p6
I2
sbs(I6
I28
tp7
(izone
Thing
p8
(dp9
g4
(I1
I3
tp10
sg6
I12
sbs(I21
I6
tp11
(izone
Thing
p12
(dp13
g4
g5
sg6
I2
sbs(I8
I5
tp14
(izone
Thing
p15
(dp16
g4
(I0
I1
tp17
sg6
I6
sbs(I36
I8
tp18
(izone
Thing
p19
(dp20
g4
(I1
I10
tp21
sg6
I3
sbs(I10
I7
tp22
(izone
Thing
p23
(dp24
g4
(I7
I4
tp25
sg6
I2
sbs(I34
I8
tp26
(izone
Thing
p27
(dp28
g4
g21
sg6
I3
sbs(I37
I13
tp29
(izone
Thing
p30
(dp31
g4
(I6
I11
tp32
sg6
I3
sbs(I24
I14
tp33
(izone
Thing
p34
(dp35
g4
(I8
I3
tp36
sg6
I2
sbs(I14
I1
tp37
(izone
Thing
p38
(dp39
g4
(I3
I3
tp40
sg6
I12
sbs(I1
I28
tp41
(izone
Thing
p42
(dp43
g4
(I1
I4
tp44
sg6
I12
sbs(I39
I11
tp45
(izone
Thing
p46
(dp47
g4
(I7
I4
tp48
sg6
I2
sbs(I37
I23
tp49
(izone
Thing
p50
(dp51
g4
(I3
I3
tp52
sg6
I12
sbs(I2
I27
tp53
(izone
Thing
p54
(dp55
g4
g44
sg6
I12
sbs(I3
I2
tp56
(izone
Thing
p57
(dp58
g4
(I1
I4
tp59
sg6
I12
sbs(I27
I1
tp60
(izone
Thing
p61
(dp62
g4
(I1
I4
tp63
sg6
I12
sbs(I30
I14
tp64
(izone
Thing
p65
(dp66
g4
g36
sg6
I2
sbs(I4
I5
tp67
(izone
Thing
p68
(dp69
g4
(I2
I5
tp70
sg6
I12
sbs(I16
I0
tp71
(izone
Thing
p72
(dp73
g4
(I0
I4
tp74
sg6
I12
sbs(I19
I13
tp75
(izone
Thing
p76
(dp77
g4
(I7
I4
tp78
sg6
I2
sbs(I17
I13
tp79
(izone
Thing
p80
(dp81
g4
(I1
I2
tp82
sg6
I6
sbs(I20
I14
tp83
(izone
Thing
p84
(dp85
g4
g36
sg6
I2
sbs(I21
I15
tp86
(izone
Thing
p87
(dp88
g4
(I0
I2
tp89
sg6
I6
sbs(I22
I12
tp90
(izone
Thing
p91
(dp92
g4
(I0
I7
tp93
sg6
I3
sbs(I9
I9
tp94
(izone
Thing
p95
(dp96
g4
(I5
I3
tp97
sg6
I15
sbs(I10
I14
tp98
(izone
Thing
p99
(dp100
g4
(I0
I1
tp101
sg6
I6
sbs(I35
I26
tp102
(izone
Thing
p103
(dp104
g4
g52
sg6
I12
sbs(I24
I21
tp105
(izone
Thing
p106
(dp107
g4
(I1
I11
tp108
sg6
I23
sbs(I14
I8
tp109
(izone
Thing
p110
(dp111
g4
(I1
I14
tp112
sg6
I3
sbs(I36
I29
tp113
(izone
Thing
p114
(dp115
g4
g44
sg6
I12
sbs(I1
I21
tp116
(izone
Thing
p117
(dp118
g4
(I2
I4
tp119
sg6
I12
sbs(I15
I13
tp120
(izone
Thing
p121
(dp122
g4
(I1
I5
tp123
sg6
I3
sbs(I13
I13
tp124
(izone
Thing
p125
(dp126
g4
(I0
I2
tp127
sg6
I6
sbs(I26
I23
tp128
(izone
Thing
p129
(dp130
g4
g108
sg6
I23
sbs(I3
I11
tp131
(izone
Thing
p132
(dp133
g4
(I1
I0
tp134
sg6
I6
sbs(I27
I6
tp135
(izone
Thing
p136
(dp137
g4
g5
sg6
I2
sbs(I28
I1
tp138
(izone
Thing
p139
(dp140
g4
(I2
I4
tp141
sg6
I12
sbs(I5
I1
tp142
(izone
Thing
p143
(dp144
g4
(I2
I4
tp145
sg6
I12
sbs(I17
I6
tp146
(izone
Thing
p147
(dp148
g4
g5
sg6
I2
sbs(I21
I8
tp149
(izone
Thing
p150
(dp151
g4
(I1
I10
tp152
sg6
I3
sbs(I17
I24
tp153
(izone
Thing
p154
(dp155
g4
(I0
I1
tp156
sg6
I6
sbs(I33
I29
tp157
(izone
Thing
p158
(dp159
g4
(I0
I4
tp160
sg6
I12
sbs(I23
I6
tp161
(izone
Thing
p162
(dp163
g4
g5
sg6
I2
sbs(I10
I9
tp164
(izone
Thing
p165
(dp166
g4
g25
sg6
I2
sbs(I10
I19
tp167
(izone
Thing
p168
(dp169
g4
g101
sg6
I6
sbs(I25
I25
tp170
(izone
Thing
p171
(dp172
g4
g108
sg6
I23
sbs(I15
I10
tp173
(izone
Thing
p174
(dp175
g4
(I2
I16
tp176
sg6
I3
sbs(I13
I6
tp177
(izone
Thing
p178
(dp179
g4
g5
sg6
I2
sbs(I37
I25
tp180
(izone
Thing
p181
(dp182
g4
(I0
I4
tp183
sg6
I12
sbs(I0
I5
tp184
(izone
Thing
p185
(dp186
g4
(I0
I4
tp187
sg6
I12
sbs(I24
I2
tp188
(izone
Thing
p189
(dp190
g4
g63
sg6
I12
sbs(I1
I0
tp191
(izone
Thing
p192
(dp193
g4
(I1
I3
tp194
sg6
I12
sbs(I25
I3
tp195
(izone
Thing
p196
(dp197
g4
(I1
I5
tp198
sg6
I12
sbs(I6
I1
tp199
(izone
Thing
p200
(dp201
g4
(I2
I4
tp202
sg6
I12
sbs(I30
I2
tp203
(izone
Thing
p204
(dp205
g4
(I1
I1
tp206
sg6
I6
sbs(I19
I27
tp207
(izone
Thing
p208
(dp209
g4
g156
sg6
I6
sbs(I7
I4
tp210
(izone
Thing
p211
(dp212
g4
(I3
I3
tp213
sg6
I12
sbs(I6
I27
tp214
(izone
Thing
p215
(dp216
g4
(I3
I3
tp217
sg6
I12
sbs(I19
I1
tp218
(izone
Thing
p219
(dp220
g4
g63
sg6
I12
sbs(I32
I13
tp221
(izone
Thing
p222
(dp223
g4
(I1
I7
tp224
sg6
I3
sbs(I35
I8
tp225
(izone
Thing
p226
(dp227
g4
g21
sg6
I3
sbs(I33
I8
tp228
(izone
Thing
p229
(dp230
g4
g21
sg6
I3
sbs(I14
I26
tp231
(izone
Thing
p232
(dp233
g4
(I1
I1
tp234
sg6
I6
sbs(I10
I26
tp235
(izone
Thing
p236
(dp237
g4
g217
sg6
I12
sbs(I26
I25
tp238
(izone
Thing
p239
(dp240
g4
g108
sg6
I23
sbs(I0
I28
tp241
(izone
Thing
p242
(dp243
g4
g44
sg6
I12
sbs(I1
I25
tp244
(izone
Thing
p245
(dp246
g4
g44
sg6
I12
sbs(I39
I12
tp247
(izone
Thing
p248
(dp249
g4
g48
sg6
I2
sbs(I26
I3
tp250
(izone
Thing
p251
(dp252
g4
g198
sg6
I12
sbs(I28
I13
tp253
(izone
Thing
p254
(dp255
g4
g224
sg6
I3
sbs(I5
I29
tp256
(izone
Thing
p257
(dp258
g4
g44
sg6
I12
sbs(I19
I6
tp259
(izone
Thing
p260
(dp261
g4
g5
sg6
I2
sbs(I7
I27
tp262
(izone
Thing
p263
(dp264
g4
g52
sg6
I12
sbs(I20
I1
tp265
(izone
Thing
p266
(dp267
g4
g63
sg6
I12
sbs(I18
I17
tp268
(izone
Thing
p269
(dp270
g4
(I2
I2
tp271
sg6
I6
sbs(I8
I7
tp272
(izone
Thing
p273
(dp274
g4
(I0
I2
tp275
sg6
I6
sbs(I9
I6
tp276
(izone
Thing
p277
(dp278
g4
(I1
I1
tp279
sg6
I6
sbs(I10
I5
tp280
(izone
Thing
p281
(dp282
g4
g279
sg6
I6
sbs(I34
I6
tp283
(izone
Thing
p284
(dp285
g4
g5
sg6
I2
sbs(I15
I24
tp286
(izone
Thing
p287
(dp288
g4
(I1
I2
tp289
sg6
I6
sbs(I0
I19
tp290
(izone
Thing
p291
(dp292
g4
g217
sg6
I12
sbs(I15
I6
tp293
(izone
Thing
p294
(dp295
g4
g5
sg6
I2
sbs(I2
I25
tp296
(izone
Thing
p297
(dp298
g4
g44
sg6
I12
sbs(I26
I10
tp299
(izone
Thing
p300
(dp301
g4
(I1
I7
tp302
sg6
I3
sbs(I38
I26
tp303
(izone
Thing
p304
(dp305
g4
g44
sg6
I12
sbs(I3
I4
tp306
(izone
Thing
p307
(dp308
g4
g59
sg6
I12
sbs(I27
I3
tp309
(izone
Thing
p310
(dp311
g4
g198
sg6
I12
sbs(I4
I7
tp312
(izone
Thing
p313
(dp314
g4
(I0
I1
tp315
sg6
I6
sbs(I5
I6
tp316
(izone
Thing
p317
(dp318
g4
(I1
I2
tp319
sg6
I36
sbs(I29
I9
tp320
(izone
Thing
p321
(dp322
g4
(I11
I10
tp323
sg6
I3
sbs(I16
I2
tp324
(izone
Thing
p325
(dp326
g4
(I0
I4
tp327
sg6
I12
sbs(I19
I15
tp328
(izone
Thing
p329
(dp330
g4
(I0
I1
tp331
sg6
I6
sbs(I17
I3
tp332
(izone
Thing
p333
(dp334
g4
(I3
I3
tp335
sg6
I12
sbs(I20
I8
tp336
(izone
Thing
p337
(dp338
g4
g152
sg6
I3
sbs(I18
I8
tp339
(izone
Thing
p340
(dp341
g4
(I0
I10
tp342
sg6
I3
sbs(I22
I2
tp343
(izone
Thing
p344
(dp345
g4
g63
sg6
I12
sbs(I33
I26
tp346
(izone
Thing
p347
(dp348
g4
g52
sg6
I12
sbs(I23
I11
tp349
(izone
Thing
p350
(dp351
g4
g302
sg6
I3
sbs(I10
I12
tp352
(izone
Thing
p353
(dp354
g4
(I7
I5
tp355
sg6
I2
sbs(I11
I1
tp356
(izone
Thing
p357
(dp358
g4
(I3
I3
tp359
sg6
I12
sbs(I35
I28
tp360
(izone
Thing
p361
(dp362
g4
(I1
I3
tp363
sg6
I12
sbs(I24
I23
tp364
(izone
Thing
p365
(dp366
g4
g108
sg6
I23
sbs(I25
I22
tp367
(izone
Thing
p368
(dp369
g4
g108
sg6
I23
sbs(I15
I15
tp370
(izone
Thing
p371
(dp372
g4
(I9
I4
tp373
sg6
I3
sbs(I13
I11
tp374
(izone
Thing
p375
(dp376
g4
(I16
I7
tp377
sg6
I6
sbs(I26
I21
tp378
(izone
Thing
p379
(dp380
g4
(I1
I11
tp381
sg6
I23
sbs(I0
I0
tp382
(izone
Thing
p383
(dp384
g4
(I0
I3
tp385
sg6
I12
sbs(I38
I29
tp386
(izone
Thing
p387
(dp388
g4
g44
sg6
I12
sbs(I1
I13
tp389
(izone
Thing
p390
(dp391
g4
g213
sg6
I12
sbs(I39
I24
tp392
(izone
Thing
p393
(dp394
g4
(I1
I3
tp395
sg6
I12
sbs(I28
I3
tp396
(izone
Thing
p397
(dp398
g4
(I2
I5
tp399
sg6
I12
sbs(I2
I10
tp400
(izone
Thing
p401
(dp402
g4
g213
sg6
I12
sbs(I29
I2
tp403
(izone
Thing
p404
(dp405
g4
(I1
I12
tp406
sg6
I14
sbs(I6
I12
tp407
(izone
Thing
p408
(dp409
g4
(I1
I2
tp410
sg6
I6
sbs(I18
I3
tp411
(izone
Thing
p412
(dp413
g4
g198
sg6
I12
sbs(I23
I0
tp414
(izone
Thing
p415
(dp416
g4
g63
sg6
I12
sbs(I34
I24
tp417
(izone
Thing
p418
(dp419
g4
g52
sg6
I12
sbs(I8
I27
tp420
(izone
Thing
p421
(dp422
g4
(I17
I20
tp423
sg6
I4
sbs(I32
I8
tp424
(izone
Thing
p425
(dp426
g4
(I1
I10
tp427
sg6
I3
sbs(I11
I6
tp428
(izone
Thing
p429
(dp430
g4
g5
sg6
I2
sbs(I12
I1
tp431
(izone
Thing
p432
(dp433
g4
g359
sg6
I12
sbs(I36
I6
tp434
(izone
Thing
p435
(dp436
g4
g5
sg6
I2
sbs(I13
I4
tp437
(izone
Thing
p438
(dp439
g4
(I12
I5
tp440
sg6
I4
sbs(I37
I7
tp441
(izone
Thing
p442
(dp443
g4
(I1
I4
tp444
sg6
I21
sbs(I0
I7
tp445
(izone
Thing
p446
(dp447
g4
(I0
I2
tp448
sg6
I6
sbs(I24
I4
tp449
(izone
Thing
p450
(dp451
g4
g40
sg6
I12
sbs(I1
I6
tp452
(izone
Thing
p453
(dp454
g4
(I1
I5
tp455
sg6
I12
sbs(I25
I1
tp456
(izone
Thing
p457
(dp458
g4
g63
sg6
I12
sbs(I2
I5
tp459
(izone
Thing
p460
(dp461
g4
(I1
I5
tp462
sg6
I12
sbs(I26
I6
tp463
(izone
Thing
p464
(dp465
g4
g5
sg6
I2
sbs(I5
I8
tp466
(izone
Thing
p467
(dp468
g4
(I1
I1
tp469
sg6
I6
sbs(I3
I24
tp470
(izone
Thing
p471
(dp472
g4
g217
sg6
I12
sbs(I6
I7
tp473
(izone
Thing
p474
(dp475
g4
(I4
I2
tp476
sg6
I36
sbs(I7
I6
tp477
(izone
Thing
p478
(dp479
g4
(I4
I0
tp480
sg6
I15
sbs(I6
I25
tp481
(izone
Thing
p482
(dp483
g4
g217
sg6
I12
sbs(I19
I3
tp484
(izone
Thing
p485
(dp486
g4
g198
sg6
I12
sbs(I7
I28
tp487
(izone
Thing
p488
(dp489
g4
g217
sg6
I12
sbs(I23
I25
tp490
(izone
Thing
p491
(dp492
g4
(I0
I2
tp493
sg6
I6
sbs(I8
I2
tp494
(izone
Thing
p495
(dp496
g4
g213
sg6
I12
sbs(I33
I14
tp497
(izone
Thing
p498
(dp499
g4
g36
sg6
I2
sbs(I36
I13
tp500
(izone
Thing
p501
(dp502
g4
g32
sg6
I3
sbs(I24
I11
tp503
(izone
Thing
p504
(dp505
g4
g323
sg6
I3
sbs(I39
I14
tp506
(izone
Thing
p507
(dp508
g4
(I9
I5
tp509
sg6
I2
sbs(I2
I28
tp510
(izone
Thing
p511
(dp512
g4
g44
sg6
I12
sbs(I26
I1
tp513
(izone
Thing
p514
(dp515
g4
g63
sg6
I12
sbs(I3
I1
tp516
(izone
Thing
p517
(dp518
g4
g59
sg6
I12
sbs(I30
I11
tp519
(izone
Thing
p520
(dp521
g4
g224
sg6
I3
sbs(I4
I26
tp522
(izone
Thing
p523
(dp524
g4
(I2
I4
tp525
sg6
I12
sbs(I5
I27
tp526
(izone
Thing
p527
(dp528
g4
(I2
I3
tp529
sg6
I12
sbs(I29
I14
tp530
(izone
Thing
p531
(dp532
g4
g36
sg6
I2
sbs(I16
I13
tp533
(izone
Thing
p534
(dp535
g4
(I1
I1
tp536
sg6
I6
sbs(I19
I8
tp537
(izone
Thing
p538
(dp539
g4
g152
sg6
I3
sbs(I22
I23
tp540
(izone
Thing
p541
(dp542
g4
g234
sg6
I6
sbs(I20
I3
tp543
(izone
Thing
p544
(dp545
g4
g198
sg6
I12
sbs(I18
I15
tp546
(izone
Thing
p547
(dp548
g4
g89
sg6
I6
sbs(I21
I2
tp549
(izone
Thing
p550
(dp551
g4
g63
sg6
I12
sbs(I32
I6
tp552
(izone
Thing
p553
(dp554
g4
g5
sg6
I2
sbs(I22
I9
tp555
(izone
Thing
p556
(dp557
g4
g323
sg6
I3
sbs(I9
I4
tp558
(izone
Thing
p559
(dp560
g4
g17
sg6
I6
sbs(I10
I3
tp561
(izone
Thing
p562
(dp563
g4
g440
sg6
I4
sbs(I0
I21
tp564
(izone
Thing
p565
(dp566
g4
g44
sg6
I12
sbs(I38
I6
tp567
(izone
Thing
p568
(dp569
g4
g5
sg6
I2
sbs(I25
I19
tp570
(izone
Thing
p571
(dp572
g4
g234
sg6
I6
sbs(I15
I0
tp573
(izone
Thing
p574
(dp575
g4
g74
sg6
I12
sbs(I39
I7
tp576
(izone
Thing
p577
(dp578
g4
g48
sg6
I2
sbs(I2
I23
tp579
(izone
Thing
p580
(dp581
g4
g217
sg6
I12
sbs(I26
I8
tp582
(izone
Thing
p583
(dp584
g4
(I1
I10
tp585
sg6
I3
sbs(I38
I24
tp586
(izone
Thing
p587
(dp588
g4
(I0
I3
tp589
sg6
I12
sbs(I3
I6
tp590
(izone
Thing
p591
(dp592
g4
g134
sg6
I6
sbs(I1
I10
tp593
(izone
Thing
p594
(dp595
g4
g134
sg6
I6
sbs(I39
I29
tp596
(izone
Thing
p597
(dp598
g4
g44
sg6
I12
sbs(I4
I1
tp599
(izone
Thing
p600
(dp601
g4
(I1
I4
tp602
sg6
I12
sbs(I28
I6
tp603
(izone
Thing
p604
(dp605
g4
g5
sg6
I2
sbs(I6
I11
tp606
(izone
Thing
p607
(dp608
g4
g213
sg6
I12
sbs(I19
I17
tp609
(izone
Thing
p610
(dp611
g4
(I1
I2
tp612
sg6
I6
sbs(I17
I1
tp613
(izone
Thing
p614
(dp615
g4
g63
sg6
I12
sbs(I18
I6
tp616
(izone
Thing
p617
(dp618
g4
g5
sg6
I2
sbs(I32
I29
tp619
(izone
Thing
p620
(dp621
g4
g52
sg6
I12
sbs(I22
I0
tp622
(izone
Thing
p623
(dp624
g4
g63
sg6
I12
sbs(I10
I10
tp625
(izone
Thing
p626
(dp627
g4
g25
sg6
I2
sbs(I11
I3
tp628
(izone
Thing
p629
(dp630
g4
g440
sg6
I4
sbs(I24
I25
tp631
(izone
Thing
p632
(dp633
g4
g108
sg6
I23
sbs(I14
I12
tp634
(izone
Thing
p635
(dp636
g4
(I2
I5
tp637
sg6
I4
sbs(I36
I25
tp638
(izone
Thing
p639
(dp640
g4
g52
sg6
I12
sbs(I15
I9
tp641
(izone
Thing
p642
(dp643
g4
(I2
I15
tp644
sg6
I3
sbs(I13
I9
tp645
(izone
Thing
p646
(dp647
g4
(I0
I15
tp648
sg6
I3
sbs(I37
I28
tp649
(izone
Thing
p650
(dp651
g4
g44
sg6
I12
sbs(I11
I25
tp652
(izone
Thing
p653
(dp654
g4
g289
sg6
I6
sbs(I0
I2
tp655
(izone
Thing
p656
(dp657
g4
(I0
I4
tp658
sg6
I12
sbs(I1
I3
tp659
(izone
Thing
p660
(dp661
g4
g59
sg6
I12
sbs(I39
I26
tp662
(izone
Thing
p663
(dp664
g4
g44
sg6
I12
sbs(I4
I8
tp665
(izone
Thing
p666
(dp667
g4
g469
sg6
I6
sbs(I2
I8
tp668
(izone
Thing
p669
(dp670
g4
g213
sg6
I12
sbs(I6
I2
tp671
(izone
Thing
p672
(dp673
g4
(I2
I5
tp674
sg6
I12
sbs(I7
I11
tp675
(izone
Thing
p676
(dp677
g4
(I0
I2
tp678
sg6
I6
sbs(I18
I1
tp679
(izone
Thing
p680
(dp681
g4
g63
sg6
I12
sbs(I32
I20
tp682
(izone
Thing
p683
(dp684
g4
g234
sg6
I6
sbs(I23
I2
tp685
(izone
Thing
p686
(dp687
g4
g63
sg6
I12
sbs(I33
I11
tp688
(izone
Thing
p689
(dp690
g4
(I0
I5
tp691
sg6
I23
sbs(I12
I3
tp692
(izone
Thing
p693
(dp694
g4
g440
sg6
I4
sbs(I36
I0
tp695
(izone
Thing
p696
(dp697
g4
(I1
I2
tp698
sg6
I6
sbs(I13
I2
tp699
(izone
Thing
p700
(dp701
g4
(I1
I1
tp702
sg6
I6
sbs(I0
I25
tp703
(izone
Thing
p704
(dp705
g4
g44
sg6
I12
sbs(I24
I6
tp706
(izone
Thing
p707
(dp708
g4
g5
sg6
I2
sbs(I38
I10
tp709
(izone
Thing
p710
(dp711
g4
(I2
I7
tp712
sg6
I3
sbs(I1
I4
tp713
(izone
Thing
p714
(dp715
g4
g59
sg6
I12
sbs(I28
I20
tp716
(izone
Thing
p717
(dp718
g4
(I1
I1
tp719
sg6
I6
sbs(I2
I3
tp720
(izone
Thing
p721
(dp722
g4
g59
sg6
I12
sbs(I3
I26
tp723
(izone
Thing
p724
(dp725
g4
(I1
I3
tp726
sg6
I12
sbs(I6
I5
tp727
(izone
Thing
p728
(dp729
g4
(I0
I2
tp730
sg6
I36
sbs(I30
I6
tp731
(izone
Thing
p732
(dp733
g4
g5
sg6
I2
sbs(I4
I29
tp734
(izone
Thing
p735
(dp736
g4
g44
sg6
I12
sbs(I7
I0
tp737
(izone
Thing
p738
(dp739
g4
(I3
I3
tp740
sg6
I12
sbs(I17
I21
tp741
(izone
Thing
p742
(dp743
g4
g234
sg6
I6
sbs(I20
I6
tp744
(izone
Thing
p745
(dp746
g4
g5
sg6
I2
sbs(I18
I18
tp747
(izone
Thing
p748
(dp749
g4
g612
sg6
I6
sbs(I10
I6
tp750
(izone
Thing
p751
(dp752
g4
(I7
I3
tp753
sg6
I2
sbs(I37
I14
tp754
(izone
Thing
p755
(dp756
g4
g36
sg6
I2
sbs(I38
I13
tp757
(izone
Thing
p758
(dp759
g4
g32
sg6
I3
sbs(I1
I29
tp760
(izone
Thing
p761
(dp762
g4
g44
sg6
I12
sbs(I25
I8
tp763
(izone
Thing
p764
(dp765
g4
g585
sg6
I3
sbs(I39
I8
tp766
(izone
Thing
p767
(dp768
g4
g48
sg6
I2
sbs(I2
I26
tp769
(izone
Thing
p770
(dp771
g4
g44
sg6
I12
sbs(I3
I3
tp772
(izone
Thing
p773
(dp774
g4
g59
sg6
I12
sbs(I27
I14
tp775
(izone
Thing
p776
(dp777
g4
g36
sg6
I2
sbs(I4
I4
tp778
(izone
Thing
p779
(dp780
g4
g145
sg6
I12
sbs(I29
I12
tp781
(izone
Thing
p782
(dp783
g4
g323
sg6
I3
sbs(I20
I13
tp784
(izone
Thing
p785
(dp786
g4
(I3
I19
tp787
sg6
I3
sbs(I18
I13
tp788
(izone
Thing
p789
(dp790
g4
g127
sg6
I6
sbs(I21
I0
tp791
(izone
Thing
p792
(dp793
g4
g63
sg6
I12
sbs(I32
I24
tp794
(izone
Thing
p795
(dp796
g4
g234
sg6
I6
sbs(I22
I15
tp797
(izone
Thing
p798
(dp799
g4
g331
sg6
I6
sbs(I23
I14
tp800
(izone
Thing
p801
(dp802
g4
g36
sg6
I2
sbs(I11
I12
tp803
(izone
Thing
p804
(dp805
g4
(I8
I3
tp806
sg6
I2
sbs(I35
I27
tp807
(izone
Thing
p808
(dp809
g4
(I0
I4
tp810
sg6
I12
sbs(I0
I23
tp811
(izone
Thing
p812
(dp813
g4
g44
sg6
I12
sbs(I14
I11
tp814
(izone
Thing
p815
(dp816
g4
g377
sg6
I6
sbs(I36
I28
tp817
(izone
Thing
p818
(dp819
g4
g44
sg6
I12
sbs(I1
I22
tp820
(izone
Thing
p821
(dp822
g4
g119
sg6
I12
sbs(I15
I2
tp823
(izone
Thing
p824
(dp825
g4
g335
sg6
I12
sbs(I26
I22
tp826
(izone
Thing
p827
(dp828
g4
g108
sg6
I23
sbs(I0
I13
tp829
(izone
Thing
p830
(dp831
g4
(I1
I2
tp832
sg6
I6
sbs(I1
I8
tp833
(izone
Thing
p834
(dp835
g4
g448
sg6
I6
sbs(I4
I3
tp836
(izone
Thing
p837
(dp838
g4
(I2
I4
tp839
sg6
I12
sbs(I28
I0
tp840
(izone
Thing
p841
(dp842
g4
g141
sg6
I12
sbs(I5
I2
tp843
(izone
Thing
p844
(dp845
g4
(I1
I5
tp846
sg6
I12
sbs(I16
I6
tp847
(izone
Thing
p848
(dp849
g4
g5
sg6
I2
sbs(I6
I9
tp850
(izone
Thing
p851
(dp852
g4
g410
sg6
I6
sbs(I20
I20
tp853
(izone
Thing
p854
(dp855
g4
g156
sg6
I6
sbs(I21
I9
tp856
(izone
Thing
p857
(dp858
g4
g323
sg6
I3
sbs(I22
I6
tp859
(izone
Thing
p860
(dp861
g4
g5
sg6
I2
sbs(I10
I8
tp862
(izone
Thing
p863
(dp864
g4
g25
sg6
I2
sbs(I34
I29
tp865
(izone
Thing
p866
(dp867
g4
g44
sg6
I12
sbs(I11
I5
tp868
(izone
Thing
p869
(dp870
g4
g440
sg6
I4
sbs(I35
I0
tp871
(izone
Thing
p872
(dp873
g4
(I3
I3
tp874
sg6
I12
sbs(I12
I6
tp875
(izone
Thing
p876
(dp877
g4
g5
sg6
I2
sbs(I36
I27
tp878
(izone
Thing
p879
(dp880
g4
g363
sg6
I12
sbs(I13
I7
tp881
(izone
Thing
p882
(dp883
g4
(I9
I5
tp884
sg6
I15
sbs(I37
I26
tp885
(izone
Thing
p886
(dp887
g4
g363
sg6
I12
sbs(I0
I4
tp888
(izone
Thing
p889
(dp890
g4
g658
sg6
I12
sbs(I24
I1
tp891
(izone
Thing
p892
(dp893
g4
g63
sg6
I12
sbs(I1
I1
tp894
(izone
Thing
p895
(dp896
g4
g59
sg6
I12
sbs(I2
I6
tp897
(izone
Thing
p898
(dp899
g4
(I2
I5
tp900
sg6
I12
sbs(I6
I0
tp901
(izone
Thing
p902
(dp903
g4
(I2
I3
tp904
sg6
I12
sbs(I19
I24
tp905
(izone
Thing
p906
(dp907
g4
g289
sg6
I6
sbs(I7
I5
tp908
(izone
Thing
p909
(dp910
g4
(I2
I0
tp911
sg6
I15
sbs(I20
I19
tp912
(izone
Thing
p913
(dp914
g4
g82
sg6
I6
sbs(I18
I25
tp915
(izone
Thing
p916
(dp917
g4
g156
sg6
I6
sbs(I32
I12
tp918
(izone
Thing
p919
(dp920
g4
(I15
I11
tp921
sg6
I3
sbs(I10
I29
tp922
(izone
Thing
p923
(dp924
g4
g52
sg6
I12
sbs(I34
I14
tp925
(izone
Thing
p926
(dp927
g4
g36
sg6
I2
sbs(I26
I24
tp928
(izone
Thing
p929
(dp930
g4
g108
sg6
I23
sbs(I0
I27
tp931
(izone
Thing
p932
(dp933
g4
g44
sg6
I12
sbs(I24
I8
tp934
(izone
Thing
p935
(dp936
g4
(I1
I10
tp937
sg6
I3
sbs(I38
I8
tp938
(izone
Thing
p939
(dp940
g4
g21
sg6
I3
sbs(I1
I26
tp941
(izone
Thing
p942
(dp943
g4
g44
sg6
I12
sbs(I39
I13
tp944
(izone
Thing
p945
(dp946
g4
g48
sg6
I2
sbs(I2
I1
tp947
(izone
Thing
p948
(dp949
g4
g59
sg6
I12
sbs(I26
I2
tp950
(izone
Thing
p951
(dp952
g4
g63
sg6
I12
sbs(I29
I23
tp953
(izone
Thing
p954
(dp955
g4
g156
sg6
I6
sbs(I3
I28
tp956
(izone
Thing
p957
(dp958
g4
g44
sg6
I12
sbs(I28
I12
tp959
(izone
Thing
p960
(dp961
g4
g323
sg6
I3
sbs(I6
I29
tp962
(izone
Thing
p963
(dp964
g4
g44
sg6
I12
sbs(I21
I27
tp965
(izone
Thing
p966
(dp967
g4
g289
sg6
I6
sbs(I19
I7
tp968
(izone
Thing
p969
(dp970
g4
(I25
I10
tp971
sg6
I2
sbs(I20
I0
tp972
(izone
Thing
p973
(dp974
g4
g63
sg6
I12
sbs(I8
I6
tp975
(izone
Thing
p976
(dp977
g4
g213
sg6
I12
sbs(I35
I14
tp978
(izone
Thing
p979
(dp980
g4
g36
sg6
I2
sbs(I9
I7
tp981
(izone
Thing
p982
(dp983
g4
g275
sg6
I6
sbs(I33
I2
tp984
(izone
Thing
p985
(dp986
g4
(I0
I2
tp987
sg6
I6
sbs(I10
I4
tp988
(izone
Thing
p989
(dp990
g4
g440
sg6
I4
sbs(I37
I12
tp991
(izone
Thing
p992
(dp993
g4
g32
sg6
I3
sbs(I24
I15
tp994
(izone
Thing
p995
(dp996
g4
(I1
I0
tp997
sg6
I6
sbs(I14
I6
tp998
(izone
Thing
p999
(dp1000
g4
g5
sg6
I2
sbs(I25
I14
tp1001
(izone
Thing
p1002
(dp1003
g4
g36
sg6
I2
sbs(I39
I10
tp1004
(izone
Thing
p1005
(dp1006
g4
g48
sg6
I2
sbs(I2
I24
tp1007
(izone
Thing
p1008
(dp1009
g4
g726
sg6
I12
sbs(I0
I8
tp1010
(izone
Thing
p1011
(dp1012
g4
g213
sg6
I12
sbs(I3
I5
tp1013
(izone
Thing
p1014
(dp1015
g4
g462
sg6
I12
sbs(I27
I0
tp1016
(izone
Thing
p1017
(dp1018
g4
g63
sg6
I12
sbs(I4
I6
tp1019
(izone
Thing
p1020
(dp1021
g4
g213
sg6
I12
sbs(I28
I11
tp1022
(izone
Thing
p1023
(dp1024
g4
g224
sg6
I3
sbs(I31
I14
tp1025
(izone
Thing
p1026
(dp1027
g4
g36
sg6
I2
sbs(I5
I7
tp1028
(izone
Thing
p1029
(dp1030
g4
(I1
I2
tp1031
sg6
I6
sbs(I16
I1
tp1032
(izone
Thing
p1033
(dp1034
g4
(I0
I4
tp1035
sg6
I12
sbs(I19
I12
tp1036
(izone
Thing
p1037
(dp1038
g4
(I9
I3
tp1039
sg6
I2
sbs(I17
I12
tp1040
(izone
Thing
p1041
(dp1042
g4
g806
sg6
I2
sbs(I20
I15
tp1043
(izone
Thing
p1044
(dp1045
g4
g997
sg6
I6
sbs(I21
I14
tp1046
(izone
Thing
p1047
(dp1048
g4
g36
sg6
I2
sbs(I32
I26
tp1049
(izone
Thing
p1050
(dp1051
g4
g234
sg6
I6
sbs(I9
I8
tp1052
(izone
Thing
p1053
(dp1054
g4
g97
sg6
I15
sbs(I23
I8
tp1055
(izone
Thing
p1056
(dp1057
g4
g937
sg6
I3
sbs(I34
I0
tp1058
(izone
Thing
p1059
(dp1060
g4
g698
sg6
I6
sbs(I35
I29
tp1061
(izone
Thing
p1062
(dp1063
g4
g44
sg6
I12
sbs(I24
I22
tp1064
(izone
Thing
p1065
(dp1066
g4
g108
sg6
I23
sbs(I14
I9
tp1067
(izone
Thing
p1068
(dp1069
g4
(I1
I15
tp1070
sg6
I3
sbs(I12
I9
tp1071
(izone
Thing
p1072
(dp1073
g4
(I9
I16
tp1074
sg6
I3
sbs(I1
I20
tp1075
(izone
Thing
p1076
(dp1077
g4
g217
sg6
I12
sbs(I25
I23
tp1078
(izone
Thing
p1079
(dp1080
g4
g108
sg6
I23
sbs(I15
I12
tp1081
(izone
Thing
p1082
(dp1083
g4
(I7
I5
tp1084
sg6
I2
sbs(I13
I12
tp1085
(izone
Thing
p1086
(dp1087
g4
(I9
I5
tp1088
sg6
I2
sbs(I38
I28
tp1089
(izone
Thing
p1090
(dp1091
g4
g44
sg6
I12
sbs(I3
I10
tp1092
(izone
Thing
p1093
(dp1094
g4
g279
sg6
I6
sbs(I1
I14
tp1095
(izone
Thing
p1096
(dp1097
g4
(I1
I1
tp1098
sg6
I6
sbs(I39
I25
tp1099
(izone
Thing
p1100
(dp1101
g4
(I2
I3
tp1102
sg6
I12
sbs(I28
I2
tp1103
(izone
Thing
p1104
(dp1105
g4
g141
sg6
I12
sbs(I2
I13
tp1106
(izone
Thing
p1107
(dp1108
g4
g832
sg6
I6
sbs(I5
I0
tp1109
(izone
Thing
p1110
(dp1111
g4
(I1
I3
tp1112
sg6
I12
sbs(I29
I3
tp1113
(izone
Thing
p1114
(dp1115
g4
g335
sg6
I12
sbs(I20
I22
tp1116
(izone
Thing
p1117
(dp1118
g4
g289
sg6
I6
sbs(I18
I2
tp1119
(izone
Thing
p1120
(dp1121
g4
g63
sg6
I12
sbs(I21
I23
tp1122
(izone
Thing
p1123
(dp1124
g4
(I13
I8
tp1125
sg6
I36
sbs(I23
I1
tp1126
(izone
Thing
p1127
(dp1128
g4
g63
sg6
I12
sbs(I11
I7
tp1129
(izone
Thing
p1130
(dp1131
g4
(I1
I19
tp1132
sg6
I3
sbs(I9
I27
tp1133
(izone
Thing
p1134
(dp1135
g4
g52
sg6
I12
sbs(I14
I16
tp1136
(izone
Thing
p1137
(dp1138
g4
(I1
I21
tp1139
sg6
I3
sbs(I25
I24
tp1140
(izone
Thing
p1141
(dp1142
g4
g108
sg6
I23
sbs(I37
I24
tp1143
(izone
Thing
p1144
(dp1145
g4
(I4
I3
tp1146
sg6
I19
sbs(I0
I6
tp1147
(izone
Thing
p1148
(dp1149
g4
(I0
I5
tp1150
sg6
I12
sbs(I24
I3
tp1151
(izone
Thing
p1152
(dp1153
g4
g198
sg6
I12
sbs(I1
I7
tp1154
(izone
Thing
p1155
(dp1156
g4
(I1
I5
tp1157
sg6
I12
sbs(I25
I2
tp1158
(izone
Thing
p1159
(dp1160
g4
g63
sg6
I12
sbs(I2
I4
tp1161
(izone
Thing
p1162
(dp1163
g4
g59
sg6
I12
sbs(I3
I25
tp1164
(izone
Thing
p1165
(dp1166
g4
g726
sg6
I12
sbs(I6
I6
tp1167
(izone
Thing
p1168
(dp1169
g4
(I7
I2
tp1170
sg6
I36
sbs(I19
I0
tp1171
(izone
Thing
p1172
(dp1173
g4
g63
sg6
I12
sbs(I7
I29
tp1174
(izone
Thing
p1175
(dp1176
g4
(I2
I4
tp1177
sg6
I12
sbs(I32
I14
tp1178
(izone
Thing
p1179
(dp1180
g4
g36
sg6
I2
sbs(I36
I12
tp1181
(izone
Thing
p1182
(dp1183
g4
g32
sg6
I3
sbs(I10
I27
tp1184
(izone
Thing
p1185
(dp1186
g4
g52
sg6
I12
sbs(I0
I29
tp1187
(izone
Thing
p1188
(dp1189
g4
g44
sg6
I12
sbs(I38
I14
tp1190
(izone
Thing
p1191
(dp1192
g4
g36
sg6
I2
sbs(I1
I24
tp1193
(izone
Thing
p1194
(dp1195
g4
g44
sg6
I12
sbs(I39
I15
tp1196
(izone
Thing
p1197
(dp1198
g4
g331
sg6
I6
sbs(I26
I0
tp1199
(izone
Thing
p1200
(dp1201
g4
g63
sg6
I12
sbs(I27
I13
tp1202
(izone
Thing
p1203
(dp1204
g4
(I0
I7
tp1205
sg6
I3
sbs(I4
I25
tp1206
(izone
Thing
p1207
(dp1208
g4
g525
sg6
I12
sbs(I28
I14
tp1209
(izone
Thing
p1210
(dp1211
g4
g36
sg6
I2
sbs(I5
I28
tp1212
(izone
Thing
p1213
(dp1214
g4
g10
sg6
I12
sbs(I29
I15
tp1215
(izone
Thing
p1216
(dp1217
g4
g997
sg6
I6
sbs(I16
I12
tp1218
(izone
Thing
p1219
(dp1220
g4
g806
sg6
I2
sbs(I21
I25
tp1221
(izone
Thing
p1222
(dp1223
g4
g289
sg6
I6
sbs(I20
I2
tp1224
(izone
Thing
p1225
(dp1226
g4
g63
sg6
I12
sbs(I18
I14
tp1227
(izone
Thing
p1228
(dp1229
g4
g82
sg6
I6
sbs(I21
I3
tp1230
(izone
Thing
p1231
(dp1232
g4
g198
sg6
I12
sbs(I22
I8
tp1233
(izone
Thing
p1234
(dp1235
g4
g937
sg6
I3
sbs(I9
I5
tp1236
(izone
Thing
p1237
(dp1238
g4
g17
sg6
I6
sbs(I11
I11
tp1239
(izone
Thing
p1240
(dp1241
g4
(I13
I5
tp1242
sg6
I2
sbs(I0
I20
tp1243
(izone
Thing
p1244
(dp1245
g4
(I1
I3
tp1246
sg6
I12
sbs(I12
I12
tp1247
(izone
Thing
p1248
(dp1249
g4
(I8
I3
tp1250
sg6
I2
sbs(I25
I12
tp1251
(izone
Thing
p1252
(dp1253
g4
g323
sg6
I3
sbs(I15
I1
tp1254
(izone
Thing
p1255
(dp1256
g4
g74
sg6
I12
sbs(I2
I22
tp1257
(izone
Thing
p1258
(dp1259
g4
g217
sg6
I12
sbs(I38
I27
tp1260
(izone
Thing
p1261
(dp1262
g4
g44
sg6
I12
sbs(I3
I7
tp1263
(izone
Thing
p1264
(dp1265
g4
(I9
I4
tp1266
sg6
I4
sbs(I27
I2
tp1267
(izone
Thing
p1268
(dp1269
g4
g63
sg6
I12
sbs(I30
I13
tp1270
(izone
Thing
p1271
(dp1272
g4
g224
sg6
I3
sbs(I4
I0
tp1273
(izone
Thing
p1274
(dp1275
g4
g194
sg6
I12
sbs(I28
I5
tp1276
(izone
Thing
p1277
(dp1278
g4
g40
sg6
I12
sbs(I31
I8
tp1279
(izone
Thing
p1280
(dp1281
g4
g427
sg6
I3
sbs(I29
I8
tp1282
(izone
Thing
p1283
(dp1284
g4
g585
sg6
I3
sbs(I16
I3
tp1285
(izone
Thing
p1286
(dp1287
g4
(I0
I5
tp1288
sg6
I12
sbs(I19
I14
tp1289
(izone
Thing
p1290
(dp1291
g4
(I7
I5
tp1292
sg6
I2
sbs(I17
I2
tp1293
(izone
Thing
p1294
(dp1295
g4
g1035
sg6
I12
sbs(I20
I9
tp1296
(izone
Thing
p1297
(dp1298
g4
g323
sg6
I3
sbs(I21
I12
tp1299
(izone
Thing
p1300
(dp1301
g4
g323
sg6
I3
sbs(I22
I3
tp1302
(izone
Thing
p1303
(dp1304
g4
g198
sg6
I12
sbs(I10
I13
tp1305
(izone
Thing
p1306
(dp1307
g4
g536
sg6
I6
sbs(I24
I24
tp1308
(izone
Thing
p1309
(dp1310
g4
g108
sg6
I23
sbs(I12
I11
tp1311
(izone
Thing
p1312
(dp1313
g4
g377
sg6
I6
sbs(I25
I21
tp1314
(izone
Thing
p1315
(dp1316
g4
g108
sg6
I23
sbs(I13
I10
tp1317
(izone
Thing
p1318
(dp1319
g4
(I0
I16
tp1320
sg6
I3
sbs(I37
I29
tp1321
(izone
Thing
p1322
(dp1323
g4
g44
sg6
I12
sbs(I0
I1
tp1324
(izone
Thing
p1325
(dp1326
g4
g658
sg6
I12
sbs(I1
I12
tp1327
(izone
Thing
p1328
(dp1329
g4
g832
sg6
I6
sbs(I39
I27
tp1330
(izone
Thing
p1331
(dp1332
g4
g44
sg6
I12
sbs(I2
I11
tp1333
(izone
Thing
p1334
(dp1335
g4
(I1
I1
tp1336
sg6
I6
sbs(I29
I1
tp1337
(izone
Thing
p1338
(dp1339
g4
g335
sg6
I12
sbs(I18
I0
tp1340
(izone
Thing
p1341
(dp1342
g4
g63
sg6
I12
sbs(I23
I3
tp1343
(izone
Thing
p1344
(dp1345
g4
g198
sg6
I12
sbs(I34
I25
tp1346
(izone
Thing
p1347
(dp1348
g4
g52
sg6
I12
sbs(I8
I28
tp1349
(izone
Thing
p1350
(dp1351
g4
g217
sg6
I12
sbs(I12
I2
tp1352
(izone
Thing
p1353
(dp1354
g4
g359
sg6
I12
sbs(I15
I23
tp1355
(izone
Thing
p1356
(dp1357
g4
g289
sg6
I6
sbs(I37
I6
tp1358
(izone
Thing
p1359
(dp1360
g4
g5
sg6
I2
sbs(I0
I24
tp1361
(izone
Thing
p1362
(dp1363
g4
g44
sg6
I12
sbs(I1
I5
tp1364
(izone
Thing
p1365
(dp1366
g4
(I1
I4
tp1367
sg6
I12
sbs(I25
I0
tp1368
(izone
Thing
p1369
(dp1370
g4
g63
sg6
I12
sbs(I2
I2
tp1371
(izone
Thing
p1372
(dp1373
g4
g59
sg6
I12
sbs(I29
I26
tp1374
(izone
Thing
p1375
(dp1376
g4
g493
sg6
I6
sbs(I3
I27
tp1377
(izone
Thing
p1378
(dp1379
g4
g44
sg6
I12
sbs(I6
I4
tp1380
(izone
Thing
p1381
(dp1382
g4
g213
sg6
I12
sbs(I30
I1
tp1383
(izone
Thing
p1384
(dp1385
g4
g206
sg6
I6
sbs(I4
I28
tp1386
(izone
Thing
p1387
(dp1388
g4
g44
sg6
I12
sbs(I7
I1
tp1389
(izone
Thing
p1390
(dp1391
g4
(I0
I2
tp1392
sg6
I6
sbs(I19
I2
tp1393
(izone
Thing
p1394
(dp1395
g4
g63
sg6
I12
sbs(I8
I3
tp1396
(izone
Thing
p1397
(dp1398
g4
(I1
I0
tp1399
sg6
I6
sbs(I33
I13
tp1400
(izone
Thing
p1401
(dp1402
g4
(I4
I11
tp1403
sg6
I23
sbs(I36
I14
tp1404
(izone
Thing
p1405
(dp1406
g4
g36
sg6
I2
sbs(I37
I15
tp1407
(izone
Thing
p1408
(dp1409
g4
g997
sg6
I6
sbs(I14
I3
tp1410
(izone
Thing
p1411
(dp1412
g4
g40
sg6
I12
sbs(I38
I12
tp1413
(izone
Thing
p1414
(dp1415
g4
g32
sg6
I3
sbs(I36
I20
tp1416
(izone
Thing
p1417
(dp1418
g4
g289
sg6
I6
sbs(I25
I9
tp1419
(izone
Thing
p1420
(dp1421
g4
g323
sg6
I3
sbs(I39
I9
tp1422
(izone
Thing
p1423
(dp1424
g4
g48
sg6
I2
sbs(I2
I29
tp1425
(izone
Thing
p1426
(dp1427
g4
g44
sg6
I12
sbs(I26
I14
tp1428
(izone
Thing
p1429
(dp1430
g4
g36
sg6
I2
sbs(I3
I0
tp1431
(izone
Thing
p1432
(dp1433
g4
g194
sg6
I12
sbs(I30
I8
tp1434
(izone
Thing
p1435
(dp1436
g4
g427
sg6
I3
sbs(I4
I27
tp1437
(izone
Thing
p1438
(dp1439
g4
g10
sg6
I12
sbs(I28
I8
tp1440
(izone
Thing
p1441
(dp1442
g4
g585
sg6
I3
sbs(I19
I11
tp1443
(izone
Thing
p1444
(dp1445
g4
(I12
I3
tp1446
sg6
I2
sbs(I18
I12
tp1447
(izone
Thing
p1448
(dp1449
g4
g806
sg6
I2
sbs(I21
I1
tp1450
(izone
Thing
p1451
(dp1452
g4
g63
sg6
I12
sbs(I22
I14
tp1453
(izone
Thing
p1454
(dp1455
g4
g36
sg6
I2
sbs(I33
I6
tp1456
(izone
Thing
p1457
(dp1458
g4
g5
sg6
I2
sbs(I23
I15
tp1459
(izone
Thing
p1460
(dp1461
g4
g89
sg6
I6
sbs(I37
I8
tp1462
(izone
Thing
p1463
(dp1464
g4
g21
sg6
I3
sbs(I0
I22
tp1465
(izone
Thing
p1466
(dp1467
g4
(I0
I4
tp1468
sg6
I12
sbs(I14
I10
tp1469
(izone
Thing
p1470
(dp1471
g4
(I1
I16
tp1472
sg6
I3
sbs(I38
I7
tp1473
(izone
Thing
p1474
(dp1475
g4
(I2
I19
tp1476
sg6
I3
sbs(I1
I23
tp1477
(izone
Thing
p1478
(dp1479
g4
(I1
I3
tp1480
sg6
I12
sbs(I39
I6
tp1481
(izone
Thing
p1482
(dp1483
g4
(I9
I3
tp1484
sg6
I2
sbs(I26
I9
tp1485
(izone
Thing
p1486
(dp1487
g4
g323
sg6
I3
sbs(I38
I25
tp1488
(izone
Thing
p1489
(dp1490
g4
g363
sg6
I12
sbs(I39
I28
tp1491
(izone
Thing
p1492
(dp1493
g4
g44
sg6
I12
sbs(I4
I2
tp1494
(izone
Thing
p1495
(dp1496
g4
(I2
I4
tp1497
sg6
I12
sbs(I2
I14
tp1498
(izone
Thing
p1499
(dp1500
g4
(I1
I2
tp1501
sg6
I6
sbs(I5
I3
tp1502
(izone
Thing
p1503
(dp1504
g4
(I7
I4
tp1505
sg6
I25
sbs(I29
I6
tp1506
(izone
Thing
p1507
(dp1508
g4
g5
sg6
I2
sbs(I17
I0
tp1509
(izone
Thing
p1510
(dp1511
g4
g63
sg6
I12
sbs(I21
I10
tp1512
(izone
Thing
p1513
(dp1514
g4
(I3
I12
tp1515
sg6
I13
sbs(I22
I1
tp1516
(izone
Thing
p1517
(dp1518
g4
g63
sg6
I12
sbs(I23
I4
tp1519
(izone
Thing
p1520
(dp1521
g4
g40
sg6
I12
sbs(I10
I11
tp1522
(izone
Thing
p1523
(dp1524
g4
(I7
I4
tp1525
sg6
I2
sbs(I34
I28
tp1526
(izone
Thing
p1527
(dp1528
g4
g363
sg6
I12
sbs(I35
I1
tp1529
(izone
Thing
p1530
(dp1531
g4
g987
sg6
I6
sbs(I12
I5
tp1532
(izone
Thing
p1533
(dp1534
g4
g440
sg6
I4
sbs(I36
I26
tp1535
(izone
Thing
p1536
(dp1537
g4
g183
sg6
I12
sbs(I15
I8
tp1538
(izone
Thing
p1539
(dp1540
g4
(I2
I14
tp1541
sg6
I3
sbs(I13
I8
tp1542
(izone
Thing
p1543
(dp1544
g4
(I0
I14
tp1545
sg6
I3
sbs(I37
I27
tp1546
(izone
Thing
p1547
(dp1548
g4
g44
sg6
I12
sbs(I0
I3
tp1549
(izone
Thing
p1550
(dp1551
g4
g658
sg6
I12
sbs(I24
I0
tp1552
(izone
Thing
p1553
(dp1554
g4
g63
sg6
I12
sbs(I1
I2
tp1555
(izone
Thing
p1556
(dp1557
g4
g59
sg6
I12
sbs(I39
I21
tp1558
(izone
Thing
p1559
(dp1560
g4
g52
sg6
I12
sbs(I6
I3
tp1561
(izone
Thing
p1562
(dp1563
g4
(I1
I2
tp1564
sg6
I6
sbs(I30
I28
tp1565
(izone
Thing
p1566
(dp1567
g4
g52
sg6
I12
sbs(I19
I25
tp1568
(izone
Thing
p1569
(dp1570
g4
g289
sg6
I6
sbs(I7
I10
tp1571
(izone
Thing
p1572
(dp1573
g4
g410
sg6
I6
sbs(I22
I24
tp1574
(izone
Thing
p1575
(dp1576
g4
g156
sg6
I6
sbs(I18
I24
tp1577
(izone
Thing
p1578
(dp1579
g4
(I1
I2
tp1580
sg6
I6
sbs(I32
I11
tp1581
(izone
Thing
p1582
(dp1583
g4
(I1
I7
tp1584
sg6
I3
sbs(I35
I6
tp1585
(izone
Thing
p1586
(dp1587
g4
g5
sg6
I2
sbs(I33
I10
tp1588
(izone
Thing
p1589
(dp1590
g4
(I2
I7
tp1591
sg6
I3
sbs(I0
I26
tp1592
(izone
Thing
p1593
(dp1594
g4
g44
sg6
I12
sbs(I1
I27
tp1595
(izone
Thing
p1596
(dp1597
g4
g44
sg6
I12
sbs(I25
I6
tp1598
(izone
Thing
p1599
(dp1600
g4
(I8
I3
tp1601
sg6
I2
sbs(I2
I0
tp1602
(izone
Thing
p1603
(dp1604
g4
g194
sg6
I12
sbs(I3
I29
tp1605
(izone
Thing
p1606
(dp1607
g4
g44
sg6
I12
sbs(I27
I8
tp1608
(izone
Thing
p1609
(dp1610
g4
g585
sg6
I3
sbs.