(dp0
(I12
I2
tp1
(izone
Thing
p2
(dp3
S'tile'
p4
(I5
I3
tp5
sS'sheet'
p6
I7
sbs(I0
I0
tp7
(izone
Thing
p8
(dp9
g4
(I0
I0
tp10
sg6
I1
sbs(I10
I4
tp11
(izone
Thing
p12
(dp13
g4
g5
sg6
I7
sbs(I11
I5
tp14
(izone
Thing
p15
(dp16
g4
g5
sg6
I7
sbs(I13
I4
tp17
(izone
Thing
p18
(dp19
g4
g5
sg6
I7
sbs(I12
I5
tp20
(izone
Thing
p21
(dp22
g4
g5
sg6
I7
sbs(I12
I3
tp23
(izone
Thing
p24
(dp25
g4
g5
sg6
I7
sbs.