(dp0
(I5
I9
tp1
(I3
I2
tp2
s(I5
I7
tp3
g2
s(I9
I1
tp4
(I3
I5
tp5
s(I6
I6
tp6
(I3
I7
tp7
s(I5
I6
tp8
g2
s(I8
I0
tp9
(I4
I0
tp10
s(I0
I7
tp11
(I0
I5
tp12
s(I8
I9
tp13
(I1
I3
tp14
s(I0
I0
tp15
(I4
I0
tp16
s(I1
I6
tp17
g12
s(I5
I1
tp18
g10
s(I0
I3
tp19
(I2
I5
tp20
s(I2
I5
tp21
g2
s(I5
I8
tp22
g2
s(I1
I2
tp23
g12
s(I9
I0
tp24
g5
s(I4
I9
tp25
g2
s(I3
I3
tp26
g2
s(I2
I9
tp27
g2
s(I8
I1
tp28
(I4
I0
tp29
s(I1
I5
tp30
g2
s(I0
I4
tp31
g2
s(I1
I3
tp32
g10
s(I3
I5
tp33
g10
s(I4
I1
tp34
g2
s(I9
I7
tp35
(I2
I3
tp36
s(I6
I4
tp37
g10
s(I3
I2
tp38
g2
s(I2
I6
tp39
g2
s(I8
I2
tp40
g10
s(I7
I1
tp41
g2
s(I4
I5
tp42
g5
s(I2
I2
tp43
g12
s(I6
I0
tp44
g10
s(I1
I4
tp45
g12
s(I5
I5
tp46
g10
s(I3
I9
tp47
g2
s(I0
I5
tp48
g2
s(I1
I9
tp49
g2
s(I8
I7
tp50
(I1
I2
tp51
s(I4
I2
tp52
g16
s(I1
I0
tp53
g16
s(I9
I6
tp54
(I1
I1
tp55
s(I7
I9
tp56
(I2
I1
tp57
s(I0
I1
tp58
g16
s(I7
I0
tp59
g10
s(I7
I3
tp60
g10
s(I4
I6
tp61
g10
s(I5
I2
tp62
g12
s(I6
I1
tp63
g2
s(I3
I1
tp64
g16
s(I9
I9
tp65
(I2
I0
tp66
s(I2
I4
tp67
g10
s(I2
I0
tp68
g16
s(I1
I7
tp69
g12
s(I0
I9
tp70
g2
s(I3
I4
tp71
g2
s(I0
I2
tp72
g16
s.