(dp0
(I7
I3
tp1
(I8
I7
tp2
s(I6
I9
tp3
(I7
I17
tp4
s(I0
I7
tp5
(I8
I7
tp6
s(I1
I6
tp7
(I8
I7
tp8
s(I3
I7
tp9
(I5
I4
tp10
s(I2
I5
tp11
(I3
I4
tp12
s(I8
I5
tp13
(I8
I15
tp14
s(I5
I8
tp15
(I10
I17
tp16
s(I4
I0
tp17
(I8
I7
tp18
s(I9
I0
tp19
(I15
I19
tp20
s(I6
I7
tp21
(I7
I16
tp22
s(I5
I5
tp23
(I8
I7
tp24
s(I7
I6
tp25
(I8
I16
tp26
s(I0
I4
tp27
(I8
I7
tp28
s(I1
I1
tp29
(I8
I7
tp30
s(I3
I2
tp31
(I8
I7
tp32
s(I2
I6
tp33
(I3
I4
tp34
s(I8
I2
tp35
(I8
I6
tp36
s(I4
I5
tp37
(I8
I7
tp38
s(I9
I3
tp39
(I8
I7
tp40
s(I6
I0
tp41
(I8
I7
tp42
s(I7
I5
tp43
(I8
I15
tp44
s(I0
I1
tp45
(I8
I7
tp46
s(I3
I1
tp47
(I8
I7
tp48
s(I9
I9
tp49
(I9
I17
tp50
s(I7
I8
tp51
(I8
I16
tp52
s(I2
I1
tp53
(I3
I4
tp54
s(I8
I9
tp55
(I8
I17
tp56
s(I9
I4
tp57
(I8
I7
tp58
s(I5
I1
tp59
(I8
I7
tp60
s(I7
I2
tp61
(I8
I7
tp62
s(I1
I5
tp63
(I8
I7
tp64
s(I3
I6
tp65
(I8
I7
tp66
s(I2
I2
tp67
(I3
I4
tp68
s(I8
I6
tp69
(I8
I16
tp70
s(I4
I1
tp71
(I8
I7
tp72
s(I9
I7
tp73
(I9
I16
tp74
s(I6
I4
tp75
(I8
I7
tp76
s(I5
I4
tp77
(I8
I7
tp78
s(I7
I1
tp79
(I9
I7
tp80
s(I0
I5
tp81
(I8
I7
tp82
s(I1
I0
tp83
(I8
I7
tp84
s(I0
I8
tp85
(I8
I7
tp86
s(I3
I5
tp87
(I8
I7
tp88
s(I2
I7
tp89
(I0
I5
tp90
s(I8
I3
tp91
(I8
I7
tp92
s(I4
I6
tp93
(I8
I7
tp94
s(I9
I2
tp95
(I8
I6
tp96
s(I6
I1
tp97
(I8
I7
tp98
s(I5
I7
tp99
(I9
I16
tp100
s(I7
I4
tp101
(I8
I7
tp102
s(I0
I2
tp103
(I8
I7
tp104
s(I1
I3
tp105
(I8
I7
tp106
s(I4
I8
tp107
(I8
I7
tp108
s(I3
I0
tp109
(I8
I7
tp110
s(I2
I8
tp111
(I8
I7
tp112
s(I9
I8
tp113
(I9
I16
tp114
s(I8
I0
tp115
(I14
I19
tp116
s(I6
I2
tp117
(I8
I7
tp118
s(I5
I0
tp119
(I8
I7
tp120
s(I1
I4
tp121
(I8
I7
tp122
s(I3
I9
tp123
(I8
I7
tp124
s(I2
I3
tp125
(I3
I4
tp126
s(I1
I9
tp127
(I8
I7
tp128
s(I8
I7
tp129
(I8
I16
tp130
s(I4
I2
tp131
(I8
I7
tp132
s(I9
I6
tp133
(I9
I16
tp134
s(I6
I5
tp135
(I7
I15
tp136
s(I5
I3
tp137
(I8
I7
tp138
s(I7
I0
tp139
(I9
I7
tp140
s(I6
I8
tp141
(I7
I16
tp142
s(I0
I6
tp143
(I8
I7
tp144
s(I1
I7
tp145
(I8
I7
tp146
s(I0
I9
tp147
(I8
I7
tp148
s(I3
I4
tp149
(I8
I7
tp150
s(I2
I4
tp151
(I3
I4
tp152
s(I8
I4
tp153
(I8
I7
tp154
s(I5
I9
tp155
(I8
I7
tp156
s(I4
I7
tp157
(I5
I4
tp158
s(I9
I1
tp159
(I15
I20
tp160
s(I6
I6
tp161
(I7
I16
tp162
s(I5
I6
tp163
(I10
I15
tp164
s(I7
I7
tp165
(I8
I16
tp166
s(I0
I3
tp167
(I8
I7
tp168
s(I1
I2
tp169
(I8
I7
tp170
s(I4
I9
tp171
(I8
I7
tp172
s(I3
I3
tp173
(I8
I7
tp174
s(I2
I9
tp175
(I8
I7
tp176
s(I8
I1
tp177
(I14
I20
tp178
s(I4
I4
tp179
(I8
I7
tp180
s(I6
I3
tp181
(I8
I7
tp182
s(I0
I0
tp183
(I8
I7
tp184
s(I7
I9
tp185
(I8
I17
tp186
s(I3
I8
tp187
(I8
I7
tp188
s(I2
I0
tp189
(I3
I4
tp190
s(I1
I8
tp191
(I8
I7
tp192
s(I8
I8
tp193
(I8
I16
tp194
s(I4
I3
tp195
(I8
I7
tp196
s(I9
I5
tp197
(I9
I15
tp198
s(I5
I2
tp199
(I8
I7
tp200
s.