(lp0
(dp1
(I9
I26
tp2
(i__main__
Link
p3
(dp4
S'chapter'
p5
I0
sS'cat_pixel_selected'
p6
(I248
I173
tp7
sS'brush_size'
p8
I4
sS'tile_offset'
p9
(I0
I0
tp10
sS'page_number'
p11
I0
sS'map_pixel_selected'
p12
(I134
I368
tp13
sbs(I7
I3
tp14
(i__main__
Link
p15
(dp16
g5
I0
sg6
(I141
I116
tp17
sg8
I4
sg9
(I0
I0
tp18
sg11
I0
sg12
(I84
I77
tp19
sbs(I20
I25
tp20
(i__main__
Link
p21
(dp22
g5
I0
sg6
(I245
I9
tp23
sg8
I2
sg9
(I0
I0
tp24
sg11
I0
sg12
(I313
I411
tp25
sbs(I36
I6
tp26
(i__main__
Link
p27
(dp28
g5
I0
sg6
g7
sg8
I4
sg9
g10
sg11
I0
sg12
(I576
I55
tp29
sbs(I38
I1
tp30
g27
s(I7
I25
tp31
g3
s(I39
I4
tp32
g27
s(I13
I17
tp33
(i__main__
Link
p34
(dp35
g5
I0
sg6
(I247
I120
tp36
sg8
I1
sg9
(I0
I0
tp37
sg11
I0
sg12
(I210
I279
tp38
sbs(I38
I27
tp39
(i__main__
Link
p40
(dp41
g5
I0
sg6
g23
sg8
I2
sg9
g24
sg11
I0
sg12
(I616
I452
tp42
sbs(I3
I7
tp43
g15
s(I2
I5
tp44
g15
s(I8
I5
tp45
g15
s(I33
I3
tp46
g27
s(I6
I7
tp47
g15
s(I5
I5
tp48
g15
s(I35
I0
tp49
g27
s(I9
I21
tp50
g3
s(I7
I6
tp51
g15
s(I11
I22
tp52
g3
s(I8
I26
tp53
g3
s(I6
I25
tp54
g3
s(I38
I2
tp55
g27
s(I3
I2
tp56
g15
s(I2
I6
tp57
g15
s(I8
I2
tp58
g15
s(I4
I5
tp59
g15
s(I8
I21
tp60
g3
s(I5
I24
tp61
g3
s(I19
I24
tp62
g21
s(I10
I24
tp63
g3
s(I9
I16
tp64
(i__main__
Link
p65
(dp66
g5
I0
sg6
g36
sg8
I1
sg9
g37
sg11
I0
sg12
(I146
I265
tp67
sbs(I7
I5
tp68
g15
s(I6
I23
tp69
g3
s(I5
I21
tp70
g3
s(I37
I0
tp71
g27
s(I11
I21
tp72
g3
s(I10
I23
tp73
g3
s(I7
I22
tp74
g3
s(I6
I26
tp75
g3
s(I13
I10
tp76
(i__main__
Link
p77
(dp78
g5
I0
sg6
g36
sg8
I1
sg9
g37
sg11
I0
sg12
(I217
I168
tp79
sbs(I37
I29
tp80
g40
s(I18
I25
tp81
g21
s(I39
I27
tp82
g40
s(I3
I1
tp83
g15
s(I33
I4
tp84
g27
s(I32
I12
tp85
(i__main__
Link
p86
(dp87
g5
I0
sg6
(I244
I199
tp88
sg8
I1
sg9
(I0
I0
tp89
sg11
I0
sg12
(I526
I198
tp90
sbs(I34
I3
tp91
g27
s(I29
I14
tp92
(i__main__
Link
p93
(dp94
g5
I0
sg6
(I261
I80
tp95
sg8
I1
sS'is_saving'
p96
I01
sg9
(I0
I0
tp97
sg11
I0
sg12
(I471
I228
tp98
sbs(I36
I2
tp99
g27
s(I24
I21
tp100
(i__main__
Link
p101
(dp102
g5
I0
sg6
(I250
I172
tp103
sg8
I1
sg96
I01
sg9
(I0
I0
tp104
sg11
I0
sg12
(I389
I344
tp105
sbs(I38
I5
tp106
g27
s(I37
I3
tp107
g27
s(I33
I2
tp108
g27
s(I7
I21
tp109
g3
s(I39
I0
tp110
g27
s(I2
I1
tp111
g15
s(I18
I26
tp112
g21
s(I5
I1
tp113
g15
s(I35
I4
tp114
g27
s(I34
I4
tp115
g27
s(I7
I2
tp116
g15
s(I20
I26
tp117
g21
s(I38
I6
tp118
g27
s(I37
I6
tp119
g27
s(I7
I24
tp120
g3
s(I21
I8
tp121
(i__main__
Link
p122
(dp123
g5
I0
sg6
g95
sg8
I1
sg96
I01
sg9
g97
sg11
I0
sg12
(I345
I130
tp124
sbs(I27
I16
tp125
(i__main__
Link
p126
(dp127
g5
I0
sg6
(I430
I164
tp128
sg8
I1
sg9
(I0
I0
tp129
sg11
I0
sg12
(I439
I271
tp130
sbs(I3
I6
tp131
g15
s(I2
I2
tp132
g15
s(I8
I6
tp133
g15
s(I39
I29
tp134
g40
s(I4
I1
tp135
g15
s(I8
I25
tp136
g3
s(I6
I4
tp137
g15
s(I5
I4
tp138
g15
s(I35
I3
tp139
g27
s(I9
I20
tp140
g3
s(I7
I1
tp141
g15
s(I36
I4
tp142
g27
s(I38
I3
tp143
g27
s(I11
I26
tp144
g3
s(I8
I24
tp145
g3
s(I13
I19
tp146
(i__main__
Link
p147
(dp148
g5
I0
sg6
g36
sg8
I1
sg9
g37
sg11
I0
sg12
(I214
I317
tp149
sbs(I25
I3
tp150
(i__main__
Link
p151
(dp152
g5
I0
sg6
g95
sg8
I1
sg96
I00
sg9
g97
sg11
I0
sg12
(I408
I60
tp153
sbs(I3
I5
tp154
g15
s(I2
I7
tp155
g15
s(I8
I3
tp156
g15
s(I4
I6
tp157
g15
s(I8
I22
tp158
g3
s(I6
I1
tp159
g15
s(I5
I7
tp160
g15
s(I10
I25
tp161
g3
s(I9
I23
tp162
g3
s(I7
I4
tp163
g15
s(I6
I20
tp164
g3
s(I5
I20
tp165
g3
s(I30
I19
tp166
(i__main__
Link
p167
(dp168
g5
I0
sg6
g95
sg8
I1
sg96
I01
sg9
g97
sg11
I0
sg12
(I487
I304
tp169
sbs(I11
I20
tp170
g3
s(I10
I20
tp171
g3
s(I9
I25
tp172
g3
s(I37
I28
tp173
g40
s(I11
I25
tp174
g3
s(I26
I14
tp175
(i__main__
Link
p176
(dp177
g5
I0
sg6
(I445
I139
tp178
sg8
I1
sg96
I01
sg9
(I0
I0
tp179
sg11
I0
sg12
(I419
I235
tp180
sbs(I7
I20
tp181
g3
s(I34
I0
tp182
g27
s(I6
I2
tp183
g15
s(I5
I26
tp184
g3
s(I36
I3
tp185
g27
s(I10
I26
tp186
g3
s(I5
I23
tp187
g3
s(I37
I2
tp188
g27
s(I15
I12
tp189
(i__main__
Link
p190
(dp191
g5
I0
sg6
(I390
I238
tp192
sg8
I1
sg96
I01
sg9
g179
sg11
I0
sg12
(I243
I199
tp193
sbs(I39
I3
tp194
g27
s(I38
I28
tp195
g40
s(I8
I10
tp196
(i__main__
Link
p197
(dp198
g5
I0
sg6
g36
sg8
I1
sg9
g37
sg11
I0
sg12
(I141
I164
tp199
sbs(I33
I6
tp200
g27
s(I34
I5
tp201
g27
s(I36
I0
tp202
g27
s(I37
I5
tp203
g27
s(I39
I6
tp204
g27
s(I26
I9
tp205
(i__main__
Link
p206
(dp207
g5
I0
sg6
g103
sg8
I1
sg96
I01
sg9
g104
sg11
I0
sg12
(I424
I148
tp208
sbs(I2
I3
tp209
g15
s(I8
I7
tp210
g15
s(I39
I28
tp211
g40
s(I4
I2
tp212
g15
s(I33
I1
tp213
g27
s(I6
I5
tp214
g15
s(I5
I3
tp215
g15
s(I35
I2
tp216
g27
s(I34
I6
tp217
g27
s(I20
I24
tp218
g21
s(I36
I5
tp219
g27
s(I38
I0
tp220
g27
s(I24
I3
tp221
(i__main__
Link
p222
(dp223
g5
I0
sg6
g178
sg8
I1
sg96
I01
sg9
g179
sg11
I0
sg12
(I393
I49
tp224
sbs(I39
I5
tp225
g27
s(I3
I4
tp226
g15
s(I2
I4
tp227
g15
s(I8
I4
tp228
g15
s(I4
I7
tp229
g15
s(I21
I16
tp230
(i__main__
Link
p231
(dp232
g5
I0
sg6
g88
sg8
I1
sg9
g89
sg11
I0
sg12
(I339
I262
tp233
sbs(I8
I23
tp234
g3
s(I6
I6
tp235
g15
s(I5
I6
tp236
g15
s(I19
I26
tp237
g21
s(I35
I1
tp238
g27
s(I9
I22
tp239
g3
s(I7
I7
tp240
g15
s(I6
I21
tp241
g3
s(I11
I23
tp242
g3
s(I10
I21
tp243
g3
s(I6
I24
tp244
g3
s(I38
I13
tp245
(i__main__
Link
p246
(dp247
g5
I0
sg6
g88
sg8
I1
sg9
g89
sg11
I0
sg12
(I611
I219
tp248
sbs(I37
I27
tp249
g40
s(I11
I24
tp250
g3
s(I18
I8
tp251
(i__main__
Link
p252
(dp253
g5
I0
sg6
g178
sg8
I1
sg96
I01
sg9
g179
sg11
I0
sg12
(I296
I140
tp254
sbs(I15
I5
tp255
(i__main__
Link
p256
(dp257
g5
I0
sg6
(I247
I68
tp258
sg8
I1
sg9
g129
sg11
I0
sg12
(I248
I86
tp259
sbs(I3
I3
tp260
g15
s(I8
I1
tp261
g15
s(I4
I4
tp262
g15
s(I34
I1
tp263
g27
s(I8
I20
tp264
g3
s(I6
I3
tp265
g15
s(I5
I25
tp266
g3
s(I19
I25
tp267
g21
s(I6
I22
tp268
g3
s(I5
I22
tp269
g3
s(I37
I1
tp270
g27
s(I10
I22
tp271
g3
s(I7
I23
tp272
g3
s(I39
I2
tp273
g27
s(I20
I13
tp274
(i__main__
Link
p275
(dp276
g5
I0
sg6
g178
sg8
I1
sg96
I01
sg9
g179
sg11
I0
sg12
(I334
I215
tp277
sbs(I38
I29
tp278
g40
s(I18
I24
tp279
g21
s(I9
I24
tp280
g3
s(I33
I5
tp281
g27
s(I32
I11
tp282
(i__main__
Link
p283
(dp284
g5
I0
sg6
g88
sg8
I1
sg9
g89
sg11
I0
sg12
(I517
I190
tp285
sbs(I35
I6
tp286
g27
s(I34
I2
tp287
g27
s(I36
I1
tp288
g27
s(I24
I20
tp289
(i__main__
Link
p290
(dp291
g5
I0
sg6
g192
sg8
I1
sg96
I01
sg9
g179
sg11
I0
sg12
(I384
I320
tp292
sbs(I38
I4
tp293
g27
s(I37
I4
tp294
g27
s(I7
I26
tp295
g3
s(I39
I1
tp296
g27
s(I32
I5
tp297
(i__main__
Link
p298
(dp299
g5
I0
sg6
(I250
I71
tp300
sg8
I1
sg9
g10
sg11
I0
sg12
(I515
I85
tp301
sbs(I4
I3
tp302
g15
s(I33
I0
tp303
g27
s(I5
I2
tp304
g15
s(I35
I5
tp305
g27
sa(dp306
a(dp307
a(dp308
a(dp309
a(dp310
a.