(lp1
(dp2
(I31
I6
tp3
(iLink
Link
p4
(dp5
S'chapter'
p6
I0
sS'tile_offset'
p7
(I-5
I5
tp8
sS'map_pixel_selected'
p9
(I382
I145
tp10
sS'page_number'
p11
I0
sS'cat_pixel_selected'
p12
(I128
I115
tp13
sbs(I48
I6
tp14
(iLink
Link
p15
(dp16
g6
I0
sg7
(I-15
I5
tp17
sg9
(I460
I162
tp18
sg11
I0
sg12
(I132
I120
tp19
sbs(I47
I-5
tp20
(iLink
Link
p21
(dp22
g6
I0
sg7
(I-15
I15
tp23
sg9
(I433
I186
tp24
sg11
I0
sg12
g19
sbs(I40
I22
tp25
(iLink
Link
p26
(dp27
g6
I0
sg7
(I-15
I-10
tp28
sg9
(I378
I261
tp29
sg11
I0
sg12
g19
sbs(I21
I28
tp30
(iLink
Link
p31
(dp32
g6
I0
sg7
(I-15
I0
tp33
sg9
(I80
I385
tp34
sg11
I0
sg12
g13
sbs(I43
I3
tp35
g15
s(I7
I25
tp36
(iLink
Link
p37
(dp38
g6
I0
sg7
(I-5
I0
tp39
sg9
(I80
I385
tp40
sg11
I0
sg12
g13
sbs(I42
I-8
tp41
g21
s(I17
I-6
tp42
(iLink
Link
p43
(dp44
g6
I0
sg7
(I5
I20
tp45
sg9
(I289
I182
tp46
sg11
I0
sg12
g19
sbs(I-9
I-1
tp47
(iLink
Link
p48
(dp49
g6
I0
sg7
(I10
I25
tp50
sg9
(I80
I385
tp51
sg11
I0
sg12
g13
sbs(I-5
I1
tp52
(iLink
Link
p53
(dp54
g6
I0
sg7
g45
sg9
(I40
I264
tp55
sg11
I0
sg12
g19
sbs(I-2
I14
tp56
(iLink
Link
p57
(dp58
g6
I0
sg7
(I5
I5
tp59
sg9
(I80
I385
tp60
sg11
I0
sg12
g13
sbs(I34
I8
tp61
(iLink
Link
p62
(dp63
g6
I0
sg7
g17
sg9
(I250
I301
tp64
sg11
I0
sg12
g19
sbs(I37
I13
tp65
(iLink
Link
p66
(dp67
g6
I0
sg7
g17
sg9
(I402
I292
tp68
sg11
I0
sg12
g19
sbs(I24
I14
tp69
(iLink
Link
p70
(dp71
g6
I0
sg7
g8
sg9
(I258
I279
tp72
sg11
I0
sg12
g13
sbs(I39
I-4
tp73
g21
s(I-3
I-3
tp74
g53
s(I13
I20
tp75
g37
s(I14
I-10
tp76
g43
s(I3
I2
tp77
(iLink
Link
p78
(dp79
g6
I0
sg7
g45
sg9
(I75
I272
tp80
sg11
I0
sg12
g19
sbs(I28
I10
tp81
g62
s(I31
I15
tp82
(iLink
Link
p83
(dp84
g6
I0
sg7
g28
sg9
(I285
I164
tp85
sg11
I0
sg12
g19
sbs(I40
I29
tp86
g26
s(I45
I-1
tp87
g21
s(I7
I22
tp88
(iLink
Link
p89
(dp90
g6
I0
sg7
(I0
I5
tp91
sg9
(I80
I385
tp92
sg11
I0
sg12
g13
sbs(I46
I23
tp93
(iLink
Link
p94
(dp95
g6
I0
sg7
(I-15
I-5
tp96
sg9
(I476
I254
tp97
sg11
I0
sg12
g19
sbs(I29
I37
tp98
(iLink
Link
p99
(dp100
g6
I0
sg7
g28
sg9
(I243
I356
tp101
sg11
I0
sg12
g19
sbs(I33
I34
tp102
g99
s(I17
I-13
tp103
g43
s(I46
I12
tp104
(iLink
Link
p105
(dp106
g6
I0
sg7
g17
sg9
(I462
I227
tp107
sg11
I0
sg12
g19
sbs(I22
I12
tp108
g70
s(I44
I25
tp109
g94
s(I9
I9
tp110
(iLink
Link
p111
(dp112
g6
I0
sg7
(I0
I0
tp113
sg9
(I83
I206
tp114
sg11
I0
sg12
g13
sbs(I5
I-8
tp115
(iLink
Link
p116
(dp117
g6
I0
sg7
(I-5
I30
tp118
sg9
(I80
I385
tp119
sg11
I0
sg12
g13
sbs(I10
I-4
tp120
g43
s(I34
I3
tp121
(iLink
Link
p122
(dp123
g6
I0
sg7
(I-10
I10
tp124
sg9
(I464
I219
tp125
sg11
I0
sg12
g19
sbs(I24
I21
tp126
(iLink
Link
p127
(dp128
g6
I0
sg7
g28
sg9
(I215
I234
tp129
sg11
I0
sg12
g19
sbs(I26
I-14
tp130
(iLink
Link
p131
(dp132
g6
I0
sg7
g23
sg9
(I237
I81
tp133
sg11
I0
sg12
g19
sbs(I39
I-11
tp134
(iLink
Link
p135
(dp136
g6
I0
sg7
g23
sg9
(I349
I142
tp137
sg11
I0
sg12
g19
sbs(I13
I13
tp138
(iLink
Link
p139
(dp140
g6
I0
sg7
(I-10
I10
tp141
sg9
(I80
I385
tp142
sg11
I0
sg12
g13
sbs(I0
I14
tp143
g89
s(I14
I-7
tp144
g43
s(I38
I31
tp145
g26
s(I3
I11
tp146
g111
s(I11
I-10
tp147
g43
s(I28
I1
tp148
(iLink
Link
p149
(dp150
g6
I0
sg7
g45
sg9
(I546
I273
tp151
sg11
I0
sg12
g19
sbs(I35
I-15
tp152
(iLink
Link
p153
(dp154
g6
I0
sg7
g23
sg9
(I293
I93
tp155
sg11
I0
sg12
g19
sbs(I32
I-4
tp156
g135
s(I45
I-9
tp157
g21
s(I7
I15
tp158
g89
s(I16
I29
tp159
g31
s(I17
I-12
tp160
g43
s(I32
I2
tp161
g149
s(I6
I11
tp162
g111
s(I-1
I11
tp163
(iLink
Link
p164
(dp165
g6
I0
sg7
(I10
I10
tp166
sg9
(I80
I385
tp167
sg11
I0
sg12
g13
sbs(I22
I7
tp168
(iLink
Link
p169
(dp170
g6
I0
sg7
g45
sg9
(I469
I370
tp171
sg11
I0
sg12
g19
sbs(I-8
I2
tp172
g48
s(I44
I16
tp173
g94
s(I41
I-13
tp174
(iLink
Link
p175
(dp176
g6
I0
sg7
g23
sg9
(I438
I94
tp177
sg11
I0
sg12
g19
sbs(I34
I26
tp178
g26
s(I42
I-1
tp179
g21
s(I24
I28
tp180
g127
s(I26
I-3
tp181
g149
s(I10
I19
tp182
g89
s(I9
I0
tp183
(iLink
Link
p184
(dp185
g6
I0
sg7
(I-5
I25
tp186
sg9
(I80
I385
tp187
sg11
I0
sg12
g13
sbs(I39
I-14
tp188
g175
s(I13
I6
tp189
(iLink
Link
p190
(dp191
g6
I0
sg7
(I-10
I20
tp192
sg9
(I80
I385
tp193
sg11
I0
sg12
g13
sbs(I0
I5
tp194
(iLink
Link
p195
(dp196
g6
I0
sg7
(I10
I15
tp197
sg9
(I80
I385
tp198
sg11
I0
sg12
g13
sbs(I38
I22
tp199
g26
s(I25
I3
tp200
g169
s(I28
I24
tp201
g83
s(I35
I-10
tp202
g135
s(I40
I11
tp203
g105
s(I-1
I14
tp204
g57
s(I4
I17
tp205
g89
s(I-5
I-4
tp206
g53
s(I-1
I-8
tp207
g53
s(I7
I4
tp208
g184
s(I16
I20
tp209
(iLink
Link
p210
(dp211
g6
I0
sg7
(I-15
I5
tp212
sg9
(I80
I385
tp213
sg11
I0
sg12
g13
sbs(I19
I1
tp214
g169
s(I-8
I9
tp215
g164
s(I44
I15
tp216
g94
s(I-5
I20
tp217
g57
s(I41
I-12
tp218
g135
s(I5
I9
tp219
(iLink
Link
p220
(dp221
g6
I0
sg7
(I5
I20
tp222
sg9
(I80
I385
tp223
sg11
I0
sg12
g13
sbs(I34
I21
tp224
g26
s(I21
I11
tp225
g70
s(I-7
I11
tp226
g164
s(I10
I26
tp227
g37
s(I-4
I13
tp228
g164
s(I1
I-1
tp229
g53
s(I0
I28
tp230
(iLink
Link
p231
(dp232
g6
I0
sg7
g113
sg9
(I80
I385
tp233
sg11
I0
sg12
g13
sbs(I38
I9
tp234
g15
s(I25
I4
tp235
g169
s(I28
I23
tp236
g83
s(I40
I12
tp237
g105
s(I4
I24
tp238
g89
s(I-10
I11
tp239
g164
s(I23
I-8
tp240
(iLink
Link
p241
(dp242
g6
I0
sg7
g45
sg9
(I425
I161
tp243
sg11
I0
sg12
g19
sbs(I16
I11
tp244
g70
s(I19
I6
tp245
g169
s(I41
I21
tp246
g26
s(I22
I17
tp247
g70
s(I-8
I16
tp248
(iLink
Link
p249
(dp250
g6
I0
sg7
(I10
I5
tp251
sg9
(I80
I385
tp252
sg11
I0
sg12
g13
sbs(I44
I6
tp253
g15
s(I-7
I-7
tp254
g53
s(I41
I-3
tp255
g21
s(I-1
I4
tp256
g195
s(I16
I-7
tp257
g43
s(I29
I-6
tp258
g153
s(I10
I5
tp259
g190
s(I4
I-4
tp260
g78
s(I1
I-9
tp261
g53
s(I35
I23
tp262
g26
s(I0
I19
tp263
g89
s(I38
I0
tp264
g15
s(I25
I13
tp265
g62
s(I46
I-6
tp266
g21
s(I38
I-5
tp267
g21
s(I4
I7
tp268
g220
s(I-10
I2
tp269
g48
s(I23
I-15
tp270
g241
s(I29
I9
tp271
g62
s(I16
I2
tp272
(iLink
Link
p273
(dp274
g6
I0
sg7
(I-10
I25
tp275
sg9
(I80
I385
tp276
sg11
I0
sg12
g13
sbs(I19
I15
tp277
g70
s(I41
I30
tp278
g26
s(I-8
I23
tp279
g249
s(I44
I-3
tp280
g21
s(I47
I16
tp281
g94
s(I19
I-11
tp282
g241
s(I7
I5
tp283
(iLink
Link
p284
(dp285
g6
I0
sg7
(I0
I0
tp286
sg9
(I69
I57
tp287
sg11
I0
sg12
g13
sbs(I29
I-13
tp288
g153
s(I23
I11
tp289
g70
s(I45
I26
tp290
(iLink
Link
p291
(dp292
g6
I0
sg7
g96
sg9
(I443
I319
tp293
sg11
I0
sg12
g19
sbs(I10
I12
tp294
g139
s(I4
I-5
tp295
g78
s(I35
I28
tp296
g26
s(I25
I22
tp297
g127
s(I25
I-9
tp298
g131
s(I38
I-14
tp299
g153
s(I-5
I23
tp300
g57
s(I1
I13
tp301
g111
s(I39
I24
tp302
g26
s(I4
I14
tp303
g89
s(I10
I-7
tp304
g43
s(I47
I13
tp305
g105
s(I29
I2
tp306
g149
s(I9
I-9
tp307
g43
s(I19
I20
tp308
g210
s(I47
I-15
tp309
g175
s(I44
I-12
tp310
g175
s(I47
I25
tp311
g94
s(I30
I35
tp312
g99
s(I19
I-6
tp313
g241
s(I16
I-9
tp314
g43
s(I23
I0
tp315
g169
s(I-7
I1
tp316
g53
s(I45
I19
tp317
g94
s(I32
I8
tp318
g62
s(I35
I5
tp319
g122
s(I25
I31
tp320
g99
s(I25
I-8
tp321
g131
s(I11
I28
tp322
g37
s(I38
I-11
tp323
g135
s(I45
I-2
tp324
g21
s(I1
I6
tp325
g220
s(I13
I-3
tp326
g116
s(I39
I17
tp327
g94
s(I26
I6
tp328
g169
s(I29
I27
tp329
g127
s(I19
I29
tp330
g31
s(I47
I-2
tp331
g21
s(I5
I18
tp332
g89
s(I44
I-13
tp333
g175
s(I-8
I-7
tp334
g53
s(I17
I23
tp335
g210
s(I20
I4
tp336
g169
s(I23
I25
tp337
g127
s(I-7
I10
tp338
g164
s(I45
I12
tp339
g105
s(I-4
I17
tp340
g57
s(I40
I-9
tp341
g21
s(I35
I10
tp342
g66
s(I11
I21
tp343
g37
s(I-3
I14
tp344
g57
s(I14
I2
tp345
g184
s(I0
I-3
tp346
g53
s(I13
I-10
tp347
g43
s(I39
I14
tp348
g105
s(I-10
I23
tp349
g249
s(I26
I1
tp350
g149
s(I29
I20
tp351
g83
s(I6
I2
tp352
g184
s(I5
I27
tp353
g37
s(I-9
I12
tp354
g164
s(I27
I34
tp355
g99
s(I17
I8
tp356
g70
s(I20
I3
tp357
g169
s(I42
I16
tp358
g94
s(I23
I22
tp359
g127
s(I-7
I19
tp360
g249
s(I45
I5
tp361
g15
s(I-9
I10
tp362
g164
s(I32
I6
tp363
g4
s(I-5
I6
tp364
g195
s(I47
I-13
tp365
g175
s(I31
I-12
tp366
g135
s(I28
I-7
tp367
g153
s(I11
I10
tp368
g139
s(I-3
I7
tp369
g195
s(I14
I5
tp370
g190
s(I36
I18
tp371
g83
s(I1
I16
tp372
g89
s(I39
I7
tp373
g15
s(I26
I8
tp374
g62
s(I48
I21
tp375
g94
s(I37
I-10
tp376
g135
s(I-6
I-3
tp377
g53
s(I34
I-5
tp378
g135
s(I5
I4
tp379
(iLink
Link
p380
(dp381
g6
I0
sg7
(I5
I25
tp382
sg9
(I80
I385
tp383
sg11
I0
sg12
g13
sbs(I-9
I5
tp384
g195
s(I22
I-10
tp385
g241
s(I30
I20
tp386
g83
s(I17
I1
tp387
(iLink
Link
p388
(dp389
g6
I0
sg7
g45
sg9
(I388
I260
tp390
sg11
I0
sg12
g19
sbs(I20
I10
tp391
g70
s(I42
I27
tp392
g26
s(I35
I-1
tp393
g122
s(I-7
I20
tp394
g249
s(I43
I-8
tp395
g21
s(I32
I29
tp396
g127
s(I3
I-6
tp397
g78
s(I6
I4
tp398
g184
s(I31
I-3
tp399
g135
s(I8
I22
tp400
g89
s(I11
I3
tp401
g184
s(I3
I-1
tp402
g78
s(I14
I12
tp403
g139
s(I36
I25
tp404
g26
s(I49
I-6
tp405
(iLink
Link
p406
(dp407
g6
I0
sg7
g23
sg9
(I465
I222
tp408
sg11
I0
sg12
g19
sbs(I26
I19
tp409
g127
s(I24
I-12
tp410
g131
s(I41
I8
tp411
g15
s(I34
I-14
tp412
g153
s(I2
I8
tp413
g220
s(I5
I13
tp414
g111
s(I-9
I2
tp415
g48
s(I30
I31
tp416
g99
s(I-7
I7
tp417
g195
s(I20
I17
tp418
g70
s(I42
I2
tp419
g15
s(I43
I-15
tp420
g175
s(I32
I20
tp421
g83
s(I31
I36
tp422
g99
s(I35
I33
tp423
g99
s(I18
I27
tp424
g31
s(I31
I-6
tp425
g135
s(I8
I29
tp426
g37
s(I6
I-8
tp427
g116
s(I33
I11
tp428
g62
s(I14
I23
tp429
g37
s(I36
I0
tp430
g122
s(I26
I26
tp431
g127
s(I24
I-5
tp432
g131
s(I12
I25
tp433
g37
s(I37
I-8
tp434
g21
s(I2
I3
tp435
g380
s(I12
I-1
tp436
g116
s(I27
I9
tp437
g62
s(I30
I6
tp438
g4
s(I-5
I9
tp439
g164
s(I20
I24
tp440
g210
s(I46
I-7
tp441
g21
s(I43
I-10
tp442
g175
s(I18
I-4
tp443
g43
s(I18
I18
tp444
g139
s(I-2
I6
tp445
g195
s(I8
I4
tp446
g184
s(I-6
I15
tp447
g249
s(I-3
I18
tp448
g57
s(I33
I12
tp449
g62
s(I36
I15
tp450
g83
s(I47
I10
tp451
g15
s(I12
I16
tp452
g139
s(I-2
I19
tp453
g57
s(I25
I-1
tp454
g149
s(I15
I5
tp455
g190
s(I-9
I6
tp456
g195
s(I2
I26
tp457
g231
s(I12
I-11
tp458
g43
s(I-4
I-1
tp459
g53
s(I-9
I16
tp460
g249
s(I27
I14
tp461
g62
s(I30
I9
tp462
g62
s(I6
I22
tp463
g89
s(I-6
I11
tp464
g164
s(I40
I4
tp465
g15
s(I21
I-14
tp466
g241
s(I32
I34
tp467
g99
s(I18
I-9
tp468
g43
s(I18
I13
tp469
g70
s(I21
I0
tp470
g169
s(I43
I31
tp471
g26
s(I8
I11
tp472
g111
s(I-6
I22
tp473
g249
s(I33
I5
tp474
g4
s(I30
I-13
tp475
g153
s(I27
I-4
tp476
g149
s(I49
I2
tp477
g406
s(I12
I15
tp478
g139
s(I24
I5
tp479
g169
s(I15
I2
tp480
g184
s(I15
I-7
tp481
g43
s(I37
I17
tp482
g83
s(I2
I21
tp483
g89
s(I27
I7
tp484
g169
s(I49
I22
tp485
g94
s(I36
I-11
tp486
g135
s(I-10
I-1
tp487
g48
s(I33
I-1
tp488
g149
s(I26
I4
tp489
g169
s(I4
I-3
tp490
g78
s(I6
I9
tp491
g111
s(I8
I-8
tp492
g43
s(I21
I-5
tp493
g241
s(I31
I19
tp494
g83
s(I32
I9
tp495
g62
s(I18
I4
tp496
g273
s(I21
I9
tp497
g70
s(I43
I20
tp498
g94
s(I-6
I17
tp499
g249
s(I42
I-9
tp500
g21
s(I33
I30
tp501
g26
s(I10
I-5
tp502
g43
s(I30
I-6
tp503
g153
s(I27
I-11
tp504
g131
s(I9
I21
tp505
g89
s(I10
I-12
tp506
g43
s(I12
I6
tp507
(iLink
Link
p508
(dp509
g6
I0
sg7
(I0
I0
tp510
sg9
(I200
I97
tp511
sg11
I0
sg12
(I243
I118
tp512
sbs(I15
I11
tp513
g139
s(I37
I26
tp514
g26
s(I6
I5
tp515
g284
s(I24
I1
tp516
g149
s(I27
I28
tp517
g127
s(I49
I15
tp518
g94
s(I-1
I6
tp519
g195
s(I2
I6
tp520
g220
s(I36
I-4
tp521
g135
s(I33
I-9
tp522
g135
s(I3
I23
tp523
g89
s(I6
I0
tp524
g184
s(I31
I24
tp525
g83
s(I47
I-8
tp526
g21
s(I40
I16
tp527
g94
s(I21
I18
tp528
g210
s(I31
I-1
tp529
g149
s(I43
I13
tp530
g105
s(I-6
I24
tp531
g249
s(I47
I5
tp532
g15
s(I33
I23
tp533
g26
s(I30
I-3
tp534
g149
s(I-5
I11
tp535
g164
s(I-2
I4
tp536
g195
s(I34
I14
tp537
g62
s(I15
I16
tp538
g139
s(I37
I3
tp539
g122
s(I24
I8
tp540
g169
s(I27
I21
tp541
g83
s(I49
I0
tp542
g406
s(I13
I26
tp543
g37
s(I36
I-5
tp544
g135
s(I3
I28
tp545
g231
s(I11
I-5
tp546
g43
s(I28
I12
tp547
g62
s(I31
I1
tp548
g149
s(I40
I23
tp549
g26
s(I21
I27
tp550
g31
s(I43
I2
tp551
g15
s(I7
I24
tp552
g89
s(I42
I-7
tp553
g21
s(I17
I-7
tp554
g43
s(I42
I-5
tp555
g21
s(I22
I10
tp556
g70
s(I9
I7
tp557
g111
s(I-5
I0
tp558
g53
s(I-1
I15
tp559
g57
s(I34
I9
tp560
g62
s(I15
I25
tp561
g31
s(I37
I12
tp562
g66
s(I24
I15
tp563
g70
s(I13
I19
tp564
g139
s(I0
I8
tp565
g195
s(I14
I-9
tp566
g43
s(I-7
I8
tp567
g195
s(I3
I5
tp568
g220
s(I28
I11
tp569
g62
s(I31
I14
tp570
g62
s(I40
I30
tp571
g26
s(I45
I-3
tp572
g21
s(I7
I17
tp573
g89
s(I46
I20
tp574
g94
s(I29
I36
tp575
g99
s(I20
I-15
tp576
g241
s(I33
I33
tp577
g99
s(I17
I-14
tp578
g43
s(I40
I-7
tp579
g21
s(I24
I-9
tp580
g131
s(I22
I13
tp581
g70
s(I44
I26
tp582
g291
s(I9
I8
tp583
g111
s(I34
I0
tp584
g122
s(I24
I22
tp585
g127
s(I26
I-13
tp586
g131
s(I39
I-12
tp587
g135
s(I21
I-2
tp588
g169
s(I13
I12
tp589
g139
s(I0
I15
tp590
g89
s(I14
I-1
tp591
g388
s(I38
I28
tp592
g26
s(I3
I10
tp593
g111
s(I28
I2
tp594
g149
s(I32
I-3
tp595
g135
s(I-2
I9
tp596
g164
s(I44
I-1
tp597
g21
s(I45
I-10
tp598
g175
s(I-1
I-5
tp599
g53
s(I7
I14
tp600
g89
s(I20
I-8
tp601
g241
s(I22
I4
tp602
g169
s(I-8
I3
tp603
g48
s(I44
I17
tp604
g94
s(I41
I-14
tp605
g175
s(I49
I-2
tp606
g406
s(I34
I27
tp607
g26
s(I3
I-3
tp608
g78
s(I24
I29
tp609
g127
s(I26
I-6
tp610
g131
s(I10
I16
tp611
g89
s(I13
I5
tp612
g190
s(I0
I6
tp613
g195
s(I38
I23
tp614
g26
s(I25
I2
tp615
g149
s(I28
I25
tp616
g83
s(I32
I-13
tp617
g153
s(I35
I-7
tp618
g135
s(I32
I-12
tp619
g135
s(I4
I18
tp620
g89
s(I26
I35
tp621
g99
s(I7
I7
tp622
g111
s(I16
I21
tp623
g210
s(I19
I0
tp624
g169
s(I41
I19
tp625
g94
s(I-8
I10
tp626
g164
s(I44
I8
tp627
g15
s(I-7
I-6
tp628
g53
s(I41
I-5
tp629
g21
s(I34
I18
tp630
g83
s(I10
I27
tp631
g37
s(I-4
I14
tp632
g57
s(I1
I-3
tp633
g53
s(I35
I17
tp634
g83
s(I0
I29
tp635
g231
s(I38
I14
tp636
g105
s(I25
I11
tp637
g62
s(I42
I1
tp638
g15
s(I28
I16
tp639
g83
s(I35
I-2
tp640
g135
s(I4
I25
tp641
g231
s(I-10
I8
tp642
g195
s(I23
I-5
tp643
g241
s(I29
I15
tp644
g83
s(I16
I12
tp645
g70
s(I19
I9
tp646
g70
s(I11
I-1
tp647
g116
s(I41
I20
tp648
g94
s(I22
I22
tp649
g210
s(I-8
I17
tp650
g249
s(I44
I7
tp651
g15
s(I41
I-4
tp652
g21
s(I16
I-6
tp653
g43
s(I9
I-5
tp654
g43
s(I29
I-7
tp655
g153
s(I23
I13
tp656
g70
s(I10
I2
tp657
g184
s(I-4
I5
tp658
g195
s(I34
I-2
tp659
g135
s(I24
I-8
tp660
g131
s(I35
I22
tp661
g26
s(I0
I20
tp662
g89
s(I38
I1
tp663
g15
s(I25
I12
tp664
g62
s(I38
I-8
tp665
g21
s(I1
I11
tp666
g111
s(I4
I0
tp667
g78
s(I-10
I3
tp668
g48
s(I47
I2
tp669
g15
s(I29
I8
tp670
g62
s(I16
I3
tp671
g273
s(I19
I14
tp672
g70
s(I41
I29
tp673
g26
s(I-8
I24
tp674
g249
s(I44
I-2
tp675
g21
s(I47
I19
tp676
g94
s(I19
I-12
tp677
g241
s(I34
I36
tp678
g99
s(I16
I-15
tp679
g241
s(I29
I-14
tp680
g153
s(I23
I10
tp681
g70
s(I45
I25
tp682
g94
s(I10
I13
tp683
g139
s(I35
I31
tp684
g26
s(I48
I4
tp685
g15
s(I25
I21
tp686
g127
s(I25
I-10
tp687
g131
s(I38
I-13
tp688
g153
s(I1
I12
tp689
g111
s(I39
I27
tp690
g26
s(I4
I15
tp691
g89
s(I29
I1
tp692
g149
s(I-4
I3
tp693
g48
s(I19
I23
tp694
g210
s(I41
I6
tp695
g15
s(I-4
I-9
tp696
g53
s(I44
I-11
tp697
g175
s(I47
I24
tp698
g94
s(I30
I32
tp699
g99
s(I19
I-3
tp700
(iLink
Link
p701
(dp702
g6
I0
sg7
g45
sg9
(I474
I290
tp703
sg11
I0
sg12
g19
sbs(I17
I29
tp704
g31
s(I23
I3
tp705
g169
s(I7
I-1
tp706
g116
s(I45
I18
tp707
g94
s(I40
I-15
tp708
g175
s(I35
I4
tp709
g122
s(I25
I30
tp710
g99
s(I1
I-2
tp711
g53
s(I1
I5
tp712
g220
s(I13
I-4
tp713
g43
s(I39
I16
tp714
g94
s(I24
I-6
tp715
g131
s(I26
I7
tp716
g169
s(I48
I24
tp717
g94
s(I29
I26
tp718
g127
s(I19
I28
tp719
g31
s(I47
I-7
tp720
g21
s(I5
I17
tp721
g89
s(I-8
I-6
tp722
g53
s(I17
I22
tp723
g210
s(I20
I5
tp724
g169
s(I42
I22
tp725
g26
s(I23
I24
tp726
g127
s(I-7
I9
tp727
g164
s(I45
I11
tp728
g105
s(I-4
I18
tp729
g57
s(I40
I-8
tp730
g21
s(I35
I13
tp731
g66
s(I11
I20
tp732
g37
s(I-3
I13
tp733
g164
s(I14
I3
tp734
g184
s(I0
I-2
tp735
g53
s(I36
I20
tp736
g83
s(I13
I-11
tp737
g43
s(I39
I9
tp738
g15
s(I-10
I20
tp739
g249
s(I26
I14
tp740
g62
s(I29
I19
tp741
g83
s(I5
I26
tp742
g37
s(I-9
I15
tp743
g249
s(I27
I37
tp744
g99
s(I22
I-4
tp745
(iLink
Link
p746
(dp747
g6
I0
sg7
g45
sg9
(I516
I239
tp748
sg11
I0
sg12
g19
sbs(I30
I18
tp749
g83
s(I17
I15
tp750
g70
s(I20
I12
tp751
g70
s(I42
I17
tp752
g94
s(I23
I17
tp753
g70
s(I-7
I18
tp754
g249
s(I45
I4
tp755
g15
s(I2
I-4
tp756
g53
s(I32
I7
tp757
g4
s(I-3
I5
tp758
g195
s(I-1
I21
tp759
g57
s(I31
I-9
tp760
g135
s(I28
I-6
tp761
g153
s(I8
I16
tp762
g89
s(I11
I13
tp763
g139
s(I3
I-8
tp764
g78
s(I14
I10
tp765
g139
s(I36
I19
tp766
g83
s(I1
I23
tp767
g89
s(I42
I-13
tp768
g175
s(I39
I6
tp769
g15
s(I26
I9
tp770
g62
s(I48
I22
tp771
g94
s(I37
I-11
tp772
g135
s(I34
I-8
tp773
g135
s(I2
I14
tp774
g89
s(I5
I3
tp775
g380
s(I-9
I4
tp776
g195
s(I22
I-9
tp777
g241
s(I30
I21
tp778
g83
s(I17
I0
tp779
g388
s(I7
I-2
tp780
g116
s(I20
I11
tp781
(iLink
Link
p782
(dp783
g6
I0
sg7
(I0
I0
tp784
sg9
(I327
I181
tp785
sg11
I0
sg12
(I253
I182
tp786
sbs(I42
I24
tp787
g26
s(I43
I-5
tp788
g21
s(I-7
I-9
tp789
g53
s(I32
I30
tp790
g99
s(I31
I-4
tp791
g135
s(I28
I-15
tp792
g153
s(I8
I23
tp793
g89
s(I42
I8
tp794
g15
s(I11
I2
tp795
g184
s(I30
I-1
tp796
g149
s(I14
I13
tp797
g139
s(I36
I26
tp798
g26
s(I49
I-7
tp799
g406
s(I26
I16
tp800
g62
s(I48
I13
tp801
g105
s(I37
I-1
tp802
g21
s(I34
I-13
tp803
g153
s(I2
I9
tp804
g220
s(I5
I12
tp805
g111
s(I43
I-2
tp806
g21
s(I30
I28
tp807
g127
s(I20
I18
tp808
g139
s(I46
I-9
tp809
g21
s(I8
I-2
tp810
g116
s(I32
I21
tp811
g83
s(I35
I32
tp812
g99
s(I18
I24
tp813
g210
s(I-1
I1
tp814
g53
s(I-2
I-1
tp815
g53
s(I-6
I5
tp816
g195
s(I-3
I24
tp817
g57
s(I33
I10
tp818
g62
s(I14
I20
tp819
g37
s(I36
I1
tp820
g122
s(I26
I27
tp821
g127
s(I24
I-4
tp822
g149
s(I12
I26
tp823
g37
s(I9
I-7
tp824
g43
s(I-2
I-4
tp825
g53
s(I27
I8
tp826
g62
s(I30
I7
tp827
g4
s(I20
I25
tp828
g31
s(I46
I-2
tp829
g21
s(I6
I28
tp830
g37
s(I-6
I10
tp831
g164
s(I32
I-5
tp832
g135
s(I18
I-3
tp833
g388
s(I18
I19
tp834
g139
s(I21
I6
tp835
g169
s(I43
I25
tp836
g26
s(I8
I5
tp837
g284
s(I-6
I12
tp838
g164
s(I-3
I17
tp839
g57
s(I33
I3
tp840
g4
s(I36
I8
tp841
g66
s(I12
I17
tp842
g139
s(I-2
I16
tp843
g57
s(I15
I4
tp844
g184
s(I15
I-13
tp845
g43
s(I37
I23
tp846
g26
s(I2
I27
tp847
g231
s(I12
I-10
tp848
g43
s(I-9
I19
tp849
g249
s(I27
I1
tp850
g149
s(I30
I14
tp851
g62
s(I20
I-2
tp852
g169
s(I-4
I4
tp853
g195
s(I6
I23
tp854
g89
s(I8
I-14
tp855
g43
s(I28
I32
tp856
g99
s(I21
I-15
tp857
g241
s(I32
I35
tp858
g99
s(I31
I21
tp859
g83
s(I18
I-12
tp860
g43
s(I18
I10
tp861
(iLink
Link
p862
(dp863
g6
I0
sg7
g784
sg9
(I293
I161
tp864
sg11
I0
sg12
g786
sbs(I21
I15
tp865
g70
s(I43
I30
tp866
g26
s(I8
I12
tp867
g111
s(I-6
I23
tp868
g249
s(I33
I4
tp869
g4
s(I9
I19
tp870
g89
s(I12
I8
tp871
g190
s(I15
I13
tp872
g139
s(I15
I-8
tp873
g43
s(I37
I16
tp874
g83
s(I2
I18
tp875
g89
s(I22
I6
tp876
g169
s(I27
I6
tp877
g169
s(I49
I21
tp878
g94
s(I36
I-10
tp879
g135
s(I33
I-3
tp880
g135
s(I3
I17
tp881
g89
s(I6
I14
tp882
g89
s(I8
I-7
tp883
g43
s(I21
I-6
tp884
g241
s(I31
I18
tp885
g83
s(I18
I5
tp886
g190
s(I41
I15
tp887
g94
s(I21
I8
tp888
g169
s(I43
I23
tp889
g26
s(I42
I-12
tp890
g175
s(I33
I29
tp891
g26
s(I30
I-5
tp892
g153
s(I27
I-12
tp893
g131
s(I9
I20
tp894
g89
s(I12
I7
tp895
g190
s(I2
I-2
tp896
g53
s(I15
I10
tp897
g139
s(I37
I25
tp898
g26
s(I24
I2
tp899
g149
s(I27
I31
tp900
g99
s(I36
I-3
tp901
g135
s(I33
I-10
tp902
g135
s(I3
I22
tp903
g89
s(I25
I37
tp904
g99
s(I6
I1
tp905
g184
s(I31
I27
tp906
g127
s(I40
I17
tp907
g94
s(I21
I17
tp908
g70
s(I43
I12
tp909
g105
s(I46
I11
tp910
g105
s(I33
I22
tp911
g26
s(I42
I-6
tp912
g21
s(I9
I29
tp913
g37
s(I-5
I10
tp914
g164
s(I10
I-1
tp915
g116
s(I-1
I5
tp916
g195
s(I34
I15
tp917
g83
s(I15
I19
tp918
g139
s(I37
I2
tp919
g122
s(I24
I9
tp920
g70
s(I27
I20
tp921
g83
s(I13
I25
tp922
g37
s(I7
I-9
tp923
g116
s(I11
I-6
tp924
g43
s(I28
I13
tp925
g62
s(I31
I0
tp926
g149
s(I40
I24
tp927
g26
s(I21
I26
tp928
g31
s(I43
I5
tp929
g15
s(I7
I27
tp930
g37
s(I46
I18
tp931
g94
s(I17
I-8
tp932
g43
s(I32
I0
tp933
g149
s(I48
I14
tp934
g105
s(I22
I11
tp935
g70
s(I44
I28
tp936
g291
s(I9
I6
tp937
g284
s(I-5
I3
tp938
g48
s(I-2
I12
tp939
g164
s(I34
I6
tp940
g122
s(I15
I24
tp941
g210
s(I37
I11
tp942
g66
s(I24
I16
tp943
g70
s(I9
I2
tp944
g184
s(I39
I-2
tp945
g21
s(I13
I18
tp946
g139
s(I0
I9
tp947
g164
s(I14
I-12
tp948
g43
s(I38
I26
tp949
g26
s(I3
I4
tp950
g380
s(I11
I-13
tp951
g43
s(I28
I4
tp952
g169
s(I31
I9
tp953
g62
s(I40
I31
tp954
g26
s(I-2
I8
tp955
g195
s(I45
I-4
tp956
g21
s(I-1
I-6
tp957
g53
s(I7
I16
tp958
g89
s(I46
I21
tp959
g94
s(I29
I35
tp960
g99
s(I20
I-14
tp961
g241
s(I33
I32
tp962
g99
s(I16
I24
tp963
g210
s(I17
I-15
tp964
g241
s(I22
I2
tp965
g169
s(I44
I27
tp966
g291
s(I9
I15
tp967
g89
s(I-5
I24
tp968
g57
s(I15
I-2
tp969
g388
s(I34
I1
tp970
g122
s(I24
I23
tp971
g127
s(I10
I22
tp972
g89
s(I39
I-9
tp973
g21
s(I13
I11
tp974
g139
s(I0
I0
tp975
g53
s(I38
I29
tp976
g26
s(I3
I13
tp977
g111
s(I28
I3
tp978
g169
s(I32
I-14
tp979
g153
s(I35
I-13
tp980
g153
s(I0
I-1
tp981
g53
s(I32
I-1
tp982
g149
s(I4
I20
tp983
g89
s(I45
I-11
tp984
g175
s(I7
I9
tp985
g111
s(I46
I28
tp986
g291
s(I20
I-7
tp987
g241
s(I-10
I10
tp988
g164
s(I22
I5
tp989
g169
s(I-8
I4
tp990
g195
s(I44
I18
tp991
g94
s(I-5
I17
tp992
g57
s(I41
I-15
tp993
g175
s(I34
I24
tp994
g26
s(I26
I-5
tp995
g131
s(I10
I17
tp996
g89
s(I13
I4
tp997
g184
s(I1
I-5
tp998
g53
s(I0
I7
tp999
g195
s(I38
I20
tp1000
g291
s(I25
I1
tp1001
g149
s(I-1
I2
tp1002
g78
s(I42
I0
tp1003
g15
s(I28
I26
tp1004
g127
s(I-1
I23
tp1005
g57
s(I35
I-8
tp1006
g135
s(I32
I-11
tp1007
g135
s(I4
I19
tp1008
g89
s(I26
I32
tp1009
g99
s(I7
I6
tp1010
g284
s(I23
I-3
tp1011
g746
s(I16
I22
tp1012
g210
s(I19
I3
tp1013
g169
s(I41
I18
tp1014
g94
s(I22
I28
tp1015
g31
s(I-8
I11
tp1016
g164
s(I44
I9
tp1017
g15
s(I-5
I22
tp1018
g57
s(I41
I-6
tp1019
g21
s(I34
I19
tp1020
g83
s(I10
I24
tp1021
g89
s(I-4
I15
tp1022
g57
s(I1
I-4
tp1023
g53
s(I35
I16
tp1024
g83
s(I-7
I-1
tp1025
g53
s(I38
I15
tp1026
g66
s(I25
I10
tp1027
g62
s(I28
I17
tp1028
g83
s(I2
I11
tp1029
g111
s(I24
I-2
tp1030
g149
s(I4
I26
tp1031
g231
s(I-10
I9
tp1032
g164
s(I23
I-6
tp1033
g241
s(I41
I-11
tp1034
g135
s(I29
I14
tp1035
g62
s(I16
I13
tp1036
g70
s(I19
I8
tp1037
g169
s(I41
I27
tp1038
g26
s(I22
I23
tp1039
g210
s(I-8
I18
tp1040
g249
s(I44
I0
tp1041
g15
s(I47
I21
tp1042
g94
s(I16
I-5
tp1043
g43
s(I29
I-8
tp1044
g153
s(I23
I12
tp1045
g70
s(I-2
I-8
tp1046
g53
s(I6
I-2
tp1047
g116
s(I10
I3
tp1048
g184
s(I4
I-2
tp1049
g78
s(I35
I25
tp1050
g26
s(I0
I21
tp1051
g89
s(I38
I6
tp1052
g15
s(I25
I19
tp1053
g127
s(I38
I-7
tp1054
g21
s(I1
I10
tp1055
g111
s(I39
I29
tp1056
g26
s(I4
I1
tp1057
g78
s(I-10
I0
tp1058
g48
s(I23
I-13
tp1059
g241
s(I29
I7
tp1060
g169
s(I16
I4
tp1061
g273
s(I19
I17
tp1062
g70
s(I41
I28
tp1063
g26
s(I2
I1
tp1064
g53
s(I-10
I5
tp1065
g195
s(I47
I18
tp1066
g94
s(I19
I-9
tp1067
g241
s(I34
I37
tp1068
g99
s(I17
I27
tp1069
g31
s(I16
I-14
tp1070
g43
s(I29
I-15
tp1071
g153
s(I23
I5
tp1072
g169
s(I45
I24
tp1073
g94
s(I10
I10
tp1074
g139
s(I35
I30
tp1075
g26
s(I25
I20
tp1076
g127
s(I25
I-11
tp1077
g131
s(I11
I25
tp1078
g37
s(I1
I3
tp1079
g380
s(I39
I26
tp1080
g26
s(I4
I8
tp1081
g220
s(I29
I0
tp1082
g149
s(I19
I22
tp1083
g210
s(I41
I5
tp1084
g15
s(I5
I23
tp1085
g89
s(I44
I-10
tp1086
g175
s(I47
I27
tp1087
g291
s(I30
I33
tp1088
g99
s(I19
I-4
tp1089
g701
s(I17
I28
tp1090
g31
s(I23
I2
tp1091
g169
s(I7
I-7
tp1092
g116
s(I45
I17
tp1093
g94
s(I-4
I20
tp1094
g57
s(I40
I-14
tp1095
g175
s(I35
I7
tp1096
g122
s(I41
I7
tp1097
g15
s(I25
I29
tp1098
g127
s(I25
I-2
tp1099
g149
s(I0
I-8
tp1100
g53
s(I1
I4
tp1101
g380
s(I13
I-5
tp1102
g43
s(I39
I19
tp1103
g94
s(I-10
I18
tp1104
g249
s(I-2
I-3
tp1105
g53
s(I48
I25
tp1106
g94
s(I29
I25
tp1107
g83
s(I41
I14
tp1108
g105
s(I5
I16
tp1109
g89
s(I-8
I-5
tp1110
g53
s(I22
I-6
tp1111
g241
s(I17
I21
tp1112
g210
s(I20
I6
tp1113
g169
s(I42
I23
tp1114
g26
s(I23
I27
tp1115
g127
s(I7
I-10
tp1116
g116
s(I45
I10
tp1117
g15
s(I-4
I19
tp1118
g57
s(I32
I1
tp1119
g149
s(I-3
I6
tp1120
g195
s(I6
I-3
tp1121
g116
s(I35
I12
tp1122
g66
s(I28
I-4
tp1123
g149
s(I11
I23
tp1124
g37
s(I-3
I12
tp1125
g164
s(I14
I0
tp1126
g388
s(I36
I21
tp1127
g26
s(I1
I29
tp1128
g231
s(I13
I-12
tp1129
g43
s(I42
I-14
tp1130
g175
s(I39
I8
tp1131
g15
s(I-10
I21
tp1132
g249
s(I26
I15
tp1133
g62
s(I48
I16
tp1134
g94
s(I29
I18
tp1135
g83
s(I34
I-1
tp1136
g122
s(I5
I25
tp1137
g37
s(I-9
I14
tp1138
g249
s(I27
I36
tp1139
g99
s(I-7
I-4
tp1140
g53
s(I22
I-3
tp1141
g746
s(I30
I19
tp1142
g83
s(I23
I-7
tp1143
g241
s(I17
I14
tp1144
g70
s(I20
I13
tp1145
g70
s(I42
I30
tp1146
g26
s(I23
I16
tp1147
g70
s(I-7
I17
tp1148
g249
s(I45
I3
tp1149
g15
s(I32
I24
tp1150
g83
s(I31
I-10
tp1151
g135
s(I28
I-5
tp1152
g153
s(I8
I17
tp1153
g89
s(I11
I12
tp1154
g139
s(I3
I-5
tp1155
g78
s(I14
I11
tp1156
g139
s(I36
I28
tp1157
g26
s(I1
I22
tp1158
g89
s(I39
I1
tp1159
g15
s(I26
I22
tp1160
g127
s(I48
I23
tp1161
g94
s(I37
I-12
tp1162
g135
s(I3
I9
tp1163
g220
s(I34
I-7
tp1164
g135
s(I2
I15
tp1165
g89
s(I5
I2
tp1166
g380
s(I-9
I7
tp1167
g195
s(I22
I-12
tp1168
g241
s(I30
I26
tp1169
g127
s(I17
I7
tp1170
g70
s(I20
I20
tp1171
g210
s(I42
I25
tp1172
g26
s(I43
I-6
tp1173
g21
s(I32
I31
tp1174
g99
s(I-2
I0
tp1175
g53
s(I28
I-14
tp1176
g153
s(I8
I24
tp1177
g89
s(I11
I5
tp1178
g190
s(I14
I18
tp1179
g139
s(I36
I27
tp1180
g26
s(I26
I17
tp1181
g62
s(I24
I-10
tp1182
g131
s(I12
I28
tp1183
g37
s(I37
I-3
tp1184
g21
s(I9
I-6
tp1185
g43
s(I-2
I-6
tp1186
g53
s(I5
I11
tp1187
g111
s(I30
I29
tp1188
g127
s(I20
I19
tp1189
g139
s(I46
I-12
tp1190
g175
s(I6
I26
tp1191
g37
s(I43
I-13
tp1192
g175
s(I32
I-6
tp1193
g135
s(I32
I22
tp1194
g83
s(I35
I35
tp1195
g99
s(I18
I25
tp1196
g31
s(I6
I-1
tp1197
g116
s(I-3
I23
tp1198
g57
s(I33
I9
tp1199
g62
s(I14
I21
tp1200
g37
s(I36
I2
tp1201
g122
s(I26
I24
tp1202
g127
s(I24
I-3
tp1203
g149
s(I12
I27
tp1204
g37
s(I15
I-11
tp1205
g43
s(I-1
I-3
tp1206
g53
s(I12
I-8
tp1207
g43
s(I-9
I21
tp1208
g249
s(I27
I11
tp1209
g62
s(I30
I4
tp1210
g4
s(I-2
I-2
tp1211
g53
s(I20
I26
tp1212
g31
s(I42
I11
tp1213
g105
s(I6
I29
tp1214
g37
s(I21
I-9
tp1215
g241
s(I18
I-6
tp1216
g43
s(I18
I16
tp1217
g70
s(I21
I5
tp1218
g169
s(I43
I24
tp1219
g26
s(I8
I6
tp1220
g284
s(I-6
I13
tp1221
g164
s(I-3
I16
tp1222
g57
s(I33
I2
tp1223
g149
s(I14
I28
tp1224
g37
s(I36
I9
tp1225
g66
s(I27
I-7
tp1226
g131
s(I12
I18
tp1227
g139
s(I-2
I17
tp1228
g57
s(I15
I7
tp1229
(iLink
Link
p1230
(dp1231
g6
I0
sg7
g510
sg9
(I243
I118
tp1232
sg11
I0
sg12
g512
sbs(I15
I-14
tp1233
g43
s(I37
I22
tp1234
g26
s(I2
I24
tp1235
g89
s(I12
I-9
tp1236
g43
s(I-9
I18
tp1237
g249
s(I27
I0
tp1238
g149
s(I49
I19
tp1239
g94
s(I30
I15
tp1240
g83
s(I33
I-5
tp1241
g135
s(I-1
I17
tp1242
g57
s(I6
I20
tp1243
g89
s(I8
I-13
tp1244
g43
s(I28
I33
tp1245
g99
s(I32
I36
tp1246
g99
s(I31
I20
tp1247
g83
s(I18
I-11
tp1248
g43
s(I18
I11
tp1249
g70
s(I47
I-1
tp1250
g21
s(I21
I14
tp1251
g70
s(I43
I17
tp1252
g94
s(I8
I13
tp1253
g111
s(I-6
I20
tp1254
g249
s(I33
I27
tp1255
g26
s(I30
I-15
tp1256
g153
s(I27
I-2
tp1257
g149
s(I-10
I-2
tp1258
g48
s(I9
I18
tp1259
g89
s(I12
I9
tp1260
g190
s(I-1
I24
tp1261
g57
s(I15
I12
tp1262
g139
s(I15
I-5
tp1263
g43
s(I37
I31
tp1264
g26
s(I2
I19
tp1265
g89
s(I27
I25
tp1266
g83
s(I49
I20
tp1267
g94
s(I36
I-9
tp1268
g135
s(I33
I-4
tp1269
g135
s(I3
I16
tp1270
g89
s(I25
I35
tp1271
g99
s(I6
I15
tp1272
g89
s(I8
I-6
tp1273
g43
s(I21
I-7
tp1274
g241
s(I31
I29
tp1275
g127
s(I18
I2
tp1276
g273
s(I21
I23
tp1277
g210
s(I43
I22
tp1278
g26
s(I46
I1
tp1279
g15
s(I33
I28
tp1280
g26
s(I46
I10
tp1281
g15
s(I30
I-8
tp1282
g153
s(I4
I6
tp1283
g220
s(I27
I-9
tp1284
g131
s(I-5
I7
tp1285
g195
s(I9
I27
tp1286
g37
s(I12
I0
tp1287
g184
s(I-1
I3
tp1288
g48
s(I15
I21
tp1289
g210
s(I37
I24
tp1290
g26
s(I24
I3
tp1291
g169
s(I27
I30
tp1292
g99
s(I36
I-2
tp1293
g135
s(I33
I-11
tp1294
g135
s(I3
I25
tp1295
g231
s(I25
I36
tp1296
g99
s(I6
I6
tp1297
g284
s(I31
I26
tp1298
g127
s(I40
I18
tp1299
g94
s(I21
I16
tp1300
g70
s(I43
I15
tp1301
g94
s(I7
I29
tp1302
g37
s(I46
I8
tp1303
g15
s(I2
I-5
tp1304
g53
s(I33
I21
tp1305
g26
s(I32
I15
tp1306
g83
s(I24
I-11
tp1307
g131
s(I9
I28
tp1308
g37
s(I-5
I13
tp1309
g164
s(I-2
I10
tp1310
g164
s(I34
I12
tp1311
g62
s(I15
I18
tp1312
g139
s(I37
I1
tp1313
g21
s(I24
I10
tp1314
g70
s(I37
I-2
tp1315
g21
s(I9
I3
tp1316
g184
s(I13
I24
tp1317
g37
s(I14
I-14
tp1318
g43
s(I11
I-3
tp1319
g116
s(I28
I14
tp1320
g62
s(I31
I3
tp1321
g4
s(I40
I25
tp1322
g26
s(I-2
I11
tp1323
g164
s(I43
I4
tp1324
g15
s(I7
I26
tp1325
g37
s(I46
I19
tp1326
g94
s(I20
I-12
tp1327
g241
s(I22
I8
tp1328
g169
s(I44
I29
tp1329
g291
s(I9
I5
tp1330
g284
s(I5
I-4
tp1331
g380
s(I-2
I13
tp1332
g164
s(I34
I7
tp1333
g122
s(I15
I27
tp1334
g31
s(I37
I10
tp1335
g66
s(I24
I17
tp1336
g70
s(I26
I-10
tp1337
g131
s(I39
I-7
tp1338
g21
s(I13
I17
tp1339
g139
s(I0
I10
tp1340
g164
s(I14
I-11
tp1341
g43
s(I38
I27
tp1342
g26
s(I3
I7
tp1343
g220
s(I11
I-14
tp1344
g43
s(I28
I5
tp1345
g169
s(I32
I-15
tp1346
g153
s(I31
I8
tp1347
g62
s(I48
I-6
tp1348
g406
s(I32
I-8
tp1349
g135
s(I45
I-5
tp1350
g21
s(I7
I19
tp1351
g89
s(I46
I26
tp1352
g291
s(I29
I34
tp1353
g99
s(I20
I-13
tp1354
g241
s(I16
I25
tp1355
g31
s(I22
I3
tp1356
g169
s(I44
I20
tp1357
g94
s(I9
I14
tp1358
g89
s(I34
I30
tp1359
g26
s(I24
I24
tp1360
g127
s(I26
I-15
tp1361
g131
s(I10
I23
tp1362
g89
s(I39
I-10
tp1363
g135
s(I13
I10
tp1364
g139
s(I0
I1
tp1365
g53
s(I14
I-4
tp1366
g43
s(I38
I18
tp1367
g66
s(I3
I12
tp1368
g111
s(I4
I-6
tp1369
g78
s(I42
I3
tp1370
g15
s(I28
I28
tp1371
g127
s(I35
I-14
tp1372
g153
s(I40
I7
tp1373
g15
s(I4
I21
tp1374
g89
s(I45
I-12
tp1375
g175
s(I7
I8
tp1376
g111
s(I46
I29
tp1377
g291
s(I20
I-6
tp1378
g241
s(I16
I16
tp1379
g70
s(I27
I-1
tp1380
g149
s(I22
I26
tp1381
g31
s(I-8
I5
tp1382
g195
s(I44
I19
tp1383
g94
s(I-5
I16
tp1384
g57
s(I47
I6
tp1385
g15
s(I34
I25
tp1386
g26
s(I26
I-8
tp1387
g131
s(I13
I3
tp1388
g184
s(I1
I-6
tp1389
g53
s(I0
I24
tp1390
g89
s(I9
I-1
tp1391
g116
s(I38
I21
tp1392
g26
s(I-2
I24
tp1393
g57
s(I25
I0
tp1394
g149
s(I28
I27
tp1395
g127
s(I35
I-5
tp1396
g135
s(I32
I-10
tp1397
g135
s(I4
I28
tp1398
g231
s(I-3
I-4
tp1399
g53
s(I26
I33
tp1400
g99
s(I7
I1
tp1401
g184
s(I23
I-4
tp1402
g746
s(I41
I-10
tp1403
g135
s(I16
I23
tp1404
g210
s(I9
I-14
tp1405
g43
s(I19
I2
tp1406
g169
s(I41
I17
tp1407
g94
s(I22
I29
tp1408
g31
s(I-8
I12
tp1409
g164
s(I44
I10
tp1410
g15
s(I41
I-7
tp1411
g21
s(I34
I16
tp1412
g83
s(I29
I-1
tp1413
g149
s(I6
I-7
tp1414
g116
s(I10
I25
tp1415
g37
s(I-4
I8
tp1416
g195
s(I35
I19
tp1417
g83
s(I38
I12
tp1418
g105
s(I25
I9
tp1419
g62
s(I28
I18
tp1420
g83
s(I4
I27
tp1421
g231
s(I-10
I14
tp1422
g249
s(I23
I-11
tp1423
g241
s(I29
I13
tp1424
g62
s(I16
I14
tp1425
g70
s(I39
I25
tp1426
g26
s(I19
I11
tp1427
g70
s(I41
I26
tp1428
g26
s(I22
I20
tp1429
g210
s(I-8
I19
tp1430
g249
s(I44
I1
tp1431
g15
s(I10
I-8
tp1432
g43
s(I47
I20
tp1433
g94
s(I19
I-15
tp1434
g241
s(I16
I-4
tp1435
g43
s(I29
I-9
tp1436
g153
s(I23
I15
tp1437
g70
s(I10
I0
tp1438
g184
s(I-4
I7
tp1439
g195
s(I35
I24
tp1440
g26
s(I0
I22
tp1441
g89
s(I38
I7
tp1442
g15
s(I25
I18
tp1443
g62
s(I17
I-1
tp1444
g388
s(I25
I-13
tp1445
g131
s(I38
I-2
tp1446
g21
s(I1
I9
tp1447
g220
s(I39
I28
tp1448
g26
s(I-4
I-6
tp1449
g53
s(I10
I-3
tp1450
g116
s(I23
I-14
tp1451
g241
s(I29
I6
tp1452
g169
s(I16
I5
tp1453
g190
s(I40
I-2
tp1454
g21
s(I19
I16
tp1455
g70
s(I41
I3
tp1456
g15
s(I44
I-8
tp1457
g21
s(I47
I29
tp1458
g291
s(I19
I-10
tp1459
g241
s(I34
I34
tp1460
g99
s(I17
I26
tp1461
g31
s(I16
I-13
tp1462
g43
s(I23
I4
tp1463
g169
s(I45
I23
tp1464
g94
s(I10
I11
tp1465
g139
s(I-9
I-6
tp1466
g48
s(I-5
I5
tp1467
g195
s(I41
I0
tp1468
g15
s(I25
I27
tp1469
g127
s(I25
I-12
tp1470
g131
s(I11
I24
tp1471
g37
s(I38
I-15
tp1472
g153
s(I1
I2
tp1473
g78
s(I39
I21
tp1474
g26
s(I4
I9
tp1475
g220
s(I-10
I24
tp1476
g249
s(I2
I0
tp1477
g53
s(I29
I31
tp1478
g99
s(I19
I25
tp1479
g31
s(I41
I4
tp1480
g15
s(I5
I22
tp1481
g89
s(I44
I-9
tp1482
g21
s(I47
I26
tp1483
g291
s(I40
I6
tp1484
g15
s(I17
I19
tp1485
g139
s(I23
I29
tp1486
g127
s(I7
I-8
tp1487
g116
s(I45
I16
tp1488
g94
s(I-4
I21
tp1489
g57
s(I40
I-13
tp1490
g175
s(I3
I-7
tp1491
g78
s(I35
I6
tp1492
g122
s(I25
I28
tp1493
g127
s(I25
I-3
tp1494
g149
s(I48
I5
tp1495
g15
s(I11
I17
tp1496
g139
s(I0
I-7
tp1497
g53
s(I1
I27
tp1498
g231
s(I13
I-6
tp1499
g43
s(I42
I-11
tp1500
g175
s(I39
I18
tp1501
g94
s(I-10
I19
tp1502
g249
s(I26
I5
tp1503
g169
s(I29
I24
tp1504
g83
s(I41
I13
tp1505
g105
s(I-8
I-4
tp1506
g53
s(I22
I-5
tp1507
g241
s(I23
I-1
tp1508
g746
s(I17
I20
tp1509
g210
s(I-7
I2
tp1510
g48
s(I20
I7
tp1511
g169
s(I42
I20
tp1512
g94
s(I23
I26
tp1513
g127
s(I-7
I15
tp1514
g249
s(I45
I9
tp1515
g15
s(I40
I-6
tp1516
g21
s(I35
I15
tp1517
g83
s(I28
I-3
tp1518
g149
s(I46
I-1
tp1519
g21
s(I11
I22
tp1520
g37
s(I-3
I11
tp1521
g164
s(I14
I1
tp1522
g388
s(I36
I22
tp1523
g26
s(I1
I28
tp1524
g231
s(I13
I-13
tp1525
g43
s(I39
I11
tp1526
g105
s(I26
I12
tp1527
g62
s(I48
I17
tp1528
g94
s(I29
I17
tp1529
g83
s(I3
I6
tp1530
g220
s(I5
I24
tp1531
g89
s(I-9
I9
tp1532
g164
s(I22
I-14
tp1533
g241
s(I30
I16
tp1534
g83
s(I17
I13
tp1535
g70
s(I20
I14
tp1536
g70
s(I42
I31
tp1537
g26
s(I23
I19
tp1538
g127
s(I-7
I16
tp1539
g249
s(I45
I2
tp1540
g15
s(I-2
I5
tp1541
g195
s(I32
I25
tp1542
g83
s(I31
I-15
tp1543
g153
s(I-2
I3
tp1544
g48
s(I28
I-12
tp1545
g153
s(I8
I18
tp1546
g89
s(I11
I15
tp1547
g139
s(I-3
I4
tp1548
g195
s(I14
I8
tp1549
g190
s(I0
I-9
tp1550
g53
s(I36
I29
tp1551
g26
s(I1
I21
tp1552
g89
s(I39
I0
tp1553
g15
s(I26
I23
tp1554
g127
s(I48
I8
tp1555
g15
s(I-5
I-6
tp1556
g53
s(I37
I-13
tp1557
g153
s(I34
I-10
tp1558
g135
s(I2
I12
tp1559
g111
s(I5
I1
tp1560
g380
s(I9
I-8
tp1561
g43
s(I22
I-11
tp1562
g241
s(I30
I27
tp1563
g127
s(I17
I6
tp1564
g190
s(I20
I21
tp1565
g210
s(I42
I6
tp1566
g15
s(I48
I-5
tp1567
g406
s(I43
I-3
tp1568
g21
s(I32
I-7
tp1569
g135
s(I32
I16
tp1570
g83
s(I-8
I1
tp1571
g53
s(I31
I-2
tp1572
g135
s(I28
I-13
tp1573
g153
s(I8
I25
tp1574
g37
s(I11
I4
tp1575
g184
s(I14
I19
tp1576
g139
s(I36
I4
tp1577
g122
s(I13
I-1
tp1578
g116
s(I26
I30
tp1579
g99
s(I48
I15
tp1580
g94
s(I12
I29
tp1581
g37
s(I37
I-4
tp1582
g21
s(I34
I-15
tp1583
g153
s(I2
I7
tp1584
g220
s(I5
I10
tp1585
g111
s(I30
I2
tp1586
g149
s(I36
I-1
tp1587
g122
s(I-10
I-5
tp1588
g48
s(I20
I28
tp1589
g31
s(I46
I-11
tp1590
g175
s(I6
I27
tp1591
g37
s(I43
I-14
tp1592
g175
s(I32
I23
tp1593
g83
s(I31
I33
tp1594
g99
s(I3
I-2
tp1595
g78
s(I35
I34
tp1596
g99
s(I18
I22
tp1597
g210
s(I8
I0
tp1598
g184
s(I-6
I3
tp1599
g48
s(I-3
I22
tp1600
g57
s(I33
I8
tp1601
g62
s(I14
I26
tp1602
g37
s(I36
I3
tp1603
g122
s(I26
I25
tp1604
g127
s(I24
I-1
tp1605
g149
s(I12
I20
tp1606
g37
s(I15
I-12
tp1607
g43
s(I-6
I-6
tp1608
g53
s(I12
I-7
tp1609
g43
s(I-9
I20
tp1610
g249
s(I27
I10
tp1611
g62
s(I49
I25
tp1612
g94
s(I30
I5
tp1613
g4
s(I20
I27
tp1614
g31
s(I-1
I16
tp1615
g57
s(I46
I-4
tp1616
g21
s(I6
I18
tp1617
g89
s(I21
I-10
tp1618
g241
s(I18
I-5
tp1619
g43
s(I18
I17
tp1620
g70
s(I21
I4
tp1621
g169
s(I43
I27
tp1622
g26
s(I8
I7
tp1623
g111
s(I6
I-10
tp1624
g116
s(I33
I1
tp1625
g149
s(I14
I29
tp1626
g37
s(I36
I10
tp1627
g66
s(I27
I-8
tp1628
g131
s(I-6
I2
tp1629
g78
s(I12
I19
tp1630
g139
s(I-2
I22
tp1631
g57
s(I15
I6
tp1632
g190
s(I15
I-3
tp1633
g388
s(I37
I21
tp1634
g26
s(I2
I25
tp1635
g231
s(I27
I3
tp1636
g169
s(I49
I18
tp1637
g94
s(I30
I12
tp1638
g62
s(I33
I-6
tp1639
g135
s(I6
I21
tp1640
g89
s(I8
I-12
tp1641
g43
s(I28
I34
tp1642
g99
s(I32
I37
tp1643
g99
s(I31
I23
tp1644
g83
s(I18
I-14
tp1645
g43
s(I18
I8
tp1646
g70
s(I21
I13
tp1647
g70
s(I43
I16
tp1648
g94
s(I8
I14
tp1649
g89
s(I-6
I21
tp1650
g249
s(I33
I26
tp1651
g26
s(I3
I0
tp1652
g78
s(I30
I-10
tp1653
g153
s(I-4
I-3
tp1654
g53
s(I27
I-15
tp1655
g131
s(I9
I17
tp1656
g89
s(I12
I10
tp1657
g139
s(I15
I15
tp1658
g139
s(I15
I-6
tp1659
g43
s(I37
I30
tp1660
g26
s(I2
I16
tp1661
g89
s(I27
I24
tp1662
g83
s(I33
I-13
tp1663
g153
s(I3
I19
tp1664
g89
s(I25
I34
tp1665
g99
s(I6
I12
tp1666
g111
s(I8
I-5
tp1667
g43
s(I21
I-8
tp1668
g241
s(I31
I28
tp1669
g127
s(I18
I3
tp1670
g273
s(I21
I22
tp1671
g210
s(I43
I9
tp1672
g15
s(I46
I6
tp1673
g15
s(I33
I19
tp1674
g83
s(I40
I-10
tp1675
g135
s(I30
I-7
tp1676
g153
s(I48
I12
tp1677
g105
s(I27
I-10
tp1678
g131
s(I9
I26
tp1679
g37
s(I12
I1
tp1680
g184
s(I-1
I0
tp1681
g53
s(I15
I20
tp1682
g210
s(I37
I7
tp1683
g122
s(I48
I-4
tp1684
g406
s(I27
I17
tp1685
g83
s(I33
I-12
tp1686
g135
s(I3
I24
tp1687
g89
s(I6
I7
tp1688
g111
s(I31
I5
tp1689
g4
s(I40
I19
tp1690
g94
s(I-1
I10
tp1691
g164
s(I43
I14
tp1692
g105
s(I7
I28
tp1693
g37
s(I42
I-3
tp1694
g21
s(I33
I20
tp1695
g83
s(I-9
I-3
tp1696
g48
s(I-5
I12
tp1697
g164
s(I2
I-9
tp1698
g53
s(I34
I13
tp1699
g62
s(I15
I29
tp1700
g31
s(I9
I-4
tp1701
g43
s(I37
I0
tp1702
g21
s(I24
I11
tp1703
g70
s(I27
I22
tp1704
g83
s(I-5
I-3
tp1705
g53
s(I13
I23
tp1706
g37
s(I14
I-13
tp1707
g43
s(I3
I1
tp1708
g78
s(I11
I-4
tp1709
g43
s(I24
I6
tp1710
g169
s(I28
I15
tp1711
g83
s(I31
I2
tp1712
g149
s(I16
I-2
tp1713
g388
s(I40
I26
tp1714
g26
s(I21
I24
tp1715
g210
s(I43
I7
tp1716
g15
s(I7
I-6
tp1717
g116
s(I7
I21
tp1718
g89
s(I46
I16
tp1719
g94
s(I27
I23
tp1720
g83
s(I20
I-11
tp1721
g241
s(I17
I-2
tp1722
g388
s(I22
I9
tp1723
g70
s(I32
I10
tp1724
g62
s(I9
I4
tp1725
g184
s(I5
I-5
tp1726
g380
s(I34
I4
tp1727
g122
s(I15
I26
tp1728
g31
s(I37
I9
tp1729
g66
s(I24
I18
tp1730
g210
s(I26
I-9
tp1731
g131
s(I39
I-8
tp1732
g21
s(I13
I16
tp1733
g139
s(I0
I11
tp1734
g164
s(I14
I-6
tp1735
g43
s(I38
I24
tp1736
g26
s(I-3
I-8
tp1737
g53
s(I11
I-11
tp1738
g43
s(I-4
I1
tp1739
g53
s(I46
I-10
tp1740
g175
s(I28
I6
tp1741
g169
s(I31
I11
tp1742
g62
s(I40
I1
tp1743
g15
s(I45
I-6
tp1744
g21
s(I-2
I-5
tp1745
g53
s(I7
I18
tp1746
g89
s(I46
I27
tp1747
g291
s(I29
I33
tp1748
g99
s(I20
I-4
tp1749
g701
s(I16
I26
tp1750
g31
s(I17
I-9
tp1751
g43
s(I22
I0
tp1752
g169
s(I44
I21
tp1753
g94
s(I9
I13
tp1754
g111
s(I34
I31
tp1755
g26
s(I24
I25
tp1756
g127
s(I26
I-2
tp1757
g149
s(I10
I20
tp1758
g89
s(I39
I-15
tp1759
g175
s(I13
I9
tp1760
g190
s(I0
I2
tp1761
g78
s(I14
I-3
tp1762
g388
s(I38
I19
tp1763
g291
s(I3
I15
tp1764
g89
s(I28
I29
tp1765
g127
s(I35
I-11
tp1766
g135
s(I40
I8
tp1767
g15
s(I4
I22
tp1768
g89
s(I45
I-13
tp1769
g175
s(I7
I11
tp1770
g111
s(I41
I-9
tp1771
g21
s(I5
I0
tp1772
g380
s(I20
I-5
tp1773
g241
s(I16
I17
tp1774
g70
s(I-9
I13
tp1775
g164
s(I22
I27
tp1776
g31
s(I-8
I6
tp1777
g195
s(I44
I12
tp1778
g105
s(I-5
I19
tp1779
g57
s(I47
I1
tp1780
g15
s(I34
I22
tp1781
g26
s(I5
I-3
tp1782
g380
s(I22
I-2
tp1783
g746
s(I26
I-7
tp1784
g131
s(I-6
I4
tp1785
g195
s(I13
I2
tp1786
g184
s(I1
I-7
tp1787
g53
s(I21
I25
tp1788
g31
s(I0
I25
tp1789
g231
s(I38
I10
tp1790
g15
s(I25
I7
tp1791
g169
s(I28
I20
tp1792
g83
s(I35
I-6
tp1793
g135
s(I40
I15
tp1794
g94
s(I4
I29
tp1795
g231
s(I7
I0
tp1796
g184
s(I16
I8
tp1797
g70
s(I19
I5
tp1798
g169
s(I41
I16
tp1799
g94
s(I22
I18
tp1800
g210
s(I-8
I13
tp1801
g164
s(I44
I11
tp1802
g105
s(I-4
I-5
tp1803
g53
s(I41
I-8
tp1804
g21
s(I34
I17
tp1805
g83
s(I29
I-3
tp1806
g149
s(I10
I6
tp1807
g190
s(I-4
I9
tp1808
g164
s(I35
I18
tp1809
g83
s(I0
I16
tp1810
g89
s(I38
I13
tp1811
g105
s(I25
I8
tp1812
g62
s(I28
I19
tp1813
g83
s(I4
I4
tp1814
g380
s(I-10
I15
tp1815
g249
s(I23
I-12
tp1816
g241
s(I29
I12
tp1817
g62
s(I16
I15
tp1818
g70
s(I46
I-3
tp1819
g21
s(I32
I5
tp1820
g4
s(I19
I10
tp1821
g70
s(I48
I3
tp1822
g15
s(I22
I21
tp1823
g210
s(I-8
I20
tp1824
g249
s(I44
I2
tp1825
g15
s(I47
I23
tp1826
g94
s(I16
I-3
tp1827
g388
s(I-3
I0
tp1828
g53
s(I29
I-10
tp1829
g153
s(I23
I14
tp1830
g70
s(I45
I29
tp1831
g291
s(I10
I1
tp1832
g184
s(I-4
I0
tp1833
g53
s(I46
I9
tp1834
g15
s(I-5
I2
tp1835
g78
s(I0
I23
tp1836
g89
s(I41
I1
tp1837
g15
s(I38
I4
tp1838
g15
s(I25
I17
tp1839
g62
s(I25
I-14
tp1840
g131
s(I1
I8
tp1841
g220
s(I-1
I13
tp1842
g164
s(I4
I3
tp1843
g380
s(I10
I-6
tp1844
g43
s(I29
I5
tp1845
g169
s(I12
I-2
tp1846
g116
s(I16
I6
tp1847
g190
s(I-9
I-2
tp1848
g48
s(I19
I19
tp1849
g139
s(I41
I2
tp1850
g15
s(I44
I-7
tp1851
g21
s(I47
I28
tp1852
g291
s(I19
I-7
tp1853
g241
s(I34
I35
tp1854
g99
s(I17
I25
tp1855
g31
s(I16
I-12
tp1856
g43
s(I23
I7
tp1857
g169
s(I45
I22
tp1858
g94
s(I10
I8
tp1859
g190
s(I35
I0
tp1860
g122
s(I25
I26
tp1861
g127
s(I25
I-5
tp1862
g131
s(I32
I-9
tp1863
g135
s(I38
I-10
tp1864
g135
s(I1
I1
tp1865
g53
s(I46
I0
tp1866
g15
s(I39
I20
tp1867
g94
s(I4
I10
tp1868
g111
s(I29
I30
tp1869
g99
s(I19
I24
tp1870
g210
s(I47
I-3
tp1871
g21
s(I5
I21
tp1872
g89
s(I-7
I-2
tp1873
g53
s(I19
I-2
tp1874
g169
s(I17
I18
tp1875
g139
s(I-7
I3
tp1876
g48
s(I23
I28
tp1877
g127
s(I7
I-5
tp1878
g116
s(I45
I15
tp1879
g94
s(I-4
I22
tp1880
g57
s(I40
I-12
tp1881
g135
s(I35
I9
tp1882
g66
s(I42
I13
tp1883
g105
s(I25
I-4
tp1884
g149
s(I11
I16
tp1885
g139
s(I0
I-6
tp1886
g53
s(I1
I26
tp1887
g231
s(I13
I-7
tp1888
g43
s(I39
I13
tp1889
g105
s(I-10
I16
tp1890
g249
s(I26
I2
tp1891
g149
s(I29
I23
tp1892
g83
s(I-3
I-7
tp1893
g53
s(I47
I-6
tp1894
g21
s(I31
I35
tp1895
g99
s(I27
I33
tp1896
g99
s(I-8
I-3
tp1897
g53
s(I22
I-8
tp1898
g241
s(I17
I11
tp1899
g70
s(I20
I0
tp1900
g169
s(I42
I21
tp1901
g26
s(I23
I21
tp1902
g127
s(I-7
I14
tp1903
g249
s(I45
I8
tp1904
g15
s(I32
I3
tp1905
g4
s(I35
I14
tp1906
g66
s(I2
I-1
tp1907
g53
s(I28
I-1
tp1908
g149
s(I11
I9
tp1909
g190
s(I-3
I10
tp1910
g164
s(I14
I6
tp1911
g190
s(I36
I23
tp1912
g26
s(I1
I19
tp1913
g89
s(I13
I-14
tp1914
g43
s(I39
I10
tp1915
g15
s(I26
I13
tp1916
g62
s(I47
I14
tp1917
g105
s(I29
I16
tp1918
g83
s(I5
I5
tp1919
g220
s(I21
I7
tp1920
g169
s(I34
I-4
tp1921
g135
s(I5
I7
tp1922
g220
s(I9
I-10
tp1923
g43
s(I22
I-13
tp1924
g241
s(I30
I17
tp1925
g83
s(I17
I12
tp1926
g70
s(I20
I15
tp1927
g70
s(I42
I28
tp1928
g26
s(I23
I18
tp1929
g210
s(I-7
I23
tp1930
g249
s(I45
I1
tp1931
g15
s(I40
I0
tp1932
g15
s(I32
I26
tp1933
g127
s(I28
I-11
tp1934
g153
s(I8
I19
tp1935
g89
s(I11
I14
tp1936
g139
s(I-3
I3
tp1937
g48
s(I14
I9
tp1938
g190
s(I36
I30
tp1939
g26
s(I1
I20
tp1940
g89
s(I39
I3
tp1941
g15
s(I26
I20
tp1942
g127
s(I24
I-15
tp1943
g131
s(I37
I-14
tp1944
g153
s(I34
I-9
tp1945
g135
s(I2
I13
tp1946
g111
s(I-5
I-1
tp1947
g53
s(I-9
I1
tp1948
g48
s(I30
I24
tp1949
g83
s(I17
I5
tp1950
g190
s(I-10
I-6
tp1951
g48
s(I20
I22
tp1952
g210
s(I46
I-13
tp1953
g175
s(I-7
I24
tp1954
g249
s(I43
I-4
tp1955
g21
s(I32
I17
tp1956
g83
s(I18
I28
tp1957
g31
s(I31
I-7
tp1958
g135
s(I24
I4
tp1959
g169
s(I8
I26
tp1960
g37
s(I11
I7
tp1961
g190
s(I14
I16
tp1962
g139
s(I36
I5
tp1963
g122
s(I49
I-1
tp1964
g406
s(I26
I31
tp1965
g99
s(I48
I0
tp1966
g15
s(I37
I-5
tp1967
g21
s(I2
I4
tp1968
g380
s(I-5
I-9
tp1969
g53
s(I30
I3
tp1970
g4
s(I20
I29
tp1971
g31
s(I-1
I19
tp1972
g57
s(I42
I14
tp1973
g105
s(I6
I24
tp1974
g89
s(I43
I-11
tp1975
g175
s(I31
I32
tp1976
g99
s(I35
I37
tp1977
g99
s(I18
I23
tp1978
g210
s(I47
I-4
tp1979
g21
s(I8
I1
tp1980
g184
s(I6
I-4
tp1981
g116
s(I-3
I21
tp1982
g57
s(I33
I15
tp1983
g83
s(I14
I27
tp1984
g37
s(I36
I12
tp1985
g66
s(I-2
I1
tp1986
g53
s(I48
I7
tp1987
g15
s(I12
I21
tp1988
g37
s(I15
I-9
tp1989
g43
s(I12
I-6
tp1990
g43
s(I-9
I23
tp1991
g249
s(I27
I13
tp1992
g62
s(I49
I24
tp1993
g94
s(I30
I10
tp1994
g62
s(I42
I9
tp1995
g15
s(I6
I19
tp1996
g89
s(I28
I36
tp1997
g99
s(I21
I-11
tp1998
g241
s(I18
I-8
tp1999
g43
s(I18
I14
tp2000
g70
s(I21
I3
tp2001
g169
s(I43
I26
tp2002
g26
s(I8
I8
tp2003
g111
s(I6
I-9
tp2004
g116
s(I33
I0
tp2005
g149
s(I36
I11
tp2006
g66
s(I-4
I-4
tp2007
g53
s(I27
I-5
tp2008
g131
s(I10
I-13
tp2009
g43
s(I12
I12
tp2010
g139
s(I-2
I23
tp2011
g57
s(I15
I1
tp2012
g388
s(I15
I-4
tp2013
g43
s(I37
I20
tp2014
g83
s(I2
I22
tp2015
g89
s(I27
I2
tp2016
g149
s(I49
I17
tp2017
g94
s(I30
I13
tp2018
g62
s(I47
I7
tp2019
g15
s(I33
I-7
tp2020
g135
s(I6
I10
tp2021
g111
s(I8
I-11
tp2022
g43
s(I28
I35
tp2023
g99
s(I21
I-1
tp2024
g169
s(I31
I22
tp2025
g83
s(I18
I-13
tp2026
g43
s(I18
I9
tp2027
(iLink
Link
p2028
(dp2029
g6
I0
sg7
g784
sg9
(I293
I147
tp2030
sg11
I0
sg12
g786
sbs(I21
I12
tp2031
g70
s(I43
I19
tp2032
g94
s(I8
I15
tp2033
g89
s(I-6
I18
tp2034
g249
s(I33
I25
tp2035
g26
s(I40
I-11
tp2036
g135
s(I30
I-9
tp2037
g153
s(I24
I-13
tp2038
g131
s(I9
I16
tp2039
g89
s(I12
I11
tp2040
g139
s(I15
I14
tp2041
g139
s(I37
I29
tp2042
g26
s(I2
I17
tp2043
g89
s(I-4
I-7
tp2044
g53
s(I27
I27
tp2045
g127
s(I36
I-15
tp2046
g153
s(I41
I25
tp2047
g26
s(I33
I-14
tp2048
g153
s(I3
I18
tp2049
g89
s(I25
I33
tp2050
g99
s(I6
I13
tp2051
g111
s(I8
I-4
tp2052
g43
s(I31
I31
tp2053
g99
s(I18
I0
tp2054
g388
s(I2
I-7
tp2055
g53
s(I43
I8
tp2056
g15
s(I-2
I-9
tp2057
g53
s(I46
I7
tp2058
g15
s(I47
I11
tp2059
g105
s(I33
I18
tp2060
g83
s(I-1
I-7
tp2061
g53
s(I30
I-2
tp2062
g149
s(I9
I25
tp2063
g37
s(I12
I2
tp2064
g184
s(I2
I-3
tp2065
g53
s(I15
I23
tp2066
g210
s(I-9
I3
tp2067
g48
s(I37
I6
tp2068
g122
s(I48
I-3
tp2069
g406
s(I27
I16
tp2070
g83
s(I49
I3
tp2071
g406
s(I-1
I7
tp2072
g195
s(I13
I29
tp2073
g37
s(I36
I-8
tp2074
g135
s(I-4
I-8
tp2075
g53
s(I3
I27
tp2076
g231
s(I-6
I-8
tp2077
g53
s(I31
I4
tp2078
g4
s(I40
I20
tp2079
g94
s(I43
I1
tp2080
g15
s(I46
I14
tp2081
g105
s(I-9
I-4
tp2082
g48
s(I-5
I15
tp2083
g57
s(I-1
I8
tp2084
g195
s(I34
I10
tp2085
g62
s(I15
I28
tp2086
g31
s(I37
I15
tp2087
g83
s(I24
I12
tp2088
g70
s(I13
I22
tp2089
g37
s(I-10
I-3
tp2090
g48
s(I-3
I-1
tp2091
g53
s(I4
I-8
tp2092
g78
s(I42
I5
tp2093
g15
s(I28
I8
tp2094
g62
s(I31
I13
tp2095
g62
s(I-6
I-2
tp2096
g53
s(I40
I27
tp2097
g26
s(I43
I6
tp2098
g15
s(I7
I20
tp2099
g89
s(I46
I17
tp2100
g94
s(I20
I-10
tp2101
g241
s(I17
I-3
tp2102
g388
s(I35
I27
tp2103
g26
s(I9
I11
tp2104
g111
s(I5
I-6
tp2105
g380
s(I34
I5
tp2106
g122
s(I37
I8
tp2107
g66
s(I24
I19
tp2108
g127
s(I26
I-12
tp2109
g131
s(I39
I-5
tp2110
g21
s(I13
I15
tp2111
g139
s(I0
I12
tp2112
g164
s(I14
I-5
tp2113
g43
s(I38
I25
tp2114
g26
s(I-3
I-9
tp2115
g53
s(I11
I-12
tp2116
g43
s(I28
I7
tp2117
g169
s(I31
I10
tp2118
g62
s(I40
I2
tp2119
g15
s(I45
I-7
tp2120
g21
s(I7
I13
tp2121
g111
s(I46
I24
tp2122
g94
s(I29
I32
tp2123
g99
s(I20
I-3
tp2124
g701
s(I33
I37
tp2125
g99
s(I16
I27
tp2126
g31
s(I17
I-10
tp2127
g43
s(I22
I1
tp2128
g169
s(I-8
I0
tp2129
g53
s(I44
I22
tp2130
g94
s(I9
I12
tp2131
g111
s(I34
I28
tp2132
g26
s(I-8
I-1
tp2133
g53
s(I24
I26
tp2134
g127
s(I6
I-5
tp2135
g116
s(I10
I21
tp2136
g89
s(I13
I8
tp2137
g190
s(I0
I3
tp2138
g48
s(I38
I16
tp2139
g66
s(I3
I14
tp2140
g89
s(I28
I30
tp2141
g99
s(I35
I-12
tp2142
g135
s(I40
I9
tp2143
g15
s(I4
I23
tp2144
g89
s(I45
I-14
tp2145
g175
s(I26
I36
tp2146
g99
s(I7
I10
tp2147
g111
s(I16
I18
tp2148
g139
s(I39
I31
tp2149
g26
s(I22
I24
tp2150
g210
s(I-8
I7
tp2151
g195
s(I44
I13
tp2152
g105
s(I-5
I18
tp2153
g57
s(I-10
I6
tp2154
g195
s(I47
I0
tp2155
g15
s(I34
I23
tp2156
g26
s(I10
I28
tp2157
g37
s(I13
I1
tp2158
g184
s(I1
I-8
tp2159
g53
s(I0
I26
tp2160
g231
s(I-7
I13
tp2161
g164
s(I38
I11
tp2162
g105
s(I33
I-2
tp2163
g135
s(I25
I6
tp2164
g169
s(I28
I21
tp2165
g83
s(I35
I-3
tp2166
g135
s(I7
I3
tp2167
g184
s(I23
I-2
tp2168
g746
s(I16
I9
tp2169
g70
s(I32
I4
tp2170
g4
s(I19
I4
tp2171
g169
s(I41
I23
tp2172
g26
s(I22
I19
tp2173
g210
s(I-8
I14
tp2174
g249
s(I44
I4
tp2175
g15
s(I47
I9
tp2176
g15
s(I29
I-4
tp2177
g149
s(I10
I7
tp2178
g190
s(I-4
I10
tp2179
g164
s(I35
I21
tp2180
g26
s(I0
I17
tp2181
g89
s(I47
I-12
tp2182
g175
s(I38
I2
tp2183
g15
s(I25
I15
tp2184
g62
s(I-1
I12
tp2185
g164
s(I4
I5
tp2186
g220
s(I-10
I12
tp2187
g164
s(I-1
I-1
tp2188
g53
s(I23
I-9
tp2189
g241
s(I29
I11
tp2190
g62
s(I16
I0
tp2191
g388
s(I-7
I0
tp2192
g53
s(I19
I13
tp2193
g70
s(I41
I24
tp2194
g26
s(I-8
I21
tp2195
g249
s(I44
I3
tp2196
g15
s(I47
I22
tp2197
g94
s(I19
I-13
tp2198
g241
s(I16
I-1
tp2199
g388
s(I29
I-11
tp2200
g153
s(I23
I9
tp2201
g70
s(I45
I28
tp2202
g291
s(I10
I14
tp2203
g89
s(I4
I-7
tp2204
g78
s(I35
I26
tp2205
g26
s(I38
I5
tp2206
g15
s(I25
I16
tp2207
g62
s(I25
I-15
tp2208
g131
s(I40
I14
tp2209
g105
s(I38
I-4
tp2210
g21
s(I1
I15
tp2211
g89
s(I46
I3
tp2212
g15
s(I39
I30
tp2213
g26
s(I4
I12
tp2214
g111
s(I-10
I7
tp2215
g195
s(I29
I4
tp2216
g169
s(I16
I7
tp2217
g70
s(I41
I-2
tp2218
g21
s(I19
I18
tp2219
g139
s(I47
I-9
tp2220
g21
s(I44
I-6
tp2221
g21
s(I39
I-1
tp2222
g21
s(I19
I-8
tp2223
g241
s(I34
I32
tp2224
g99
s(I17
I24
tp2225
g210
s(I16
I-11
tp2226
g43
s(I23
I6
tp2227
g169
s(I7
I-3
tp2228
g116
s(I45
I21
tp2229
g94
s(I10
I9
tp2230
g190
s(I-4
I24
tp2231
g57
s(I35
I3
tp2232
g122
s(I25
I25
tp2233
g127
s(I46
I-8
tp2234
g21
s(I25
I-6
tp2235
g131
s(I11
I26
tp2236
g37
s(I38
I-9
tp2237
g21
s(I1
I0
tp2238
g53
s(I39
I23
tp2239
g26
s(I4
I11
tp2240
g111
s(I-7
I-3
tp2241
g53
s(I29
I29
tp2242
g127
s(I-3
I-6
tp2243
g53
s(I19
I27
tp2244
g31
s(I41
I10
tp2245
g15
s(I5
I20
tp2246
g89
s(I44
I-15
tp2247
g175
s(I-8
I-9
tp2248
g53
s(I30
I36
tp2249
g99
s(I17
I17
tp2250
g70
s(I-7
I4
tp2251
g195
s(I45
I14
tp2252
g105
s(I-4
I23
tp2253
g57
s(I32
I13
tp2254
g62
s(I26
I34
tp2255
g99
s(I35
I8
tp2256
g66
s(I11
I19
tp2257
g139
s(I0
I-5
tp2258
g53
s(I1
I25
tp2259
g231
s(I13
I-8
tp2260
g43
s(I39
I12
tp2261
g105
s(I-10
I17
tp2262
g249
s(I26
I3
tp2263
g169
s(I47
I15
tp2264
g94
s(I29
I22
tp2265
g83
s(I5
I6
tp2266
g220
s(I9
I-11
tp2267
g43
s(I5
I29
tp2268
g37
s(I11
I27
tp2269
g37
s(I27
I32
tp2270
g99
s(I-8
I-2
tp2271
g53
s(I22
I-7
tp2272
g241
s(I17
I10
tp2273
g70
s(I20
I1
tp2274
g169
s(I42
I18
tp2275
g94
s(I23
I20
tp2276
g127
s(I48
I-7
tp2277
g406
s(I45
I7
tp2278
g15
s(I10
I-11
tp2279
g43
s(I40
I-4
tp2280
g21
s(I11
I8
tp2281
g190
s(I-3
I9
tp2282
g164
s(I14
I7
tp2283
g190
s(I36
I16
tp2284
g83
s(I1
I18
tp2285
g89
s(I29
I-2
tp2286
g149
s(I39
I5
tp2287
g15
s(I26
I10
tp2288
g62
s(I48
I19
tp2289
g94
s(I47
I4
tp2290
g15
s(I34
I-3
tp2291
g135
s(I-5
I-8
tp2292
g53
s(I-9
I11
tp2293
g164
s(I10
I-2
tp2294
g116
s(I30
I22
tp2295
g83
s(I17
I3
tp2296
g273
s(I46
I-14
tp2297
g175
s(I20
I8
tp2298
g169
s(I42
I29
tp2299
g26
s(I-7
I22
tp2300
g249
s(I45
I0
tp2301
g15
s(I32
I27
tp2302
g127
s(I31
I-13
tp2303
g153
s(I28
I-10
tp2304
g153
s(I8
I20
tp2305
g89
s(I11
I1
tp2306
g184
s(I3
I-4
tp2307
g78
s(I14
I14
tp2308
g139
s(I36
I31
tp2309
g26
s(I39
I2
tp2310
g15
s(I26
I21
tp2311
g127
s(I36
I14
tp2312
g66
s(I24
I-14
tp2313
g131
s(I37
I-15
tp2314
g153
s(I34
I-12
tp2315
g135
s(I-6
I-4
tp2316
g53
s(I5
I15
tp2317
g89
s(I-9
I0
tp2318
g48
s(I30
I25
tp2319
g83
s(I17
I4
tp2320
g273
s(I20
I23
tp2321
g210
s(I-1
I18
tp2322
g57
s(I42
I4
tp2323
g15
s(I32
I18
tp2324
g83
s(I18
I29
tp2325
g31
s(I41
I11
tp2326
g105
s(I31
I-8
tp2327
g135
s(I8
I27
tp2328
g37
s(I-6
I6
tp2329
g195
s(I11
I6
tp2330
g190
s(I14
I17
tp2331
g139
s(I36
I6
tp2332
g122
s(I49
I-3
tp2333
g406
s(I26
I28
tp2334
g127
s(I24
I-7
tp2335
g131
s(I37
I-6
tp2336
g21
s(I2
I5
tp2337
g220
s(I12
I-4
tp2338
g43
s(I5
I8
tp2339
g220
s(I30
I0
tp2340
g149
s(I46
I-5
tp2341
g21
s(I6
I25
tp2342
g37
s(I43
I-12
tp2343
g175
s(I19
I-1
tp2344
g169
s(I-3
I2
tp2345
g78
s(I18
I-2
tp2346
g388
s(I35
I36
tp2347
g99
s(I18
I20
tp2348
g210
s(I22
I14
tp2349
g70
s(I8
I2
tp2350
g184
s(I-6
I1
tp2351
g53
s(I-3
I20
tp2352
g57
s(I33
I14
tp2353
g62
s(I14
I24
tp2354
g37
s(I36
I13
tp2355
g66
s(I42
I-2
tp2356
g21
s(I10
I-14
tp2357
g43
s(I-3
I-2
tp2358
g53
s(I12
I22
tp2359
g37
s(I15
I-10
tp2360
g43
s(I2
I28
tp2361
g231
s(I12
I-5
tp2362
g43
s(I-9
I22
tp2363
g249
s(I27
I12
tp2364
g62
s(I30
I11
tp2365
g62
s(I-7
I5
tp2366
g195
s(I6
I16
tp2367
g89
s(I28
I37
tp2368
g99
s(I21
I-12
tp2369
g241
s(I32
I32
tp2370
g99
s(I18
I-7
tp2371
g43
s(I18
I15
tp2372
g70
s(I21
I2
tp2373
g169
s(I43
I29
tp2374
g26
s(I8
I9
tp2375
g111
s(I-6
I8
tp2376
g195
s(I33
I7
tp2377
g4
s(I32
I12
tp2378
g62
s(I48
I10
tp2379
g15
s(I27
I-6
tp2380
g131
s(I12
I13
tp2381
g139
s(I-1
I20
tp2382
g57
s(I15
I0
tp2383
g388
s(I37
I19
tp2384
g83
s(I2
I23
tp2385
g89
s(I12
I-14
tp2386
g43
s(I27
I5
tp2387
g169
s(I49
I16
tp2388
g94
s(I5
I-11
tp2389
g116
s(I33
I-8
tp2390
g135
s(I-6
I-9
tp2391
g53
s(I8
I-10
tp2392
g43
s(I21
I-3
tp2393
g701
s(I31
I17
tp2394
g83
s(I18
I6
tp2395
g190
s(I2
I-8
tp2396
g53
s(I43
I18
tp2397
g94
s(I2
I10
tp2398
g111
s(I-6
I19
tp2399
g249
s(I33
I24
tp2400
g26
s(I30
I-12
tp2401
g153
s(I27
I-13
tp2402
g131
s(I9
I23
tp2403
g89
s(I12
I4
tp2404
g184
s(I15
I9
tp2405
g190
s(I9
I-2
tp2406
g116
s(I37
I28
tp2407
g26
s(I27
I26
tp2408
g127
s(I36
I-14
tp2409
g153
s(I33
I-15
tp2410
g153
s(I5
I-1
tp2411
g380
s(I3
I21
tp2412
g89
s(I25
I32
tp2413
g99
s(I-6
I-1
tp2414
g53
s(I8
I-3
tp2415
g116
s(I6
I-11
tp2416
g116
s(I32
I-2
tp2417
g135
s(I31
I30
tp2418
g99
s(I18
I1
tp2419
g388
s(I21
I20
tp2420
g210
s(I43
I11
tp2421
g105
s(I46
I4
tp2422
g15
s(I33
I17
tp2423
g83
s(I9
I24
tp2424
g89
s(I5
I-9
tp2425
g116
s(I12
I3
tp2426
g184
s(I2
I-6
tp2427
g53
s(I15
I22
tp2428
g210
s(I37
I5
tp2429
g122
s(I48
I-2
tp2430
g406
s(I27
I19
tp2431
g83
s(I21
I21
tp2432
g210
s(I13
I28
tp2433
g37
s(I36
I-7
tp2434
g135
s(I-10
I-4
tp2435
g48
s(I3
I26
tp2436
g231
s(I11
I-7
tp2437
g43
s(I-6
I-7
tp2438
g53
s(I31
I7
tp2439
g4
s(I40
I21
tp2440
g26
s(I21
I29
tp2441
g31
s(I43
I0
tp2442
g15
s(I46
I15
tp2443
g94
s(I17
I-5
tp2444
g43
s(I-1
I-4
tp2445
g53
s(I9
I1
tp2446
g184
s(I-5
I14
tp2447
g57
s(I-1
I9
tp2448
g164
s(I34
I11
tp2449
g62
s(I37
I14
tp2450
g66
s(I-1
I22
tp2451
g57
s(I24
I13
tp2452
g70
s(I39
I-3
tp2453
g21
s(I13
I21
tp2454
g37
s(I3
I3
tp2455
g380
s(I11
I-2
tp2456
g116
s(I28
I9
tp2457
g62
s(I31
I12
tp2458
g62
s(I41
I12
tp2459
g105
s(I40
I28
tp2460
g26
s(I7
I23
tp2461
g89
s(I46
I22
tp2462
g94
s(I20
I-9
tp2463
g241
s(I33
I35
tp2464
g99
s(I17
I-4
tp2465
g43
s(I41
I-1
tp2466
g21
s(I22
I15
tp2467
g70
s(I44
I24
tp2468
g94
s(I9
I10
tp2469
g111
s(I5
I-7
tp2470
g116
s(I34
I2
tp2471
g122
s(I38
I-1
tp2472
g21
s(I24
I20
tp2473
g127
s(I26
I-11
tp2474
g131
s(I6
I-6
tp2475
g116
s(I39
I-6
tp2476
g21
s(I13
I14
tp2477
g139
s(I0
I13
tp2478
g164
s(I14
I-8
tp2479
g43
s(I38
I30
tp2480
g26
s(I3
I8
tp2481
g220
s(I11
I-9
tp2482
g43
s(I28
I0
tp2483
g149
s(I40
I3
tp2484
g15
s(I45
I-8
tp2485
g21
s(I7
I12
tp2486
g111
s(I46
I25
tp2487
g94
s(I20
I-1
tp2488
g169
s(I33
I36
tp2489
g99
s(I16
I28
tp2490
g31
s(I17
I-11
tp2491
g43
s(I46
I13
tp2492
g105
s(I4
I2
tp2493
g78
s(I42
I10
tp2494
g15
s(I44
I23
tp2495
g94
s(I-10
I1
tp2496
g48
s(I34
I29
tp2497
g26
s(I24
I27
tp2498
g127
s(I26
I-4
tp2499
g149
s(I10
I18
tp2500
g89
s(I39
I-13
tp2501
g175
s(I13
I7
tp2502
g190
s(I0
I4
tp2503
g195
s(I38
I17
tp2504
g66
s(I28
I31
tp2505
g99
s(I35
I-9
tp2506
g135
s(I40
I10
tp2507
g15
s(I4
I16
tp2508
g89
s(I45
I-15
tp2509
g175
s(I26
I37
tp2510
g99
s(I-7
I-5
tp2511
g53
s(I16
I19
tp2512
g139
s(I40
I-5
tp2513
g21
s(I48
I1
tp2514
g15
s(I22
I25
tp2515
g31
s(I-8
I8
tp2516
g195
s(I44
I14
tp2517
g105
s(I-5
I21
tp2518
g57
s(I47
I3
tp2519
g15
s(I34
I20
tp2520
g83
s(I10
I29
tp2521
g37
s(I-4
I12
tp2522
g164
s(I13
I0
tp2523
g184
s(I5
I-2
tp2524
g380
s(I0
I27
tp2525
g231
s(I47
I-11
tp2526
g175
s(I38
I8
tp2527
g15
s(I25
I5
tp2528
g169
s(I28
I22
tp2529
g83
s(I35
I-4
tp2530
g135
s(I-2
I15
tp2531
g57
s(I10
I-10
tp2532
g43
s(I-2
I-7
tp2533
g53
s(I7
I2
tp2534
g184
s(I28
I-2
tp2535
g149
s(I16
I10
tp2536
g70
s(I19
I7
tp2537
g169
s(I41
I22
tp2538
g26
s(I22
I16
tp2539
g70
s(I-8
I15
tp2540
g249
s(I44
I5
tp2541
g15
s(I47
I8
tp2542
g15
s(I16
I-8
tp2543
g43
s(I29
I-5
tp2544
g153
s(I10
I4
tp2545
g184
s(I-4
I11
tp2546
g164
s(I35
I20
tp2547
g83
s(I0
I18
tp2548
g89
s(I38
I3
tp2549
g15
s(I25
I14
tp2550
g62
s(I40
I13
tp2551
g105
s(I38
I-6
tp2552
g21
s(I42
I-10
tp2553
g175
s(I-4
I-2
tp2554
g53
s(I-10
I13
tp2555
g164
s(I23
I-10
tp2556
g241
s(I29
I10
tp2557
g62
s(I16
I1
tp2558
g388
s(I19
I12
tp2559
g70
s(I41
I31
tp2560
g26
s(I-8
I22
tp2561
g249
s(I44
I-4
tp2562
g21
s(I-7
I-8
tp2563
g53
s(I47
I17
tp2564
g94
s(I19
I-14
tp2565
g241
s(I29
I-12
tp2566
g153
s(I23
I8
tp2567
g169
s(I45
I27
tp2568
g291
s(I10
I15
tp2569
g89
s(I-4
I2
tp2570
g78
s(I35
I29
tp2571
g26
s(I25
I23
tp2572
g127
s(I42
I15
tp2573
g94
s(I38
I-3
tp2574
g21
s(I1
I14
tp2575
g89
s(I48
I18
tp2576
g94
s(I4
I13
tp2577
g111
s(I-10
I4
tp2578
g195
s(I29
I3
tp2579
g169
s(I-3
I-5
tp2580
g53
s(I19
I21
tp2581
g210
s(I47
I-10
tp2582
g175
s(I35
I1
tp2583
g122
s(I44
I-5
tp2584
g21
s(I30
I34
tp2585
g99
s(I19
I-5
tp2586
g241
s(I34
I33
tp2587
g99
s(I16
I-10
tp2588
g43
s(I23
I1
tp2589
g169
s(I7
I-4
tp2590
g116
s(I45
I20
tp2591
g94
s(I35
I2
tp2592
g122
s(I18
I-1
tp2593
g388
s(I25
I24
tp2594
g127
s(I25
I-7
tp2595
g131
s(I11
I29
tp2596
g37
s(I38
I-12
tp2597
g135
s(I1
I7
tp2598
g220
s(I13
I-2
tp2599
g116
s(I39
I22
tp2600
g26
s(I47
I12
tp2601
g105
s(I29
I28
tp2602
g127
s(I-5
I-7
tp2603
g53
s(I-9
I8
tp2604
g195
s(I19
I26
tp2605
g31
s(I41
I9
tp2606
g15
s(I5
I19
tp2607
g89
s(I44
I-14
tp2608
g175
s(I-8
I-8
tp2609
g53
s(I30
I37
tp2610
g99
s(I17
I16
tp2611
g70
s(I7
I-11
tp2612
g116
s(I45
I13
tp2613
g105
s(I-2
I2
tp2614
g78
s(I-4
I16
tp2615
g57
s(I32
I14
tp2616
g62
s(I35
I11
tp2617
g66
s(I11
I18
tp2618
g139
s(I-3
I15
tp2619
g57
s(I0
I-4
tp2620
g53
s(I4
I-1
tp2621
g78
s(I1
I24
tp2622
g89
s(I13
I-9
tp2623
g43
s(I39
I15
tp2624
g94
s(I-10
I22
tp2625
g249
s(I26
I0
tp2626
g149
s(I29
I21
tp2627
g83
s(I42
I-4
tp2628
g21
s(I5
I28
tp2629
g37
s(I9
I-13
tp2630
g43
s(I27
I35
tp2631
g99
s(I22
I-1
tp2632
g746
s(I17
I9
tp2633
g70
s(I20
I2
tp2634
g169
s(I42
I19
tp2635
g94
s(I23
I23
tp2636
g127
s(I-7
I12
tp2637
g164
s(I45
I6
tp2638
g15
s(I40
I-3
tp2639
g21
s(I31
I-11
tp2640
g135
s(I28
I-8
tp2641
g153
s(I-5
I-2
tp2642
g53
s(I11
I11
tp2643
g139
s(I-3
I8
tp2644
g195
s(I14
I4
tp2645
g184
s(I36
I17
tp2646
g83
s(I1
I17
tp2647
g89
s(I39
I4
tp2648
g15
s(I26
I11
tp2649
g62
s(I48
I20
tp2650
g94
s(I37
I-9
tp2651
g21
s(I34
I-6
tp2652
g135
s(I-5
I-5
tp2653
g53
s(I9
I-12
tp2654
g43
s(I8
I-1
tp2655
g116
s(I22
I-15
tp2656
g241
s(I30
I23
tp2657
g83
s(I17
I2
tp2658
g273
s(I20
I9
tp2659
g70
s(I42
I26
tp2660
g26
s(I-7
I21
tp2661
g249
s(I43
I-7
tp2662
g21
s(I32
I28
tp2663
g127
s(I47
I-14
tp2664
g175
s(I31
I-14
tp2665
g153
s(I28
I-9
tp2666
g153
s(I8
I21
tp2667
g89
s(I11
I0
tp2668
g184
s(I-3
I1
tp2669
g53
s(I14
I15
tp2670
g139
s(I36
I24
tp2671
g26
s(I49
I-5
tp2672
g406
s(I26
I18
tp2673
g62
s(I48
I11
tp2674
g105
s(I34
I-11
tp2675
g135
s(I-1
I-9
tp2676
g53
s(I2
I2
tp2677
g78
s(I48
I-1
tp2678
g406
s(I5
I14
tp2679
g89
s(I9
I-3
tp2680
g116
s(I30
I30
tp2681
g99
s(I40
I-1
tp2682
g21
s(I20
I16
tp2683
g70
s(I46
I-15
tp2684
g175
s(I43
I-1
tp2685
g21
s(I32
I19
tp2686
g83
s(I31
I37
tp2687
g99
s(I18
I26
tp2688
g31
s(I31
I-5
tp2689
g135
s(I8
I28
tp2690
g37
s(I-6
I7
tp2691
g195
s(I14
I22
tp2692
g37
s(I36
I7
tp2693
g122
s(I42
I-15
tp2694
g175
s(I49
I-4
tp2695
g406
s(I26
I29
tp2696
g127
s(I-6
I0
tp2697
g53
s(I48
I2
tp2698
g15
s(I12
I24
tp2699
g37
s(I37
I-7
tp2700
g21
s(I-1
I-2
tp2701
g53
s(I12
I-3
tp2702
g116
s(I-9
I24
tp2703
g249
s(I30
I1
tp2704
g149
s(I-7
I6
tp2705
g195
s(I42
I12
tp2706
g105
s(I43
I-9
tp2707
g21
s(I31
I34
tp2708
g99
s(I-5
I4
tp2709
g195
s(I18
I21
tp2710
g210
s(I8
I3
tp2711
g184
s(I-6
I14
tp2712
g249
s(I-3
I19
tp2713
g57
s(I33
I13
tp2714
g62
s(I14
I25
tp2715
g37
s(I14
I-2
tp2716
g388
s(I32
I11
tp2717
g62
s(I48
I9
tp2718
g15
s(I12
I23
tp2719
g37
s(I-2
I18
tp2720
g57
s(I2
I29
tp2721
g231
s(I12
I-12
tp2722
g43
s(I-9
I17
tp2723
g249
s(I27
I15
tp2724
g83
s(I30
I8
tp2725
g62
s(I5
I-10
tp2726
g116
s(I6
I17
tp2727
g89
s(I21
I-13
tp2728
g241
s(I32
I33
tp2729
g99
s(I18
I-10
tp2730
g43
s(I18
I12
tp2731
g70
s(I21
I1
tp2732
g169
s(I43
I28
tp2733
g26
s(I8
I10
tp2734
g111
s(I-6
I9
tp2735
g164
s(I33
I6
tp2736
g4
s(I30
I-14
tp2737
g153
s(I27
I-3
tp2738
g149
s(I12
I14
tp2739
g139
s(I-2
I21
tp2740
g57
s(I15
I3
tp2741
g184
s(I15
I-1
tp2742
g388
s(I37
I18
tp2743
g83
s(I2
I20
tp2744
g89
s(I12
I-13
tp2745
g43
s(I27
I4
tp2746
g169
s(I49
I23
tp2747
g94
s(I36
I-12
tp2748
g135
s(I6
I8
tp2749
g111
s(I8
I-9
tp2750
g43
s(I40
I5
tp2751
g15
s(I21
I-4
tp2752
g701
s(I31
I16
tp2753
g83
s(I18
I-15
tp2754
g241
s(I18
I7
tp2755
g70
s(I21
I10
tp2756
g70
s(I43
I21
tp2757
g26
s(I-6
I16
tp2758
g249
s(I46
I2
tp2759
g15
s(I33
I31
tp2760
g26
s(I30
I-11
tp2761
g153
s(I27
I-14
tp2762
g131
s(I9
I22
tp2763
g89
s(I12
I5
tp2764
g190
s(I15
I8
tp2765
g190
s(I37
I27
tp2766
g26
s(I24
I0
tp2767
g149
s(I27
I29
tp2768
g127
s(I26
I-1
tp2769
g149
s(I-9
I-5
tp2770
g48
s(I10
I-9
tp2771
g43
s(I36
I-13
tp2772
g153
s(I3
I20
tp2773
g89
s(I-4
I6
tp2774
g195
s(I6
I3
tp2775
g184
s(I42
I7
tp2776
g15
s(I31
I25
tp2777
g83
s(I21
I19
tp2778
g210
s(I43
I10
tp2779
g15
s(I46
I5
tp2780
g15
s(I33
I16
tp2781
g83
s(I3
I29
tp2782
g231
s(I-6
I-5
tp2783
g53
s(I30
I-4
tp2784
g149
s(I-5
I8
tp2785
g195
s(I-2
I7
tp2786
g195
s(I15
I17
tp2787
g139
s(I37
I4
tp2788
g122
s(I24
I7
tp2789
g169
s(I27
I18
tp2790
g83
s(I49
I1
tp2791
g406
s(I13
I27
tp2792
g37
s(I36
I-6
tp2793
g135
s(I-2
I20
tp2794
g57
s(I11
I-8
tp2795
g43
sa(dp2796
(I34
I7
tp2797
(iLink
Link
p2798
(dp2799
g6
I1
sg7
(I0
I0
tp2800
sg9
(I558
I120
tp2801
sg11
I14
sg12
(I36
I36
tp2802
sbs(I30
I12
tp2803
(iLink
Link
p2804
(dp2805
g6
I1
sg7
g2800
sg9
(I491
I200
tp2806
sg11
I14
sg12
g2802
sbs(I8
I13
tp2807
(iLink
Link
p2808
(dp2809
g6
I1
sg7
g2800
sg9
(I138
I218
tp2810
sg11
I18
sg12
(I12
I72
tp2811
sbs(I35
I1
tp2812
(iLink
Link
p2813
(dp2814
g6
I1
sg7
g2800
sg9
(I574
I26
tp2815
sg11
I28
sg12
(I213
I15
tp2816
sbs(I26
I2
tp2817
(iLink
Link
p2818
(dp2819
g6
I1
sg7
g2800
sg9
(I431
I39
tp2820
sg11
I28
sg12
g2816
sbs(I39
I4
tp2821
(iLink
Link
p2822
(dp2823
g6
I1
sg7
g2800
sg9
(I627
I74
tp2824
sg11
I28
sg12
g2816
sbs(I32
I21
tp2825
(iLink
Link
p2826
(dp2827
g6
I1
sg7
g2800
sg9
(I515
I344
tp2828
sg11
I14
sg12
g2802
sbs(I2
I5
tp2829
(iLink
Link
p2830
(dp2831
g6
I1
sg7
g2800
sg9
(I40
I92
tp2832
sg11
I18
sg12
g2811
sbs(I34
I4
tp2833
(iLink
Link
p2834
(dp2835
g6
I1
sg7
g2800
sg9
(I546
I64
tp2836
sg11
I28
sg12
g2816
sbs(I33
I3
tp2837
(iLink
Link
p2838
(dp2839
g6
I1
sg7
g2800
sg9
(I533
I54
tp2840
sg11
I28
sg12
g2816
sbs(I32
I2
tp2841
(iLink
Link
p2842
(dp2843
g6
I1
sg7
g2800
sg9
(I524
I39
tp2844
sg11
I28
sg12
g2816
sbs(I26
I17
tp2845
(iLink
Link
p2846
(dp2847
g6
I1
sg7
g2800
sg9
(I424
I280
tp2848
sg11
I14
sg12
g2802
sbs(I32
I3
tp2849
(iLink
Link
p2850
(dp2851
g6
I1
sg7
g2800
sg9
(I527
I55
tp2852
sg11
I28
sg12
g2816
sbs(I39
I2
tp2853
(iLink
Link
p2854
(dp2855
g6
I1
sg7
g2800
sg9
(I638
I36
tp2856
sg11
I28
sg12
g2816
sbs(I33
I2
tp2857
(iLink
Link
p2858
(dp2859
g6
I1
sg7
g2800
sg9
(I535
I40
tp2860
sg11
I28
sg12
g2816
sbs(I36
I9
tp2861
(iLink
Link
p2862
(dp2863
g6
I1
sg7
g2800
sg9
(I590
I144
tp2864
sg11
I14
sg12
g2802
sbs(I35
I3
tp2865
(iLink
Link
p2866
(dp2867
g6
I1
sg7
g2800
sg9
(I572
I62
tp2868
sg11
I28
sg12
g2816
sbs(I30
I10
tp2869
(iLink
Link
p2870
(dp2871
g6
I1
sg7
g2800
sg9
(I490
I169
tp2872
sg11
I14
sg12
g2802
sbs(I34
I2
tp2873
(iLink
Link
p2874
(dp2875
g6
I1
sg7
g2800
sg9
(I557
I45
tp2876
sg11
I28
sg12
g2816
sbs(I32
I0
tp2877
(iLink
Link
p2878
(dp2879
g6
I1
sg7
g2800
sg9
(I524
I12
tp2880
sg11
I28
sg12
g2816
sbs(I7
I13
tp2881
(iLink
Link
p2882
(dp2883
g6
I1
sg7
g2800
sg9
(I126
I221
tp2884
sg11
I18
sg12
g2811
sbs(I22
I5
tp2885
(iLink
Link
p2886
(dp2887
g6
I1
sg7
g2800
sg9
(I357
I93
tp2888
sg11
I14
sg12
g2802
sbs(I34
I3
tp2889
(iLink
Link
p2890
(dp2891
g6
I1
sg7
g2800
sg9
(I546
I56
tp2892
sg11
I28
sg12
g2816
sbsa(dp2893
(I14
I17
tp2894
(iLink
Link
p2895
(dp2896
g6
I2
sg7
g2800
sg9
(I273
I324
tp2897
sg11
I70
sg12
(I76
I13
tp2898
sbs(I19
I19
tp2899
g2895
s(I10
I17
tp2900
(iLink
Link
p2901
(dp2902
g6
I2
sg7
g2800
sg9
(I185
I265
tp2903
sg11
I70
sg12
g2898
sbs(I7
I12
tp2904
g2901
s(I12
I12
tp2905
g2901
s(I17
I20
tp2906
g2895
s(I13
I17
tp2907
g2895
s(I18
I19
tp2908
g2895
s(I16
I19
tp2909
g2895
s(I14
I18
tp2910
g2895
s(I10
I18
tp2911
g2901
s(I16
I22
tp2912
g2895
s(I12
I17
tp2913
g2901
s(I17
I23
tp2914
g2895
s(I13
I20
tp2915
g2895
s(I18
I20
tp2916
g2895
s(I8
I15
tp2917
g2901
s(I20
I20
tp2918
g2895
s(I9
I14
tp2919
g2901
s(I10
I13
tp2920
g2901
s(I14
I24
tp2921
g2895
s(I19
I24
tp2922
g2895
s(I9
I16
tp2923
g2901
s(I14
I15
tp2924
g2901
s(I20
I19
tp2925
g2895
s(I15
I14
tp2926
g2901
s(I21
I18
tp2927
g2895
s(I17
I18
tp2928
g2895
s(I13
I23
tp2929
g2895
s(I8
I12
tp2930
g2901
s(I16
I18
tp2931
g2895
s(I10
I14
tp2932
g2901
s(I8
I18
tp2933
g2901
s(I14
I21
tp2934
g2895
s(I11
I15
tp2935
g2901
s(I9
I19
tp2936
g2901
s(I15
I16
tp2937
g2895
s(I21
I24
tp2938
g2895
s(I20
I16
tp2939
g2895
s(I11
I16
tp2940
g2901
s(I15
I13
tp2941
g2901
s(I13
I13
tp2942
g2901
s(I13
I15
tp2943
g2901
s(I15
I23
tp2944
g2895
s(I14
I22
tp2945
g2895
s(I19
I18
tp2946
g2895
s(I7
I15
tp2947
g2901
s(I12
I13
tp2948
g2901
s(I13
I16
tp2949
g2895
s(I18
I16
tp2950
g2895
s(I17
I24
tp2951
g2895
s(I16
I17
tp2952
g2895
s(I21
I22
tp2953
g2895
s(I9
I20
tp2954
g2901
s(I14
I19
tp2955
g2895
s(I19
I17
tp2956
g2895
s(I10
I19
tp2957
g2901
s(I21
I20
tp2958
g2895
s(I7
I18
tp2959
g2901
s(I12
I18
tp2960
g2901
s(I17
I22
tp2961
g2895
s(I16
I23
tp2962
g2895
s(I13
I19
tp2963
g2895
s(I18
I21
tp2964
g2895
s(I9
I13
tp2965
g2901
s(I14
I12
tp2966
g2901
s(I11
I20
tp2967
g2901
s(I10
I20
tp2968
g2901
s(I7
I17
tp2969
g2901
s(I21
I17
tp2970
g2895
s(I15
I21
tp2971
g2895
s(I17
I17
tp2972
g2895
s(I13
I22
tp2973
g2895
s(I18
I22
tp2974
g2895
s(I8
I13
tp2975
g2901
s(I10
I15
tp2976
g2901
s(I8
I19
tp2977
g2901
s(I16
I16
tp2978
g2895
s(I19
I22
tp2979
g2895
s(I9
I18
tp2980
g2901
s(I15
I19
tp2981
g2895
s(I20
I17
tp2982
g2895
s(I11
I19
tp2983
g2901
s(I21
I21
tp2984
g2895
s(I15
I12
tp2985
g2901
s(I13
I12
tp2986
g2901
s(I12
I20
tp2987
g2901
s(I7
I19
tp2988
g2901
s(I19
I20
tp2989
g2895
s(I8
I16
tp2990
g2901
s(I14
I23
tp2991
g2895
s(I11
I13
tp2992
g2901
s(I15
I22
tp2993
g2895
s(I12
I14
tp2994
g2901
s(I21
I23
tp2995
g2895
s(I20
I23
tp2996
g2895
s(I18
I17
tp2997
g2895
s(I15
I24
tp2998
g2895
s(I14
I16
tp2999
g2895
s(I20
I24
tp3000
g2895
s(I19
I16
tp3001
g2895
s(I10
I16
tp3002
g2901
s(I7
I13
tp3003
g2901
s(I12
I19
tp3004
g2901
s(I17
I21
tp3005
g2895
s(I13
I18
tp3006
g2895
s(I18
I18
tp3007
g2895
s(I16
I21
tp3008
g2895
s(I19
I21
tp3009
g2895
s(I9
I12
tp3010
g2901
s(I7
I20
tp3011
g2901
s(I15
I20
tp3012
g2895
s(I7
I14
tp3013
g2901
s(I14
I13
tp3014
g2901
s(I7
I16
tp3015
g2901
s(I21
I16
tp3016
g2895
s(I12
I16
tp3017
g2901
s(I17
I16
tp3018
g2895
s(I16
I24
tp3019
g2895
s(I13
I21
tp3020
g2895
s(I20
I22
tp3021
g2895
s(I11
I14
tp3022
g2901
s(I8
I14
tp3023
g2901
s(I9
I15
tp3024
g2901
s(I10
I12
tp3025
g2901
s(I8
I20
tp3026
g2901
s(I9
I17
tp3027
g2901
s(I15
I18
tp3028
g2895
s(I14
I14
tp3029
g2901
s(I20
I18
tp3030
g2895
s(I11
I18
tp3031
g2901
s(I15
I15
tp3032
g2901
s(I21
I19
tp3033
g2895
s(I18
I23
tp3034
g2895
s(I17
I19
tp3035
g2895
s(I13
I24
tp3036
g2895
s(I18
I24
tp3037
g2895
s(I16
I20
tp3038
g2895
s(I8
I17
tp3039
g2901
s(I14
I20
tp3040
g2895
s(I11
I12
tp3041
g2901
s(I15
I17
tp3042
g2895
s(I12
I15
tp3043
g2901
s(I11
I17
tp3044
g2901
s(I13
I14
tp3045
g2901
s(I20
I21
tp3046
g2895
s(I19
I23
tp3047
g2895
sa(dp3048
a(dp3049
a(dp3050
a.