(lp1
(dp2
(I31
I6
tp3
(iLink
Link
p4
(dp5
S'chapter'
p6
I0
sS'tile_offset'
p7
(I-5
I5
tp8
sS'map_pixel_selected'
p9
(I382
I145
tp10
sS'page_number'
p11
I0
sS'cat_pixel_selected'
p12
(I128
I115
tp13
sbs(I41
I13
tp14
(iLink
Link
p15
(dp16
g6
I0
sg7
(I-15
I5
tp17
sg9
(I462
I227
tp18
sg11
I0
sg12
(I132
I120
tp19
sbs(I40
I22
tp20
(iLink
Link
p21
(dp22
g6
I0
sg7
(I-15
I-10
tp23
sg9
(I378
I261
tp24
sg11
I0
sg12
g19
sbs(I21
I28
tp25
(iLink
Link
p26
(dp27
g6
I0
sg7
(I-15
I0
tp28
sg9
(I80
I385
tp29
sg11
I0
sg12
g13
sbs(I43
I3
tp30
(iLink
Link
p31
(dp32
g6
I0
sg7
g17
sg9
(I460
I162
tp33
sg11
I0
sg12
g19
sbs(I7
I25
tp34
(iLink
Link
p35
(dp36
g6
I0
sg7
(I-5
I0
tp37
sg9
(I80
I385
tp38
sg11
I0
sg12
g13
sbs(I42
I-8
tp39
(iLink
Link
p40
(dp41
g6
I0
sg7
(I-15
I15
tp42
sg9
(I433
I186
tp43
sg11
I0
sg12
g19
sbs(I17
I-6
tp44
(iLink
Link
p45
(dp46
g6
I0
sg7
(I5
I20
tp47
sg9
(I289
I182
tp48
sg11
I0
sg12
g19
sbs(I9
I0
tp49
(iLink
Link
p50
(dp51
g6
I0
sg7
(I-5
I25
tp52
sg9
(I80
I385
tp53
sg11
I0
sg12
g13
sbs(I-5
I1
tp54
(iLink
Link
p55
(dp56
g6
I0
sg7
g47
sg9
(I40
I264
tp57
sg11
I0
sg12
g19
sbs(I-2
I14
tp58
(iLink
Link
p59
(dp60
g6
I0
sg7
(I5
I5
tp61
sg9
(I80
I385
tp62
sg11
I0
sg12
g13
sbs(I34
I8
tp63
(iLink
Link
p64
(dp65
g6
I0
sg7
g17
sg9
(I250
I301
tp66
sg11
I0
sg12
g19
sbs(I37
I13
tp67
(iLink
Link
p68
(dp69
g6
I0
sg7
g17
sg9
(I402
I292
tp70
sg11
I0
sg12
g19
sbs(I24
I14
tp71
(iLink
Link
p72
(dp73
g6
I0
sg7
g8
sg9
(I258
I279
tp74
sg11
I0
sg12
g13
sbs(I39
I-4
tp75
g40
s(I3
I3
tp76
(iLink
Link
p77
(dp78
g6
I0
sg7
(I5
I25
tp79
sg9
(I80
I385
tp80
sg11
I0
sg12
g13
sbs(I13
I20
tp81
g35
s(I14
I-10
tp82
g45
s(I3
I2
tp83
(iLink
Link
p84
(dp85
g6
I0
sg7
g47
sg9
(I75
I272
tp86
sg11
I0
sg12
g19
sbs(I28
I10
tp87
g64
s(I31
I15
tp88
(iLink
Link
p89
(dp90
g6
I0
sg7
g23
sg9
(I285
I164
tp91
sg11
I0
sg12
g19
sbs(I40
I29
tp92
g21
s(I45
I-2
tp93
g40
s(I7
I22
tp94
(iLink
Link
p95
(dp96
g6
I0
sg7
(I0
I5
tp97
sg9
(I80
I385
tp98
sg11
I0
sg12
g13
sbs(I46
I23
tp99
(iLink
Link
p100
(dp101
g6
I0
sg7
(I-15
I-5
tp102
sg9
(I476
I254
tp103
sg11
I0
sg12
g19
sbs(I29
I37
tp104
(iLink
Link
p105
(dp106
g6
I0
sg7
g23
sg9
(I243
I356
tp107
sg11
I0
sg12
g19
sbs(I33
I34
tp108
g105
s(I17
I-13
tp109
g45
s(I46
I12
tp110
g15
s(I22
I12
tp111
g72
s(I44
I25
tp112
g100
s(I9
I9
tp113
(iLink
Link
p114
(dp115
g6
I0
sg7
(I0
I0
tp116
sg9
(I83
I206
tp117
sg11
I0
sg12
g13
sbs(I5
I-8
tp118
(iLink
Link
p119
(dp120
g6
I0
sg7
(I-5
I30
tp121
sg9
(I80
I385
tp122
sg11
I0
sg12
g13
sbs(I10
I-4
tp123
g45
s(I34
I3
tp124
(iLink
Link
p125
(dp126
g6
I0
sg7
(I-10
I10
tp127
sg9
(I464
I219
tp128
sg11
I0
sg12
g19
sbs(I24
I21
tp129
(iLink
Link
p130
(dp131
g6
I0
sg7
g23
sg9
(I215
I234
tp132
sg11
I0
sg12
g19
sbs(I26
I-14
tp133
(iLink
Link
p134
(dp135
g6
I0
sg7
g42
sg9
(I237
I81
tp136
sg11
I0
sg12
g19
sbs(I39
I-11
tp137
(iLink
Link
p138
(dp139
g6
I0
sg7
g42
sg9
(I349
I142
tp140
sg11
I0
sg12
g19
sbs(I13
I13
tp141
(iLink
Link
p142
(dp143
g6
I0
sg7
(I-10
I10
tp144
sg9
(I80
I385
tp145
sg11
I0
sg12
g13
sbs(I0
I14
tp146
g95
s(I14
I-7
tp147
g45
s(I38
I31
tp148
g21
s(I3
I11
tp149
g114
s(I11
I-10
tp150
g45
s(I28
I1
tp151
(iLink
Link
p152
(dp153
g6
I0
sg7
g47
sg9
(I546
I273
tp154
sg11
I0
sg12
g19
sbs(I35
I-15
tp155
(iLink
Link
p156
(dp157
g6
I0
sg7
g42
sg9
(I293
I93
tp158
sg11
I0
sg12
g19
sbs(I32
I-4
tp159
g138
s(I45
I-9
tp160
g40
s(I7
I15
tp161
g95
s(I16
I29
tp162
g26
s(I17
I-12
tp163
g45
s(I40
I-6
tp164
g40
s(I-6
I-9
tp165
g55
s(I2
I-9
tp166
g55
s(I22
I7
tp167
(iLink
Link
p168
(dp169
g6
I0
sg7
g47
sg9
(I469
I370
tp170
sg11
I0
sg12
g19
sbs(I-8
I2
tp171
(iLink
Link
p172
(dp173
g6
I0
sg7
(I10
I25
tp174
sg9
(I80
I385
tp175
sg11
I0
sg12
g13
sbs(I44
I16
tp176
g100
s(I41
I-13
tp177
(iLink
Link
p178
(dp179
g6
I0
sg7
g42
sg9
(I438
I94
tp180
sg11
I0
sg12
g19
sbs(I34
I26
tp181
g21
s(I42
I-2
tp182
g40
s(I24
I28
tp183
g130
s(I26
I-3
tp184
g152
s(I10
I19
tp185
g95
s(I-9
I-1
tp186
g172
s(I39
I-14
tp187
g178
s(I13
I6
tp188
(iLink
Link
p189
(dp190
g6
I0
sg7
(I-10
I20
tp191
sg9
(I80
I385
tp192
sg11
I0
sg12
g13
sbs(I0
I5
tp193
(iLink
Link
p194
(dp195
g6
I0
sg7
(I10
I15
tp196
sg9
(I80
I385
tp197
sg11
I0
sg12
g13
sbs(I38
I22
tp198
g21
s(I25
I3
tp199
g168
s(I28
I24
tp200
g89
s(I35
I-10
tp201
g138
s(I32
I-13
tp202
g156
s(I-1
I14
tp203
g59
s(I4
I17
tp204
g95
s(I-5
I-4
tp205
g55
s(I2
I4
tp206
g77
s(I-7
I-6
tp207
g55
s(I16
I20
tp208
(iLink
Link
p209
(dp210
g6
I0
sg7
(I-15
I5
tp211
sg9
(I80
I385
tp212
sg11
I0
sg12
g13
sbs(I19
I1
tp213
g168
s(I-8
I9
tp214
(iLink
Link
p215
(dp216
g6
I0
sg7
(I10
I10
tp217
sg9
(I80
I385
tp218
sg11
I0
sg12
g13
sbs(I44
I15
tp219
g100
s(I-5
I20
tp220
g59
s(I41
I-12
tp221
g138
s(I-5
I-9
tp222
g55
s(I34
I21
tp223
g21
s(I7
I-11
tp224
g119
s(I10
I26
tp225
g35
s(I-4
I13
tp226
g215
s(I1
I-1
tp227
g55
s(I0
I28
tp228
(iLink
Link
p229
(dp230
g6
I0
sg7
g116
sg9
(I80
I385
tp231
sg11
I0
sg12
g13
sbs(I32
I11
tp232
g64
s(I38
I9
tp233
g31
s(I25
I4
tp234
g168
s(I28
I23
tp235
g89
s(I40
I12
tp236
g15
s(I4
I24
tp237
g95
s(I-10
I11
tp238
g215
s(I23
I-8
tp239
(iLink
Link
p240
(dp241
g6
I0
sg7
g47
sg9
(I425
I161
tp242
sg11
I0
sg12
g19
sbs(I16
I11
tp243
g72
s(I19
I6
tp244
g168
s(I41
I21
tp245
g21
s(I22
I17
tp246
g72
s(I-8
I16
tp247
(iLink
Link
p248
(dp249
g6
I0
sg7
(I10
I5
tp250
sg9
(I80
I385
tp251
sg11
I0
sg12
g13
sbs(I44
I6
tp252
g31
s(I-7
I-7
tp253
g55
s(I41
I-3
tp254
g40
s(I-1
I4
tp255
g194
s(I16
I-7
tp256
g45
s(I29
I-6
tp257
g156
s(I10
I5
tp258
g189
s(I-4
I4
tp259
g194
s(I1
I-9
tp260
g55
s(I35
I23
tp261
g21
s(I0
I19
tp262
g95
s(I38
I0
tp263
g31
s(I25
I13
tp264
g64
s(I42
I14
tp265
g15
s(I38
I-5
tp266
g40
s(I4
I7
tp267
(iLink
Link
p268
(dp269
g6
I0
sg7
(I5
I20
tp270
sg9
(I80
I385
tp271
sg11
I0
sg12
g13
sbs(I10
I-1
tp272
g119
s(I48
I-2
tp273
(iLink
Link
p274
(dp275
g6
I0
sg7
g42
sg9
(I465
I222
tp276
sg11
I0
sg12
g19
sbs(I23
I-15
tp277
g240
s(I29
I9
tp278
g64
s(I16
I2
tp279
(iLink
Link
p280
(dp281
g6
I0
sg7
(I-10
I25
tp282
sg9
(I80
I385
tp283
sg11
I0
sg12
g13
sbs(I19
I15
tp284
g72
s(I41
I30
tp285
g21
s(I-8
I23
tp286
g248
s(I44
I-3
tp287
g40
s(I47
I16
tp288
g100
s(I19
I-11
tp289
g240
s(I-7
I-5
tp290
g55
s(I29
I-13
tp291
g156
s(I23
I11
tp292
g72
s(I45
I26
tp293
(iLink
Link
p294
(dp295
g6
I0
sg7
g102
sg9
(I443
I319
tp296
sg11
I0
sg12
g19
sbs(I10
I12
tp297
g142
s(I4
I-5
tp298
g84
s(I35
I28
tp299
g21
s(I25
I22
tp300
g130
s(I25
I-9
tp301
g134
s(I38
I-14
tp302
g156
s(I-5
I23
tp303
g59
s(I1
I13
tp304
g114
s(I39
I24
tp305
g21
s(I4
I14
tp306
g95
s(I10
I-7
tp307
g45
s(I41
I-5
tp308
g40
s(I29
I2
tp309
g152
s(I-9
I9
tp310
g215
s(I19
I20
tp311
g209
s(I47
I-15
tp312
g178
s(I44
I-12
tp313
g178
s(I47
I25
tp314
g100
s(I30
I35
tp315
g105
s(I19
I-6
tp316
g240
s(I16
I-9
tp317
g45
s(I23
I0
tp318
g168
s(I-7
I1
tp319
g55
s(I45
I19
tp320
g100
s(I32
I8
tp321
g64
s(I35
I5
tp322
g125
s(I25
I31
tp323
g105
s(I25
I-8
tp324
g134
s(I11
I28
tp325
g35
s(I38
I-11
tp326
g138
s(I45
I-1
tp327
g40
s(I1
I6
tp328
g268
s(I13
I-3
tp329
g119
s(I39
I17
tp330
g100
s(I26
I6
tp331
g168
s(I29
I27
tp332
g130
s(I19
I29
tp333
g26
s(I47
I-1
tp334
g40
s(I5
I18
tp335
g95
s(I44
I-13
tp336
g178
s(I-8
I-7
tp337
g55
s(I17
I23
tp338
g209
s(I20
I4
tp339
g168
s(I23
I25
tp340
g130
s(I-7
I10
tp341
g215
s(I45
I12
tp342
g15
s(I-4
I17
tp343
g59
s(I40
I-9
tp344
g40
s(I35
I10
tp345
g68
s(I11
I21
tp346
g35
s(I-3
I14
tp347
g59
s(I14
I2
tp348
g50
s(I0
I-3
tp349
g55
s(I13
I-10
tp350
g45
s(I39
I14
tp351
g15
s(I-10
I23
tp352
g248
s(I26
I1
tp353
g152
s(I29
I20
tp354
g89
s(I-6
I-1
tp355
g55
s(I5
I27
tp356
g35
s(I-9
I12
tp357
g215
s(I27
I34
tp358
g105
s(I17
I8
tp359
g72
s(I20
I3
tp360
g168
s(I42
I16
tp361
g100
s(I23
I22
tp362
g130
s(I-7
I19
tp363
g248
s(I45
I5
tp364
g31
s(I9
I-12
tp365
g45
s(I32
I6
tp366
g4
s(I-5
I6
tp367
g194
s(I47
I-13
tp368
g178
s(I31
I-12
tp369
g138
s(I28
I-7
tp370
g156
s(I11
I10
tp371
g142
s(I-3
I7
tp372
g194
s(I14
I5
tp373
g189
s(I36
I18
tp374
g89
s(I1
I16
tp375
g95
s(I39
I7
tp376
g31
s(I26
I8
tp377
g64
s(I48
I21
tp378
g100
s(I37
I-10
tp379
g138
s(I6
I1
tp380
g50
s(I34
I-5
tp381
g138
s(I5
I4
tp382
g77
s(I-9
I5
tp383
g194
s(I22
I-10
tp384
g240
s(I30
I20
tp385
g89
s(I17
I1
tp386
(iLink
Link
p387
(dp388
g6
I0
sg7
g47
sg9
(I388
I260
tp389
sg11
I0
sg12
g19
sbs(I20
I10
tp390
g72
s(I42
I27
tp391
g21
s(I35
I-1
tp392
g125
s(I-7
I20
tp393
g248
s(I43
I-8
tp394
g40
s(I32
I29
tp395
g130
s(I-3
I4
tp396
g194
s(I-6
I-8
tp397
g55
s(I31
I-3
tp398
g138
s(I8
I22
tp399
g95
s(I11
I3
tp400
g50
s(I3
I-1
tp401
g84
s(I14
I12
tp402
g142
s(I36
I25
tp403
g21
s(I49
I-6
tp404
g274
s(I26
I19
tp405
g130
s(I24
I-12
tp406
g134
s(I41
I8
tp407
g31
s(I34
I-14
tp408
g156
s(I2
I8
tp409
g268
s(I5
I13
tp410
g114
s(I-9
I2
tp411
g172
s(I30
I31
tp412
g105
s(I7
I-7
tp413
g119
s(I20
I17
tp414
g72
s(I42
I2
tp415
g31
s(I43
I-15
tp416
g178
s(I32
I20
tp417
g89
s(I31
I36
tp418
g105
s(I35
I33
tp419
g105
s(I18
I27
tp420
g26
s(I31
I-6
tp421
g138
s(I8
I29
tp422
g35
s(I6
I-8
tp423
g119
s(I33
I11
tp424
g64
s(I14
I23
tp425
g35
s(I36
I0
tp426
g125
s(I26
I26
tp427
g130
s(I24
I-5
tp428
g134
s(I12
I25
tp429
g35
s(I37
I-8
tp430
g40
s(I2
I3
tp431
g77
s(I12
I-1
tp432
g119
s(I27
I9
tp433
g64
s(I30
I6
tp434
g4
s(I5
I-9
tp435
g119
s(I20
I24
tp436
g209
s(I46
I-7
tp437
g40
s(I43
I-10
tp438
g178
s(I34
I-10
tp439
g138
s(I18
I-4
tp440
g45
s(I18
I18
tp441
g142
s(I2
I-6
tp442
g55
s(I8
I4
tp443
g50
s(I-6
I15
tp444
g248
s(I-3
I18
tp445
g59
s(I33
I12
tp446
g64
s(I36
I15
tp447
g89
s(I2
I-8
tp448
g55
s(I47
I10
tp449
g31
s(I12
I16
tp450
g142
s(I-2
I19
tp451
g59
s(I25
I-2
tp452
g152
s(I15
I5
tp453
g189
s(I9
I-8
tp454
g45
s(I2
I26
tp455
g229
s(I12
I-11
tp456
g45
s(I-9
I16
tp457
g248
s(I27
I14
tp458
g64
s(I30
I9
tp459
g64
s(I6
I22
tp460
g95
s(I6
I-9
tp461
g119
s(I40
I4
tp462
g31
s(I21
I-14
tp463
g240
s(I32
I34
tp464
g105
s(I18
I-9
tp465
g45
s(I18
I13
tp466
g72
s(I21
I0
tp467
g168
s(I43
I31
tp468
g21
s(I8
I11
tp469
g114
s(I-6
I22
tp470
g248
s(I33
I5
tp471
g4
s(I30
I-13
tp472
g156
s(I27
I-4
tp473
g152
s(I12
I15
tp474
g142
s(I15
I2
tp475
g50
s(I15
I-7
tp476
g45
s(I37
I17
tp477
g89
s(I2
I21
tp478
g95
s(I27
I7
tp479
g168
s(I49
I22
tp480
g100
s(I36
I-11
tp481
g138
s(I-10
I-2
tp482
g172
s(I33
I-1
tp483
g152
s(I26
I4
tp484
g168
s(I4
I-3
tp485
g84
s(I6
I9
tp486
g114
s(I8
I-8
tp487
g45
s(I21
I-5
tp488
g240
s(I31
I19
tp489
g89
s(I18
I4
tp490
g280
s(I21
I9
tp491
g72
s(I43
I20
tp492
g100
s(I-6
I17
tp493
g248
s(I42
I-9
tp494
g40
s(I33
I30
tp495
g21
s(I30
I-6
tp496
g156
s(I27
I-11
tp497
g134
s(I9
I21
tp498
g95
s(I10
I-12
tp499
g45
s(I12
I6
tp500
g189
s(I15
I11
tp501
g142
s(I37
I26
tp502
g21
s(I-6
I-7
tp503
g55
s(I24
I1
tp504
g152
s(I27
I28
tp505
g130
s(I49
I15
tp506
g100
s(I-2
I6
tp507
g194
s(I2
I6
tp508
g268
s(I36
I-4
tp509
g138
s(I33
I-9
tp510
g138
s(I3
I23
tp511
g95
s(I6
I0
tp512
g50
s(I31
I24
tp513
g89
s(I47
I-8
tp514
g40
s(I40
I16
tp515
g100
s(I21
I18
tp516
g209
s(I31
I-2
tp517
g138
s(I43
I13
tp518
g15
s(I-6
I24
tp519
g248
s(I47
I5
tp520
g31
s(I33
I23
tp521
g21
s(I30
I-3
tp522
g152
s(I-5
I11
tp523
g215
s(I-2
I4
tp524
g194
s(I34
I14
tp525
g64
s(I15
I16
tp526
g142
s(I37
I3
tp527
g125
s(I24
I8
tp528
g168
s(I27
I21
tp529
g89
s(I40
I21
tp530
g21
s(I49
I0
tp531
g274
s(I13
I26
tp532
g35
s(I36
I-5
tp533
g138
s(I3
I28
tp534
g229
s(I11
I-5
tp535
g45
s(I28
I12
tp536
g64
s(I31
I1
tp537
g152
s(I40
I23
tp538
g21
s(I21
I27
tp539
g26
s(I43
I2
tp540
g31
s(I7
I24
tp541
g95
s(I42
I-7
tp542
g40
s(I17
I-7
tp543
g45
s(I46
I15
tp544
g100
s(I22
I10
tp545
g72
s(I9
I7
tp546
g114
s(I-5
I0
tp547
g55
s(I-1
I15
tp548
g59
s(I34
I9
tp549
g64
s(I15
I25
tp550
g26
s(I37
I12
tp551
g68
s(I24
I15
tp552
g72
s(I13
I19
tp553
g142
s(I0
I8
tp554
g194
s(I14
I-9
tp555
g45
s(I7
I-10
tp556
g119
s(I3
I5
tp557
g268
s(I28
I11
tp558
g64
s(I31
I14
tp559
g64
s(I4
I2
tp560
g84
s(I40
I30
tp561
g21
s(I45
I-3
tp562
g40
s(I7
I17
tp563
g95
s(I46
I20
tp564
g100
s(I29
I36
tp565
g105
s(I20
I-15
tp566
g240
s(I33
I33
tp567
g105
s(I17
I-14
tp568
g45
s(I40
I-7
tp569
g40
s(I48
I15
tp570
g100
s(I22
I13
tp571
g72
s(I44
I26
tp572
g294
s(I9
I8
tp573
g114
s(I34
I0
tp574
g125
s(I24
I22
tp575
g130
s(I26
I-13
tp576
g134
s(I39
I-12
tp577
g138
s(I21
I-1
tp578
g168
s(I13
I12
tp579
g142
s(I0
I15
tp580
g95
s(I14
I-1
tp581
g387
s(I38
I28
tp582
g21
s(I3
I10
tp583
g114
s(I28
I2
tp584
g152
s(I32
I-3
tp585
g138
s(I-1
I9
tp586
g215
s(I44
I-1
tp587
g40
s(I45
I-10
tp588
g178
s(I2
I7
tp589
g268
s(I7
I14
tp590
g95
s(I20
I-8
tp591
g240
s(I22
I4
tp592
g168
s(I-8
I3
tp593
g172
s(I44
I17
tp594
g100
s(I41
I-14
tp595
g178
s(I49
I-1
tp596
g274
s(I34
I27
tp597
g21
s(I24
I29
tp598
g130
s(I26
I-6
tp599
g134
s(I10
I16
tp600
g95
s(I13
I5
tp601
g189
s(I0
I6
tp602
g194
s(I38
I23
tp603
g21
s(I25
I2
tp604
g152
s(I28
I25
tp605
g89
s(I40
I11
tp606
g15
s(I35
I-7
tp607
g138
s(I32
I-12
tp608
g138
s(I4
I18
tp609
g95
s(I26
I35
tp610
g105
s(I7
I7
tp611
g114
s(I16
I21
tp612
g209
s(I19
I0
tp613
g168
s(I41
I19
tp614
g100
s(I-8
I10
tp615
g215
s(I44
I8
tp616
g31
s(I7
I4
tp617
g50
s(I47
I13
tp618
g15
s(I34
I18
tp619
g89
s(I10
I27
tp620
g35
s(I-4
I14
tp621
g59
s(I1
I-3
tp622
g55
s(I35
I17
tp623
g89
s(I0
I29
tp624
g229
s(I38
I14
tp625
g15
s(I25
I11
tp626
g64
s(I46
I-11
tp627
g178
s(I28
I16
tp628
g89
s(I35
I-2
tp629
g138
s(I4
I25
tp630
g229
s(I-10
I8
tp631
g194
s(I23
I-5
tp632
g240
s(I29
I15
tp633
g89
s(I16
I12
tp634
g72
s(I19
I9
tp635
g72
s(I11
I-2
tp636
g119
s(I41
I20
tp637
g100
s(I22
I22
tp638
g209
s(I-8
I17
tp639
g248
s(I44
I7
tp640
g31
s(I41
I-4
tp641
g40
s(I16
I-6
tp642
g45
s(I29
I-7
tp643
g156
s(I23
I13
tp644
g72
s(I10
I2
tp645
g50
s(I-4
I5
tp646
g194
s(I34
I-1
tp647
g125
s(I35
I22
tp648
g21
s(I0
I20
tp649
g95
s(I38
I1
tp650
g31
s(I25
I12
tp651
g64
s(I38
I-8
tp652
g40
s(I1
I11
tp653
g114
s(I4
I0
tp654
g84
s(I-10
I3
tp655
g172
s(I47
I2
tp656
g31
s(I29
I8
tp657
g64
s(I48
I-7
tp658
g274
s(I16
I3
tp659
g280
s(I19
I14
tp660
g72
s(I41
I29
tp661
g21
s(I-8
I24
tp662
g248
s(I44
I-2
tp663
g40
s(I47
I19
tp664
g100
s(I19
I-12
tp665
g240
s(I34
I36
tp666
g105
s(I16
I-15
tp667
g240
s(I29
I-14
tp668
g156
s(I23
I10
tp669
g72
s(I45
I25
tp670
g100
s(I10
I13
tp671
g142
s(I35
I31
tp672
g21
s(I48
I4
tp673
g31
s(I25
I21
tp674
g130
s(I25
I-10
tp675
g134
s(I38
I-13
tp676
g156
s(I1
I12
tp677
g114
s(I39
I27
tp678
g21
s(I4
I15
tp679
g95
s(I29
I1
tp680
g152
s(I-4
I3
tp681
g172
s(I19
I23
tp682
g209
s(I46
I22
tp683
g100
s(I41
I6
tp684
g31
s(I-4
I-9
tp685
g55
s(I44
I-11
tp686
g178
s(I47
I24
tp687
g100
s(I30
I32
tp688
g105
s(I19
I-3
tp689
(iLink
Link
p690
(dp691
g6
I0
sg7
g47
sg9
(I474
I290
tp692
sg11
I0
sg12
g19
sbs(I17
I29
tp693
g26
s(I23
I3
tp694
g168
s(I7
I-1
tp695
g119
s(I45
I18
tp696
g100
s(I40
I-15
tp697
g178
s(I35
I4
tp698
g125
s(I25
I30
tp699
g105
s(I1
I-2
tp700
g55
s(I1
I5
tp701
g268
s(I13
I-4
tp702
g45
s(I39
I16
tp703
g100
s(I26
I7
tp704
g168
s(I48
I24
tp705
g100
s(I29
I26
tp706
g130
s(I19
I28
tp707
g26
s(I41
I15
tp708
g100
s(I5
I17
tp709
g95
s(I-8
I-6
tp710
g55
s(I17
I22
tp711
g209
s(I20
I5
tp712
g168
s(I42
I22
tp713
g21
s(I23
I24
tp714
g130
s(I7
I-9
tp715
g119
s(I45
I11
tp716
g15
s(I-4
I18
tp717
g59
s(I32
I0
tp718
g152
s(I35
I13
tp719
g68
s(I11
I20
tp720
g35
s(I-3
I13
tp721
g215
s(I14
I3
tp722
g50
s(I0
I-1
tp723
g55
s(I36
I20
tp724
g89
s(I13
I-11
tp725
g45
s(I39
I9
tp726
g31
s(I-10
I20
tp727
g248
s(I26
I14
tp728
g64
s(I29
I19
tp729
g89
s(I5
I26
tp730
g35
s(I-9
I15
tp731
g248
s(I27
I37
tp732
g105
s(I22
I-4
tp733
(iLink
Link
p734
(dp735
g6
I0
sg7
g47
sg9
(I516
I239
tp736
sg11
I0
sg12
g19
sbs(I30
I18
tp737
g89
s(I17
I15
tp738
g72
s(I20
I12
tp739
g72
s(I42
I17
tp740
g100
s(I23
I17
tp741
g72
s(I-7
I18
tp742
g248
s(I45
I4
tp743
g31
s(I48
I0
tp744
g31
s(I-1
I0
tp745
g55
s(I32
I7
tp746
g4
s(I3
I-5
tp747
g84
s(I-2
I21
tp748
g59
s(I31
I-9
tp749
g138
s(I28
I-6
tp750
g156
s(I8
I16
tp751
g95
s(I11
I13
tp752
g142
s(I-3
I6
tp753
g194
s(I14
I10
tp754
g142
s(I36
I19
tp755
g89
s(I1
I23
tp756
g95
s(I46
I7
tp757
g31
s(I39
I6
tp758
g31
s(I26
I9
tp759
g64
s(I48
I22
tp760
g100
s(I37
I-11
tp761
g138
s(I34
I-8
tp762
g138
s(I2
I14
tp763
g95
s(I5
I3
tp764
g77
s(I9
I-6
tp765
g45
s(I22
I-9
tp766
g240
s(I30
I21
tp767
g89
s(I17
I0
tp768
g387
s(I7
I-2
tp769
g119
s(I20
I11
tp770
(iLink
Link
p771
(dp772
g6
I0
sg7
(I0
I0
tp773
sg9
(I327
I181
tp774
sg11
I0
sg12
(I253
I182
tp775
sbs(I42
I24
tp776
g21
s(I43
I-5
tp777
g40
s(I-7
I-9
tp778
g55
s(I32
I30
tp779
g105
s(I31
I-4
tp780
g138
s(I28
I-15
tp781
g156
s(I8
I23
tp782
g95
s(I46
I-4
tp783
g40
s(I11
I2
tp784
g50
s(I30
I-2
tp785
g152
s(I14
I13
tp786
g142
s(I32
I9
tp787
g64
s(I49
I-7
tp788
g274
s(I26
I16
tp789
g64
s(I24
I-11
tp790
g134
s(I37
I-2
tp791
g40
s(I34
I-13
tp792
g156
s(I2
I9
tp793
g268
s(I5
I12
tp794
g114
s(I43
I-1
tp795
g40
s(I30
I28
tp796
g130
s(I42
I9
tp797
g31
s(I20
I18
tp798
g142
s(I46
I-9
tp799
g40
s(I32
I21
tp800
g89
s(I35
I32
tp801
g105
s(I18
I24
tp802
g209
s(I2
I-3
tp803
g55
s(I-1
I-1
tp804
g55
s(I6
I-7
tp805
g119
s(I-3
I24
tp806
g59
s(I33
I10
tp807
g64
s(I14
I20
tp808
g35
s(I36
I1
tp809
g125
s(I26
I27
tp810
g130
s(I24
I-4
tp811
g152
s(I12
I26
tp812
g35
s(I-9
I7
tp813
g194
s(I2
I0
tp814
g55
s(I27
I8
tp815
g64
s(I30
I7
tp816
g4
s(I47
I8
tp817
g31
s(I20
I25
tp818
g26
s(I46
I-2
tp819
g40
s(I6
I28
tp820
g35
s(I6
I-10
tp821
g119
s(I40
I3
tp822
g31
s(I18
I-3
tp823
g387
s(I18
I19
tp824
g142
s(I21
I6
tp825
g168
s(I43
I25
tp826
g21
s(I8
I5
tp827
(iLink
Link
p828
(dp829
g6
I0
sg7
(I0
I0
tp830
sg9
(I69
I57
tp831
sg11
I0
sg12
g13
sbs(I-6
I12
tp832
g215
s(I-3
I17
tp833
g59
s(I33
I3
tp834
g4
s(I36
I8
tp835
g68
s(I12
I17
tp836
g142
s(I-2
I16
tp837
g59
s(I15
I4
tp838
g50
s(I15
I-13
tp839
g45
s(I37
I23
tp840
g21
s(I2
I27
tp841
g229
s(I12
I-10
tp842
g45
s(I-9
I19
tp843
g248
s(I27
I1
tp844
g152
s(I30
I14
tp845
g64
s(I20
I-1
tp846
g168
s(I4
I-4
tp847
g84
s(I6
I23
tp848
g95
s(I8
I-14
tp849
g45
s(I28
I32
tp850
g105
s(I21
I-15
tp851
g240
s(I32
I35
tp852
g105
s(I31
I21
tp853
g89
s(I18
I-12
tp854
g45
s(I18
I10
tp855
(iLink
Link
p856
(dp857
g6
I0
sg7
g773
sg9
(I293
I161
tp858
sg11
I0
sg12
g775
sbs(I21
I15
tp859
g72
s(I43
I30
tp860
g21
s(I8
I12
tp861
g114
s(I-6
I23
tp862
g248
s(I33
I4
tp863
g4
s(I9
I19
tp864
g95
s(I12
I8
tp865
g189
s(I15
I13
tp866
g142
s(I15
I-8
tp867
g45
s(I37
I16
tp868
g89
s(I2
I18
tp869
g95
s(I27
I6
tp870
g168
s(I49
I21
tp871
g100
s(I36
I-10
tp872
g138
s(I33
I-3
tp873
g138
s(I3
I17
tp874
g95
s(I6
I14
tp875
g95
s(I8
I-7
tp876
g45
s(I21
I-6
tp877
g240
s(I31
I18
tp878
g89
s(I18
I5
tp879
g189
s(I47
I-7
tp880
g40
s(I21
I8
tp881
g168
s(I43
I23
tp882
g21
s(I42
I-12
tp883
g178
s(I33
I29
tp884
g21
s(I30
I-5
tp885
g156
s(I27
I-12
tp886
g134
s(I9
I20
tp887
g95
s(I12
I7
tp888
g189
s(I2
I-2
tp889
g55
s(I15
I10
tp890
g142
s(I37
I25
tp891
g21
s(I24
I2
tp892
g152
s(I27
I31
tp893
g105
s(I36
I-3
tp894
g138
s(I33
I-10
tp895
g138
s(I3
I22
tp896
g95
s(I25
I37
tp897
g105
s(I-6
I-3
tp898
g55
s(I31
I27
tp899
g130
s(I40
I17
tp900
g100
s(I21
I17
tp901
g72
s(I43
I12
tp902
g15
s(I46
I11
tp903
g15
s(I33
I22
tp904
g21
s(I46
I14
tp905
g15
s(I9
I29
tp906
g35
s(I-5
I10
tp907
g215
s(I-10
I2
tp908
g172
s(I2
I-7
tp909
g55
s(I34
I15
tp910
g89
s(I15
I19
tp911
g142
s(I37
I2
tp912
g125
s(I24
I9
tp913
g72
s(I27
I20
tp914
g89
s(I13
I25
tp915
g35
s(I-7
I9
tp916
g215
s(I11
I-6
tp917
g45
s(I28
I13
tp918
g64
s(I31
I0
tp919
g152
s(I40
I24
tp920
g21
s(I21
I26
tp921
g26
s(I43
I5
tp922
g31
s(I7
I27
tp923
g35
s(I46
I18
tp924
g100
s(I17
I-8
tp925
g45
s(I40
I-8
tp926
g40
s(I48
I14
tp927
g15
s(I22
I11
tp928
g72
s(I44
I28
tp929
g294
s(I9
I6
tp930
g828
s(I-5
I3
tp931
g172
s(I-2
I12
tp932
g215
s(I34
I6
tp933
g125
s(I15
I24
tp934
g209
s(I37
I11
tp935
g68
s(I24
I16
tp936
g72
s(I-9
I-4
tp937
g172
s(I39
I-2
tp938
g40
s(I13
I18
tp939
g142
s(I0
I9
tp940
g215
s(I14
I-12
tp941
g45
s(I38
I26
tp942
g21
s(I3
I4
tp943
g77
s(I11
I-13
tp944
g45
s(I31
I23
tp945
g89
s(I28
I4
tp946
g168
s(I31
I9
tp947
g64
s(I40
I31
tp948
g21
s(I-1
I8
tp949
g194
s(I45
I-4
tp950
g40
s(I-1
I-6
tp951
g55
s(I7
I16
tp952
g95
s(I46
I21
tp953
g100
s(I29
I35
tp954
g105
s(I20
I-14
tp955
g240
s(I33
I32
tp956
g105
s(I16
I24
tp957
g209
s(I17
I-15
tp958
g240
s(I22
I2
tp959
g168
s(I44
I27
tp960
g294
s(I9
I15
tp961
g95
s(I-5
I24
tp962
g59
s(I15
I-1
tp963
g387
s(I34
I1
tp964
g125
s(I24
I23
tp965
g130
s(I10
I22
tp966
g95
s(I39
I-9
tp967
g40
s(I13
I11
tp968
g142
s(I0
I0
tp969
g55
s(I38
I29
tp970
g21
s(I3
I13
tp971
g114
s(I28
I3
tp972
g168
s(I40
I10
tp973
g31
s(I35
I-13
tp974
g156
s(I0
I-2
tp975
g55
s(I32
I-1
tp976
g152
s(I4
I20
tp977
g95
s(I45
I-11
tp978
g178
s(I7
I9
tp979
g114
s(I46
I28
tp980
g294
s(I20
I-7
tp981
g240
s(I10
I-10
tp982
g45
s(I22
I5
tp983
g168
s(I-8
I4
tp984
g194
s(I44
I18
tp985
g100
s(I-5
I17
tp986
g59
s(I41
I-15
tp987
g178
s(I34
I24
tp988
g21
s(I26
I-5
tp989
g134
s(I10
I17
tp990
g95
s(I13
I4
tp991
g50
s(I1
I-5
tp992
g55
s(I0
I7
tp993
g194
s(I38
I20
tp994
g294
s(I25
I1
tp995
g152
s(I2
I-1
tp996
g55
s(I46
I-12
tp997
g178
s(I28
I26
tp998
g130
s(I30
I-10
tp999
g156
s(I-2
I23
tp1000
g59
s(I35
I-8
tp1001
g138
s(I32
I-11
tp1002
g138
s(I4
I19
tp1003
g95
s(I26
I32
tp1004
g105
s(I7
I6
tp1005
g828
s(I23
I-3
tp1006
g734
s(I16
I22
tp1007
g209
s(I19
I3
tp1008
g168
s(I41
I18
tp1009
g100
s(I22
I28
tp1010
g26
s(I-8
I11
tp1011
g215
s(I44
I9
tp1012
g31
s(I-5
I22
tp1013
g59
s(I41
I-6
tp1014
g40
s(I34
I19
tp1015
g89
s(I10
I24
tp1016
g95
s(I-4
I15
tp1017
g59
s(I1
I-4
tp1018
g55
s(I35
I16
tp1019
g89
s(I7
I0
tp1020
g50
s(I38
I15
tp1021
g68
s(I25
I10
tp1022
g64
s(I28
I17
tp1023
g89
s(I24
I-1
tp1024
g152
s(I4
I26
tp1025
g229
s(I-10
I9
tp1026
g215
s(I23
I-6
tp1027
g240
s(I47
I3
tp1028
g31
s(I29
I14
tp1029
g64
s(I16
I13
tp1030
g72
s(I19
I8
tp1031
g168
s(I41
I27
tp1032
g21
s(I22
I23
tp1033
g209
s(I-8
I18
tp1034
g248
s(I44
I0
tp1035
g31
s(I47
I21
tp1036
g100
s(I16
I-5
tp1037
g45
s(I29
I-8
tp1038
g156
s(I23
I12
tp1039
g72
s(I-1
I-8
tp1040
g55
s(I6
I-2
tp1041
g119
s(I10
I3
tp1042
g50
s(I4
I-2
tp1043
g84
s(I35
I25
tp1044
g21
s(I0
I21
tp1045
g95
s(I38
I6
tp1046
g31
s(I25
I19
tp1047
g130
s(I38
I-7
tp1048
g40
s(I1
I10
tp1049
g114
s(I39
I29
tp1050
g21
s(I4
I1
tp1051
g84
s(I-10
I0
tp1052
g172
s(I23
I-13
tp1053
g240
s(I29
I7
tp1054
g168
s(I16
I4
tp1055
g280
s(I19
I17
tp1056
g72
s(I41
I28
tp1057
g21
s(I-2
I-3
tp1058
g55
s(I-10
I5
tp1059
g194
s(I47
I18
tp1060
g100
s(I19
I-9
tp1061
g240
s(I34
I37
tp1062
g105
s(I17
I27
tp1063
g26
s(I16
I-14
tp1064
g45
s(I29
I-15
tp1065
g156
s(I23
I5
tp1066
g168
s(I45
I24
tp1067
g100
s(I10
I10
tp1068
g142
s(I35
I30
tp1069
g21
s(I25
I20
tp1070
g130
s(I25
I-11
tp1071
g134
s(I11
I25
tp1072
g35
s(I1
I3
tp1073
g77
s(I39
I26
tp1074
g21
s(I4
I8
tp1075
g268
s(I29
I0
tp1076
g152
s(I19
I22
tp1077
g209
s(I41
I5
tp1078
g31
s(I5
I23
tp1079
g95
s(I44
I-10
tp1080
g178
s(I47
I27
tp1081
g294
s(I30
I33
tp1082
g105
s(I19
I-4
tp1083
g690
s(I17
I28
tp1084
g26
s(I23
I2
tp1085
g168
s(I-7
I7
tp1086
g194
s(I45
I17
tp1087
g100
s(I-4
I20
tp1088
g59
s(I40
I-14
tp1089
g178
s(I35
I7
tp1090
g125
s(I41
I7
tp1091
g31
s(I36
I26
tp1092
g21
s(I25
I29
tp1093
g130
s(I25
I-1
tp1094
g152
s(I0
I-8
tp1095
g55
s(I1
I4
tp1096
g77
s(I13
I-5
tp1097
g45
s(I39
I19
tp1098
g100
s(I-10
I18
tp1099
g248
s(I-1
I-3
tp1100
g55
s(I48
I25
tp1101
g100
s(I29
I25
tp1102
g89
s(I41
I14
tp1103
g15
s(I5
I16
tp1104
g95
s(I-8
I-5
tp1105
g55
s(I22
I-6
tp1106
g240
s(I17
I21
tp1107
g209
s(I20
I6
tp1108
g168
s(I42
I23
tp1109
g21
s(I23
I27
tp1110
g130
s(I-7
I8
tp1111
g194
s(I45
I10
tp1112
g31
s(I-4
I19
tp1113
g59
s(I32
I1
tp1114
g152
s(I3
I-8
tp1115
g84
s(I35
I12
tp1116
g68
s(I28
I-4
tp1117
g152
s(I11
I23
tp1118
g35
s(I-3
I12
tp1119
g215
s(I14
I0
tp1120
g387
s(I36
I21
tp1121
g21
s(I1
I29
tp1122
g229
s(I13
I-12
tp1123
g45
s(I46
I6
tp1124
g31
s(I39
I8
tp1125
g31
s(I-10
I21
tp1126
g248
s(I26
I15
tp1127
g64
s(I48
I16
tp1128
g100
s(I29
I18
tp1129
g89
s(I34
I-2
tp1130
g138
s(I5
I25
tp1131
g35
s(I-9
I14
tp1132
g248
s(I27
I36
tp1133
g105
s(I7
I2
tp1134
g50
s(I22
I-3
tp1135
g734
s(I30
I19
tp1136
g89
s(I17
I14
tp1137
g72
s(I20
I13
tp1138
g72
s(I42
I30
tp1139
g21
s(I23
I16
tp1140
g72
s(I-7
I17
tp1141
g248
s(I45
I3
tp1142
g31
s(I32
I24
tp1143
g89
s(I31
I-10
tp1144
g138
s(I28
I-5
tp1145
g156
s(I8
I17
tp1146
g95
s(I11
I12
tp1147
g142
s(I-3
I5
tp1148
g194
s(I14
I11
tp1149
g142
s(I36
I28
tp1150
g21
s(I1
I22
tp1151
g95
s(I39
I1
tp1152
g31
s(I26
I22
tp1153
g130
s(I48
I23
tp1154
g100
s(I37
I-12
tp1155
g138
s(I-3
I-9
tp1156
g55
s(I34
I-7
tp1157
g138
s(I2
I15
tp1158
g95
s(I5
I2
tp1159
g77
s(I9
I-7
tp1160
g45
s(I22
I-12
tp1161
g240
s(I30
I26
tp1162
g130
s(I17
I7
tp1163
g72
s(I20
I20
tp1164
g209
s(I42
I25
tp1165
g21
s(I43
I-6
tp1166
g40
s(I32
I31
tp1167
g105
s(I-2
I0
tp1168
g55
s(I28
I-14
tp1169
g156
s(I8
I24
tp1170
g95
s(I11
I5
tp1171
g189
s(I14
I18
tp1172
g142
s(I36
I27
tp1173
g21
s(I26
I17
tp1174
g64
s(I24
I-10
tp1175
g134
s(I12
I28
tp1176
g35
s(I37
I-3
tp1177
g40
s(I-9
I4
tp1178
g194
s(I-2
I-6
tp1179
g55
s(I5
I11
tp1180
g114
s(I30
I29
tp1181
g130
s(I20
I19
tp1182
g142
s(I42
I0
tp1183
g31
s(I6
I26
tp1184
g35
s(I43
I-13
tp1185
g178
s(I40
I2
tp1186
g31
s(I32
I22
tp1187
g89
s(I35
I35
tp1188
g105
s(I18
I25
tp1189
g26
s(I6
I-1
tp1190
g119
s(I-3
I23
tp1191
g59
s(I33
I9
tp1192
g64
s(I14
I21
tp1193
g35
s(I36
I2
tp1194
g125
s(I26
I24
tp1195
g130
s(I24
I-3
tp1196
g152
s(I12
I27
tp1197
g35
s(I15
I-11
tp1198
g45
s(I2
I1
tp1199
g55
s(I12
I-8
tp1200
g45
s(I-9
I21
tp1201
g248
s(I27
I11
tp1202
g64
s(I30
I4
tp1203
g4
s(I-1
I-2
tp1204
g55
s(I20
I26
tp1205
g26
s(I42
I11
tp1206
g15
s(I48
I2
tp1207
g31
s(I6
I29
tp1208
g35
s(I21
I-9
tp1209
g240
s(I18
I-6
tp1210
g45
s(I18
I16
tp1211
g72
s(I21
I5
tp1212
g168
s(I43
I24
tp1213
g21
s(I8
I6
tp1214
g828
s(I-6
I13
tp1215
g215
s(I-3
I16
tp1216
g59
s(I33
I2
tp1217
g152
s(I14
I28
tp1218
g35
s(I36
I9
tp1219
g68
s(I27
I-7
tp1220
g134
s(I21
I1
tp1221
g168
s(I12
I18
tp1222
g142
s(I-2
I17
tp1223
g59
s(I15
I7
tp1224
g189
s(I15
I-14
tp1225
g45
s(I37
I22
tp1226
g21
s(I2
I24
tp1227
g95
s(I12
I-9
tp1228
g45
s(I-9
I18
tp1229
g248
s(I27
I0
tp1230
g152
s(I49
I19
tp1231
g100
s(I30
I15
tp1232
g89
s(I33
I-5
tp1233
g138
s(I-1
I17
tp1234
g59
s(I6
I20
tp1235
g95
s(I8
I-13
tp1236
g45
s(I28
I33
tp1237
g105
s(I32
I36
tp1238
g105
s(I31
I20
tp1239
g89
s(I18
I-11
tp1240
g45
s(I18
I11
tp1241
g72
s(I47
I-2
tp1242
g40
s(I21
I14
tp1243
g72
s(I43
I17
tp1244
g100
s(I8
I13
tp1245
g114
s(I-6
I20
tp1246
g248
s(I33
I27
tp1247
g21
s(I30
I-15
tp1248
g156
s(I27
I-1
tp1249
g152
s(I-10
I-1
tp1250
g172
s(I9
I18
tp1251
g95
s(I12
I9
tp1252
g189
s(I-1
I24
tp1253
g59
s(I15
I12
tp1254
g142
s(I15
I-5
tp1255
g45
s(I37
I31
tp1256
g21
s(I2
I19
tp1257
g95
s(I27
I25
tp1258
g89
s(I49
I20
tp1259
g100
s(I36
I-9
tp1260
g138
s(I33
I-4
tp1261
g138
s(I3
I16
tp1262
g95
s(I25
I35
tp1263
g105
s(I6
I15
tp1264
g95
s(I8
I-6
tp1265
g45
s(I21
I-7
tp1266
g240
s(I31
I29
tp1267
g130
s(I18
I2
tp1268
g280
s(I21
I23
tp1269
g209
s(I43
I22
tp1270
g21
s(I42
I-11
tp1271
g178
s(I33
I28
tp1272
g21
s(I46
I10
tp1273
g31
s(I30
I-8
tp1274
g156
s(I-4
I-2
tp1275
g55
s(I27
I-9
tp1276
g134
s(I5
I-7
tp1277
g119
s(I9
I27
tp1278
g35
s(I12
I0
tp1279
g50
s(I-2
I3
tp1280
g172
s(I15
I21
tp1281
g209
s(I37
I24
tp1282
g21
s(I24
I3
tp1283
g168
s(I27
I30
tp1284
g105
s(I36
I-2
tp1285
g138
s(I33
I-11
tp1286
g138
s(I3
I25
tp1287
g229
s(I25
I36
tp1288
g105
s(I6
I6
tp1289
g828
s(I31
I26
tp1290
g130
s(I40
I18
tp1291
g100
s(I21
I16
tp1292
g72
s(I43
I15
tp1293
g100
s(I7
I29
tp1294
g35
s(I46
I8
tp1295
g31
s(I33
I21
tp1296
g21
s(I32
I15
tp1297
g89
s(I48
I13
tp1298
g15
s(I9
I28
tp1299
g35
s(I-5
I13
tp1300
g215
s(I-2
I10
tp1301
g215
s(I34
I12
tp1302
g64
s(I15
I18
tp1303
g142
s(I37
I1
tp1304
g40
s(I24
I10
tp1305
g72
s(I37
I-1
tp1306
g40
s(I-9
I-3
tp1307
g172
s(I13
I24
tp1308
g35
s(I14
I-14
tp1309
g45
s(I11
I-3
tp1310
g119
s(I28
I14
tp1311
g64
s(I31
I3
tp1312
g4
s(I40
I25
tp1313
g21
s(I-2
I11
tp1314
g215
s(I43
I4
tp1315
g31
s(I7
I26
tp1316
g35
s(I46
I19
tp1317
g100
s(I20
I-12
tp1318
g240
s(I22
I8
tp1319
g168
s(I44
I29
tp1320
g294
s(I9
I5
tp1321
g828
s(I5
I-4
tp1322
g77
s(I-2
I13
tp1323
g215
s(I34
I7
tp1324
g125
s(I15
I27
tp1325
g26
s(I37
I10
tp1326
g68
s(I24
I17
tp1327
g72
s(I26
I-10
tp1328
g134
s(I39
I-7
tp1329
g40
s(I13
I17
tp1330
g142
s(I0
I10
tp1331
g215
s(I14
I-11
tp1332
g45
s(I38
I27
tp1333
g21
s(I3
I7
tp1334
g268
s(I11
I-14
tp1335
g45
s(I28
I5
tp1336
g168
s(I40
I9
tp1337
g31
s(I31
I8
tp1338
g64
s(I32
I-8
tp1339
g138
s(I45
I-5
tp1340
g40
s(I7
I19
tp1341
g95
s(I46
I26
tp1342
g294
s(I29
I34
tp1343
g105
s(I20
I-13
tp1344
g240
s(I16
I25
tp1345
g26
s(I22
I3
tp1346
g168
s(I44
I20
tp1347
g100
s(I9
I14
tp1348
g95
s(I34
I30
tp1349
g21
s(I24
I24
tp1350
g130
s(I26
I-15
tp1351
g134
s(I10
I23
tp1352
g95
s(I39
I-10
tp1353
g138
s(I45
I27
tp1354
g294
s(I13
I10
tp1355
g142
s(I0
I1
tp1356
g55
s(I14
I-4
tp1357
g45
s(I38
I18
tp1358
g68
s(I3
I12
tp1359
g114
s(I-4
I2
tp1360
g84
s(I42
I3
tp1361
g31
s(I28
I28
tp1362
g130
s(I35
I-14
tp1363
g156
s(I40
I7
tp1364
g31
s(I4
I21
tp1365
g95
s(I45
I-12
tp1366
g178
s(I7
I8
tp1367
g114
s(I46
I29
tp1368
g294
s(I20
I-6
tp1369
g240
s(I16
I16
tp1370
g72
s(I27
I-2
tp1371
g152
s(I22
I26
tp1372
g26
s(I-8
I5
tp1373
g194
s(I44
I19
tp1374
g100
s(I-5
I16
tp1375
g59
s(I47
I6
tp1376
g31
s(I34
I25
tp1377
g21
s(I22
I24
tp1378
g209
s(I26
I-8
tp1379
g134
s(I13
I3
tp1380
g50
s(I1
I-6
tp1381
g55
s(I0
I24
tp1382
g95
s(I-9
I0
tp1383
g172
s(I38
I21
tp1384
g21
s(I-2
I24
tp1385
g59
s(I25
I0
tp1386
g152
s(I28
I27
tp1387
g130
s(I35
I-5
tp1388
g138
s(I32
I-10
tp1389
g138
s(I4
I28
tp1390
g229
s(I-3
I-4
tp1391
g55
s(I26
I33
tp1392
g105
s(I7
I1
tp1393
g50
s(I23
I-4
tp1394
g734
s(I47
I0
tp1395
g31
s(I16
I23
tp1396
g209
s(I9
I-14
tp1397
g45
s(I19
I2
tp1398
g168
s(I41
I17
tp1399
g100
s(I22
I29
tp1400
g26
s(I-8
I12
tp1401
g215
s(I44
I10
tp1402
g31
s(I41
I-7
tp1403
g40
s(I34
I16
tp1404
g89
s(I29
I-1
tp1405
g152
s(I-6
I5
tp1406
g194
s(I10
I25
tp1407
g35
s(I-4
I8
tp1408
g194
s(I35
I19
tp1409
g89
s(I38
I12
tp1410
g15
s(I25
I9
tp1411
g64
s(I28
I18
tp1412
g89
s(I4
I27
tp1413
g229
s(I-10
I14
tp1414
g248
s(I23
I-11
tp1415
g240
s(I29
I13
tp1416
g64
s(I16
I14
tp1417
g72
s(I19
I11
tp1418
g72
s(I41
I26
tp1419
g21
s(I22
I20
tp1420
g209
s(I-8
I19
tp1421
g248
s(I44
I1
tp1422
g31
s(I-10
I4
tp1423
g194
s(I47
I20
tp1424
g100
s(I19
I-15
tp1425
g240
s(I16
I-4
tp1426
g45
s(I29
I-9
tp1427
g156
s(I23
I15
tp1428
g72
s(I10
I0
tp1429
g50
s(I-4
I7
tp1430
g194
s(I35
I24
tp1431
g21
s(I0
I22
tp1432
g95
s(I38
I7
tp1433
g31
s(I25
I18
tp1434
g64
s(I17
I-2
tp1435
g387
s(I25
I-13
tp1436
g134
s(I38
I-2
tp1437
g40
s(I1
I9
tp1438
g268
s(I39
I28
tp1439
g21
s(I-4
I-6
tp1440
g55
s(I10
I-3
tp1441
g119
s(I23
I-14
tp1442
g240
s(I29
I6
tp1443
g168
s(I16
I5
tp1444
g189
s(I40
I-2
tp1445
g40
s(I19
I16
tp1446
g72
s(I41
I3
tp1447
g31
s(I44
I-8
tp1448
g40
s(I47
I29
tp1449
g294
s(I19
I-10
tp1450
g240
s(I34
I34
tp1451
g105
s(I17
I26
tp1452
g26
s(I16
I-13
tp1453
g45
s(I23
I4
tp1454
g168
s(I45
I23
tp1455
g100
s(I10
I11
tp1456
g142
s(I9
I4
tp1457
g50
s(I5
I-5
tp1458
g77
s(I47
I-10
tp1459
g178
s(I-7
I23
tp1460
g248
s(I25
I27
tp1461
g130
s(I25
I-12
tp1462
g134
s(I11
I24
tp1463
g35
s(I38
I-15
tp1464
g156
s(I1
I2
tp1465
g84
s(I39
I21
tp1466
g21
s(I4
I9
tp1467
g268
s(I-10
I24
tp1468
g248
s(I-2
I-4
tp1469
g55
s(I29
I31
tp1470
g105
s(I19
I25
tp1471
g26
s(I41
I4
tp1472
g31
s(I5
I22
tp1473
g95
s(I44
I-9
tp1474
g40
s(I47
I26
tp1475
g294
s(I17
I19
tp1476
g142
s(I23
I29
tp1477
g130
s(I7
I-8
tp1478
g119
s(I45
I16
tp1479
g100
s(I-4
I21
tp1480
g59
s(I40
I-13
tp1481
g178
s(I3
I-7
tp1482
g84
s(I35
I6
tp1483
g125
s(I25
I28
tp1484
g130
s(I25
I-3
tp1485
g152
s(I48
I5
tp1486
g31
s(I11
I17
tp1487
g142
s(I0
I-7
tp1488
g55
s(I1
I27
tp1489
g229
s(I13
I-6
tp1490
g45
s(I46
I1
tp1491
g31
s(I39
I18
tp1492
g100
s(I-10
I19
tp1493
g248
s(I26
I5
tp1494
g168
s(I29
I24
tp1495
g89
s(I47
I-5
tp1496
g40
s(I-8
I-4
tp1497
g55
s(I22
I-5
tp1498
g240
s(I23
I1
tp1499
g168
s(I23
I-2
tp1500
g734
s(I17
I20
tp1501
g209
s(I7
I-4
tp1502
g119
s(I20
I7
tp1503
g168
s(I42
I20
tp1504
g100
s(I23
I26
tp1505
g130
s(I-7
I15
tp1506
g248
s(I45
I9
tp1507
g31
s(I32
I2
tp1508
g152
s(I35
I15
tp1509
g89
s(I28
I-3
tp1510
g152
s(I46
I-1
tp1511
g40
s(I11
I22
tp1512
g35
s(I-3
I11
tp1513
g215
s(I14
I1
tp1514
g387
s(I36
I22
tp1515
g21
s(I1
I28
tp1516
g229
s(I13
I-13
tp1517
g45
s(I39
I11
tp1518
g15
s(I26
I12
tp1519
g64
s(I48
I17
tp1520
g100
s(I29
I17
tp1521
g89
s(I-3
I-8
tp1522
g55
s(I5
I24
tp1523
g95
s(I9
I-9
tp1524
g45
s(I22
I-14
tp1525
g240
s(I30
I16
tp1526
g89
s(I17
I13
tp1527
g72
s(I20
I14
tp1528
g72
s(I42
I31
tp1529
g21
s(I23
I19
tp1530
g130
s(I-7
I16
tp1531
g248
s(I45
I2
tp1532
g31
s(I-1
I5
tp1533
g194
s(I32
I25
tp1534
g89
s(I31
I-15
tp1535
g156
s(I-1
I3
tp1536
g172
s(I28
I-12
tp1537
g156
s(I8
I18
tp1538
g95
s(I11
I15
tp1539
g142
s(I3
I-6
tp1540
g84
s(I14
I8
tp1541
g189
s(I0
I-9
tp1542
g55
s(I36
I29
tp1543
g21
s(I1
I21
tp1544
g95
s(I39
I0
tp1545
g31
s(I26
I23
tp1546
g130
s(I48
I8
tp1547
g31
s(I-5
I-6
tp1548
g55
s(I37
I-13
tp1549
g156
s(I9
I-5
tp1550
g45
s(I2
I12
tp1551
g114
s(I5
I1
tp1552
g77
s(I-9
I6
tp1553
g194
s(I22
I-11
tp1554
g240
s(I30
I27
tp1555
g130
s(I17
I6
tp1556
g189
s(I20
I21
tp1557
g209
s(I42
I6
tp1558
g31
s(I48
I-5
tp1559
g274
s(I43
I-3
tp1560
g40
s(I40
I1
tp1561
g31
s(I32
I16
tp1562
g89
s(I31
I-1
tp1563
g152
s(I28
I-13
tp1564
g156
s(I8
I25
tp1565
g35
s(I11
I4
tp1566
g50
s(I14
I19
tp1567
g142
s(I36
I4
tp1568
g125
s(I13
I-2
tp1569
g119
s(I26
I30
tp1570
g105
s(I24
I-9
tp1571
g134
s(I12
I29
tp1572
g35
s(I37
I-4
tp1573
g40
s(I34
I-15
tp1574
g156
s(I-1
I-5
tp1575
g55
s(I5
I10
tp1576
g114
s(I30
I2
tp1577
g152
s(I36
I-1
tp1578
g125
s(I10
I7
tp1579
g189
s(I20
I28
tp1580
g26
s(I42
I1
tp1581
g31
s(I6
I27
tp1582
g35
s(I43
I-14
tp1583
g178
s(I32
I23
tp1584
g89
s(I31
I33
tp1585
g105
s(I3
I-2
tp1586
g84
s(I35
I34
tp1587
g105
s(I18
I22
tp1588
g209
s(I8
I0
tp1589
g50
s(I-6
I3
tp1590
g172
s(I-3
I22
tp1591
g59
s(I33
I8
tp1592
g64
s(I14
I26
tp1593
g35
s(I36
I3
tp1594
g125
s(I35
I21
tp1595
g21
s(I26
I25
tp1596
g130
s(I24
I-2
tp1597
g152
s(I12
I20
tp1598
g35
s(I15
I-12
tp1599
g45
s(I-6
I-6
tp1600
g55
s(I12
I-7
tp1601
g45
s(I-9
I20
tp1602
g248
s(I27
I10
tp1603
g64
s(I49
I25
tp1604
g100
s(I30
I5
tp1605
g4
s(I20
I27
tp1606
g26
s(I-1
I16
tp1607
g59
s(I42
I8
tp1608
g31
s(I6
I18
tp1609
g95
s(I21
I-10
tp1610
g240
s(I18
I-5
tp1611
g45
s(I18
I17
tp1612
g72
s(I21
I4
tp1613
g168
s(I43
I27
tp1614
g21
s(I8
I7
tp1615
g114
s(I-6
I10
tp1616
g215
s(I33
I1
tp1617
g152
s(I14
I29
tp1618
g35
s(I36
I10
tp1619
g68
s(I27
I-8
tp1620
g134
s(I-6
I2
tp1621
g84
s(I12
I19
tp1622
g142
s(I-2
I22
tp1623
g59
s(I15
I6
tp1624
g189
s(I15
I-3
tp1625
g387
s(I37
I21
tp1626
g21
s(I2
I25
tp1627
g229
s(I27
I3
tp1628
g168
s(I49
I18
tp1629
g100
s(I30
I12
tp1630
g64
s(I33
I-6
tp1631
g138
s(I6
I21
tp1632
g95
s(I8
I-12
tp1633
g45
s(I28
I34
tp1634
g105
s(I32
I37
tp1635
g105
s(I-3
I0
tp1636
g55
s(I18
I-14
tp1637
g45
s(I18
I8
tp1638
g72
s(I21
I13
tp1639
g72
s(I43
I16
tp1640
g100
s(I8
I14
tp1641
g95
s(I-6
I21
tp1642
g248
s(I33
I26
tp1643
g21
s(I-3
I-1
tp1644
g55
s(I42
I-4
tp1645
g40
s(I4
I5
tp1646
g268
s(I27
I-15
tp1647
g134
s(I9
I17
tp1648
g95
s(I12
I10
tp1649
g142
s(I15
I15
tp1650
g142
s(I15
I-6
tp1651
g45
s(I37
I30
tp1652
g21
s(I2
I16
tp1653
g95
s(I28
I-1
tp1654
g152
s(I27
I24
tp1655
g89
s(I33
I-13
tp1656
g156
s(I3
I19
tp1657
g95
s(I25
I34
tp1658
g105
s(I6
I12
tp1659
g114
s(I8
I-5
tp1660
g45
s(I21
I-8
tp1661
g240
s(I45
I13
tp1662
g15
s(I31
I28
tp1663
g130
s(I18
I3
tp1664
g280
s(I21
I22
tp1665
g209
s(I43
I9
tp1666
g31
s(I42
I-14
tp1667
g178
s(I33
I19
tp1668
g89
s(I32
I14
tp1669
g64
s(I30
I-7
tp1670
g156
s(I48
I12
tp1671
g15
s(I27
I-10
tp1672
g134
s(I9
I26
tp1673
g35
s(I12
I1
tp1674
g50
s(I2
I-4
tp1675
g55
s(I15
I20
tp1676
g209
s(I37
I7
tp1677
g125
s(I48
I-4
tp1678
g274
s(I27
I17
tp1679
g89
s(I33
I-12
tp1680
g138
s(I3
I24
tp1681
g95
s(I6
I7
tp1682
g114
s(I31
I5
tp1683
g4
s(I40
I19
tp1684
g100
s(I-1
I10
tp1685
g215
s(I43
I14
tp1686
g15
s(I7
I28
tp1687
g35
s(I42
I-3
tp1688
g40
s(I33
I20
tp1689
g89
s(I9
I3
tp1690
g50
s(I-5
I12
tp1691
g215
s(I-1
I11
tp1692
g215
s(I34
I13
tp1693
g64
s(I15
I29
tp1694
g26
s(I9
I-4
tp1695
g45
s(I37
I0
tp1696
g40
s(I24
I11
tp1697
g72
s(I27
I22
tp1698
g89
s(I-5
I-3
tp1699
g55
s(I13
I23
tp1700
g35
s(I14
I-13
tp1701
g45
s(I3
I1
tp1702
g84
s(I11
I-4
tp1703
g45
s(I28
I15
tp1704
g89
s(I31
I2
tp1705
g152
s(I16
I-1
tp1706
g387
s(I40
I26
tp1707
g21
s(I21
I24
tp1708
g209
s(I43
I7
tp1709
g31
s(I-7
I4
tp1710
g194
s(I7
I21
tp1711
g95
s(I46
I16
tp1712
g100
s(I27
I23
tp1713
g89
s(I20
I-11
tp1714
g240
s(I17
I-1
tp1715
g387
s(I22
I9
tp1716
g72
s(I32
I10
tp1717
g64
s(I-9
I-6
tp1718
g172
s(I-5
I5
tp1719
g194
s(I34
I4
tp1720
g125
s(I15
I26
tp1721
g26
s(I37
I9
tp1722
g68
s(I24
I18
tp1723
g209
s(I32
I-2
tp1724
g138
s(I26
I-9
tp1725
g134
s(I39
I-8
tp1726
g40
s(I13
I16
tp1727
g142
s(I0
I11
tp1728
g215
s(I14
I-6
tp1729
g45
s(I38
I24
tp1730
g21
s(I3
I6
tp1731
g268
s(I11
I-11
tp1732
g45
s(I4
I-7
tp1733
g84
s(I46
I-10
tp1734
g178
s(I28
I6
tp1735
g168
s(I31
I11
tp1736
g64
s(I32
I-7
tp1737
g138
s(I45
I-6
tp1738
g40
s(I-2
I-5
tp1739
g55
s(I7
I18
tp1740
g95
s(I46
I27
tp1741
g294
s(I29
I33
tp1742
g105
s(I20
I-4
tp1743
g690
s(I16
I26
tp1744
g26
s(I17
I-9
tp1745
g45
s(I22
I0
tp1746
g168
s(I44
I21
tp1747
g100
s(I9
I13
tp1748
g114
s(I34
I31
tp1749
g21
s(I24
I25
tp1750
g130
s(I26
I-2
tp1751
g152
s(I10
I20
tp1752
g95
s(I39
I-15
tp1753
g178
s(I13
I9
tp1754
g189
s(I0
I2
tp1755
g84
s(I14
I-3
tp1756
g387
s(I38
I19
tp1757
g294
s(I3
I15
tp1758
g95
s(I28
I29
tp1759
g130
s(I35
I-11
tp1760
g138
s(I40
I8
tp1761
g31
s(I4
I22
tp1762
g95
s(I45
I-13
tp1763
g178
s(I7
I11
tp1764
g114
s(I47
I1
tp1765
g31
s(I20
I-5
tp1766
g240
s(I16
I17
tp1767
g72
s(I9
I-13
tp1768
g45
s(I22
I27
tp1769
g26
s(I-8
I6
tp1770
g194
s(I44
I12
tp1771
g15
s(I-5
I19
tp1772
g59
s(I41
I-9
tp1773
g40
s(I34
I22
tp1774
g21
s(I22
I-1
tp1775
g734
s(I26
I-7
tp1776
g134
s(I-6
I4
tp1777
g194
s(I13
I2
tp1778
g50
s(I1
I-7
tp1779
g55
s(I21
I25
tp1780
g26
s(I0
I25
tp1781
g229
s(I38
I10
tp1782
g31
s(I25
I7
tp1783
g168
s(I28
I20
tp1784
g89
s(I35
I-6
tp1785
g138
s(I40
I15
tp1786
g100
s(I4
I29
tp1787
g229
s(I-7
I-2
tp1788
g55
s(I16
I8
tp1789
g72
s(I19
I5
tp1790
g168
s(I41
I16
tp1791
g100
s(I22
I18
tp1792
g209
s(I-8
I13
tp1793
g215
s(I44
I11
tp1794
g15
s(I-10
I7
tp1795
g194
s(I41
I-8
tp1796
g40
s(I34
I17
tp1797
g89
s(I29
I-3
tp1798
g152
s(I10
I6
tp1799
g189
s(I-4
I9
tp1800
g215
s(I35
I18
tp1801
g89
s(I0
I16
tp1802
g95
s(I38
I13
tp1803
g15
s(I25
I8
tp1804
g64
s(I28
I19
tp1805
g89
s(I4
I4
tp1806
g77
s(I-10
I15
tp1807
g248
s(I23
I-12
tp1808
g240
s(I29
I12
tp1809
g64
s(I16
I15
tp1810
g72
s(I40
I-3
tp1811
g40
s(I19
I10
tp1812
g72
s(I48
I3
tp1813
g31
s(I22
I21
tp1814
g209
s(I-8
I20
tp1815
g248
s(I44
I2
tp1816
g31
s(I47
I23
tp1817
g100
s(I16
I-3
tp1818
g387
s(I29
I-10
tp1819
g156
s(I23
I14
tp1820
g72
s(I45
I29
tp1821
g294
s(I10
I1
tp1822
g50
s(I-4
I0
tp1823
g55
s(I46
I9
tp1824
g31
s(I-5
I2
tp1825
g84
s(I0
I23
tp1826
g95
s(I47
I-9
tp1827
g40
s(I38
I4
tp1828
g31
s(I25
I17
tp1829
g64
s(I25
I-14
tp1830
g134
s(I1
I8
tp1831
g268
s(I-1
I13
tp1832
g215
s(I4
I3
tp1833
g77
s(I10
I-6
tp1834
g45
s(I29
I5
tp1835
g168
s(I12
I-2
tp1836
g119
s(I16
I6
tp1837
g189
s(I-9
I-2
tp1838
g172
s(I19
I19
tp1839
g142
s(I41
I2
tp1840
g31
s(I44
I-7
tp1841
g40
s(I47
I28
tp1842
g294
s(I19
I-7
tp1843
g240
s(I34
I35
tp1844
g105
s(I17
I25
tp1845
g26
s(I16
I-12
tp1846
g45
s(I23
I7
tp1847
g168
s(I45
I22
tp1848
g100
s(I10
I8
tp1849
g189
s(I35
I0
tp1850
g125
s(I25
I26
tp1851
g130
s(I25
I-5
tp1852
g134
s(I32
I-9
tp1853
g138
s(I38
I-10
tp1854
g138
s(I1
I1
tp1855
g55
s(I46
I0
tp1856
g31
s(I39
I20
tp1857
g100
s(I4
I10
tp1858
g114
s(I29
I30
tp1859
g105
s(I19
I24
tp1860
g209
s(I47
I-3
tp1861
g40
s(I5
I21
tp1862
g95
s(I-7
I-1
tp1863
g55
s(I19
I-2
tp1864
g168
s(I17
I18
tp1865
g142
s(I7
I-3
tp1866
g119
s(I23
I28
tp1867
g130
s(I7
I-5
tp1868
g119
s(I45
I15
tp1869
g100
s(I-4
I22
tp1870
g59
s(I40
I-12
tp1871
g138
s(I35
I9
tp1872
g68
s(I42
I13
tp1873
g15
s(I25
I-4
tp1874
g152
s(I11
I16
tp1875
g142
s(I0
I-6
tp1876
g55
s(I1
I26
tp1877
g229
s(I13
I-7
tp1878
g45
s(I39
I13
tp1879
g15
s(I-10
I16
tp1880
g248
s(I26
I2
tp1881
g152
s(I29
I23
tp1882
g89
s(I-3
I-7
tp1883
g55
s(I47
I-6
tp1884
g40
s(I27
I33
tp1885
g105
s(I-8
I-3
tp1886
g55
s(I22
I-8
tp1887
g240
s(I17
I11
tp1888
g72
s(I48
I-3
tp1889
g274
s(I20
I0
tp1890
g168
s(I42
I21
tp1891
g21
s(I23
I21
tp1892
g130
s(I-7
I14
tp1893
g248
s(I45
I8
tp1894
g31
s(I32
I3
tp1895
g4
s(I35
I14
tp1896
g68
s(I-1
I2
tp1897
g84
s(I28
I-2
tp1898
g152
s(I11
I9
tp1899
g189
s(I-3
I10
tp1900
g215
s(I14
I6
tp1901
g189
s(I36
I23
tp1902
g21
s(I1
I19
tp1903
g95
s(I13
I-14
tp1904
g45
s(I39
I10
tp1905
g31
s(I26
I13
tp1906
g64
s(I47
I14
tp1907
g15
s(I29
I16
tp1908
g89
s(I-5
I-5
tp1909
g55
s(I21
I7
tp1910
g168
s(I34
I-4
tp1911
g138
s(I5
I7
tp1912
g268
s(I9
I-10
tp1913
g45
s(I22
I-13
tp1914
g240
s(I30
I17
tp1915
g89
s(I17
I12
tp1916
g72
s(I20
I15
tp1917
g72
s(I42
I28
tp1918
g21
s(I23
I18
tp1919
g209
s(I48
I-6
tp1920
g274
s(I45
I1
tp1921
g31
s(I40
I0
tp1922
g31
s(I32
I26
tp1923
g130
s(I28
I-11
tp1924
g156
s(I8
I19
tp1925
g95
s(I11
I14
tp1926
g142
s(I-3
I3
tp1927
g172
s(I14
I9
tp1928
g189
s(I36
I30
tp1929
g21
s(I1
I20
tp1930
g95
s(I39
I3
tp1931
g31
s(I26
I20
tp1932
g130
s(I24
I-15
tp1933
g134
s(I37
I-14
tp1934
g156
s(I34
I-9
tp1935
g138
s(I2
I13
tp1936
g114
s(I-5
I-1
tp1937
g55
s(I-9
I1
tp1938
g172
s(I30
I24
tp1939
g89
s(I17
I5
tp1940
g189
s(I-10
I-6
tp1941
g172
s(I20
I22
tp1942
g209
s(I46
I-13
tp1943
g178
s(I-7
I24
tp1944
g248
s(I43
I-4
tp1945
g40
s(I32
I17
tp1946
g89
s(I18
I28
tp1947
g26
s(I31
I-7
tp1948
g138
s(I24
I4
tp1949
g168
s(I8
I26
tp1950
g35
s(I11
I7
tp1951
g189
s(I14
I16
tp1952
g142
s(I36
I5
tp1953
g125
s(I49
I-2
tp1954
g274
s(I26
I31
tp1955
g105
s(I24
I-8
tp1956
g134
s(I37
I-5
tp1957
g40
s(I-2
I-8
tp1958
g55
s(I5
I9
tp1959
g268
s(I30
I3
tp1960
g4
s(I20
I29
tp1961
g26
s(I-1
I19
tp1962
g59
s(I46
I-6
tp1963
g40
s(I6
I24
tp1964
g95
s(I43
I-11
tp1965
g178
s(I31
I32
tp1966
g105
s(I35
I37
tp1967
g105
s(I18
I23
tp1968
g209
s(I41
I10
tp1969
g31
s(I8
I1
tp1970
g50
s(I6
I-4
tp1971
g119
s(I-3
I21
tp1972
g59
s(I33
I15
tp1973
g89
s(I14
I27
tp1974
g35
s(I36
I12
tp1975
g68
s(I-1
I1
tp1976
g55
s(I48
I7
tp1977
g31
s(I12
I21
tp1978
g35
s(I15
I-9
tp1979
g45
s(I12
I-6
tp1980
g45
s(I-9
I23
tp1981
g248
s(I27
I13
tp1982
g64
s(I49
I24
tp1983
g100
s(I30
I10
tp1984
g64
s(I46
I-3
tp1985
g40
s(I6
I19
tp1986
g95
s(I28
I36
tp1987
g105
s(I21
I-11
tp1988
g240
s(I18
I-8
tp1989
g45
s(I18
I14
tp1990
g72
s(I21
I3
tp1991
g168
s(I43
I26
tp1992
g21
s(I8
I8
tp1993
g114
s(I-6
I11
tp1994
g215
s(I33
I0
tp1995
g152
s(I36
I11
tp1996
g68
s(I-4
I-4
tp1997
g55
s(I27
I-5
tp1998
g134
s(I10
I-13
tp1999
g45
s(I12
I12
tp2000
g142
s(I-1
I23
tp2001
g59
s(I15
I1
tp2002
g387
s(I15
I-4
tp2003
g45
s(I37
I20
tp2004
g89
s(I2
I22
tp2005
g95
s(I-1
I20
tp2006
g59
s(I27
I2
tp2007
g152
s(I49
I17
tp2008
g100
s(I30
I13
tp2009
g64
s(I33
I-7
tp2010
g138
s(I6
I10
tp2011
g114
s(I8
I-11
tp2012
g45
s(I28
I35
tp2013
g105
s(I21
I-2
tp2014
g168
s(I31
I22
tp2015
g89
s(I18
I-13
tp2016
g45
s(I18
I9
tp2017
(iLink
Link
p2018
(dp2019
g6
I0
sg7
g773
sg9
(I293
I147
tp2020
sg11
I0
sg12
g775
sbs(I21
I12
tp2021
g72
s(I43
I19
tp2022
g100
s(I8
I15
tp2023
g95
s(I-6
I18
tp2024
g248
s(I33
I25
tp2025
g21
s(I32
I13
tp2026
g64
s(I30
I-9
tp2027
g156
s(I48
I11
tp2028
g15
s(I9
I16
tp2029
g95
s(I12
I11
tp2030
g142
s(I15
I14
tp2031
g142
s(I37
I29
tp2032
g21
s(I2
I17
tp2033
g95
s(I-4
I-7
tp2034
g55
s(I27
I27
tp2035
g130
s(I36
I-15
tp2036
g156
s(I41
I25
tp2037
g21
s(I33
I-14
tp2038
g156
s(I3
I18
tp2039
g95
s(I25
I33
tp2040
g105
s(I6
I13
tp2041
g114
s(I8
I-4
tp2042
g45
s(I31
I31
tp2043
g105
s(I18
I0
tp2044
g387
s(I-2
I5
tp2045
g194
s(I43
I8
tp2046
g31
s(I-1
I-9
tp2047
g55
s(I42
I-13
tp2048
g178
s(I47
I11
tp2049
g15
s(I33
I18
tp2050
g89
s(I2
I5
tp2051
g268
s(I30
I-1
tp2052
g152
s(I9
I25
tp2053
g35
s(I12
I2
tp2054
g50
s(I-2
I1
tp2055
g55
s(I15
I23
tp2056
g209
s(I9
I-3
tp2057
g119
s(I37
I6
tp2058
g125
s(I24
I5
tp2059
g168
s(I27
I16
tp2060
g89
s(I49
I3
tp2061
g274
s(I-2
I7
tp2062
g194
s(I13
I29
tp2063
g35
s(I36
I-8
tp2064
g138
s(I-4
I-8
tp2065
g55
s(I3
I27
tp2066
g229
s(I6
I4
tp2067
g50
s(I31
I4
tp2068
g4
s(I40
I20
tp2069
g100
s(I43
I1
tp2070
g31
s(I42
I-6
tp2071
g40
s(I9
I2
tp2072
g50
s(I-5
I15
tp2073
g59
s(I-2
I8
tp2074
g194
s(I34
I10
tp2075
g64
s(I15
I28
tp2076
g26
s(I37
I15
tp2077
g89
s(I24
I12
tp2078
g72
s(I13
I22
tp2079
g35
s(I-10
I-3
tp2080
g172
s(I3
I0
tp2081
g84
s(I4
I-8
tp2082
g84
s(I46
I-15
tp2083
g178
s(I28
I8
tp2084
g64
s(I31
I13
tp2085
g64
s(I6
I2
tp2086
g50
s(I40
I27
tp2087
g21
s(I43
I6
tp2088
g31
s(I7
I20
tp2089
g95
s(I46
I17
tp2090
g100
s(I20
I-10
tp2091
g240
s(I17
I-3
tp2092
g387
s(I35
I27
tp2093
g21
s(I9
I11
tp2094
g114
s(I5
I-6
tp2095
g77
s(I34
I5
tp2096
g125
s(I37
I8
tp2097
g68
s(I24
I19
tp2098
g130
s(I31
I37
tp2099
g105
s(I26
I-12
tp2100
g134
s(I39
I-5
tp2101
g40
s(I13
I15
tp2102
g142
s(I0
I12
tp2103
g215
s(I14
I-5
tp2104
g45
s(I38
I25
tp2105
g21
s(I3
I9
tp2106
g268
s(I11
I-12
tp2107
g45
s(I28
I7
tp2108
g168
s(I31
I10
tp2109
g64
s(I32
I-6
tp2110
g138
s(I45
I-7
tp2111
g40
s(I7
I13
tp2112
g114
s(I46
I24
tp2113
g100
s(I29
I32
tp2114
g105
s(I20
I-3
tp2115
g690
s(I33
I37
tp2116
g105
s(I16
I27
tp2117
g26
s(I17
I-10
tp2118
g45
s(I22
I1
tp2119
g168
s(I-8
I0
tp2120
g55
s(I44
I22
tp2121
g100
s(I9
I12
tp2122
g114
s(I34
I28
tp2123
g21
s(I-8
I-2
tp2124
g55
s(I24
I26
tp2125
g130
s(I-6
I7
tp2126
g194
s(I10
I21
tp2127
g95
s(I13
I8
tp2128
g189
s(I0
I3
tp2129
g172
s(I38
I16
tp2130
g68
s(I3
I14
tp2131
g95
s(I28
I30
tp2132
g105
s(I35
I-12
tp2133
g138
s(I32
I-15
tp2134
g156
s(I4
I23
tp2135
g95
s(I45
I-14
tp2136
g178
s(I26
I36
tp2137
g105
s(I7
I10
tp2138
g114
s(I16
I18
tp2139
g142
s(I39
I31
tp2140
g21
s(I-4
I-5
tp2141
g55
s(I-8
I7
tp2142
g194
s(I44
I13
tp2143
g15
s(I-5
I18
tp2144
g59
s(I-10
I6
tp2145
g194
s(I41
I-10
tp2146
g138
s(I34
I23
tp2147
g21
s(I10
I28
tp2148
g35
s(I13
I1
tp2149
g50
s(I1
I-8
tp2150
g55
s(I0
I26
tp2151
g229
s(I38
I11
tp2152
g15
s(I33
I-2
tp2153
g138
s(I25
I6
tp2154
g168
s(I28
I21
tp2155
g89
s(I35
I-3
tp2156
g138
s(I7
I3
tp2157
g50
s(I23
I-1
tp2158
g734
s(I16
I9
tp2159
g72
s(I40
I-4
tp2160
g40
s(I19
I4
tp2161
g168
s(I41
I23
tp2162
g21
s(I22
I19
tp2163
g209
s(I-8
I14
tp2164
g248
s(I44
I4
tp2165
g31
s(I47
I9
tp2166
g31
s(I29
I-4
tp2167
g152
s(I-10
I-5
tp2168
g172
s(I-4
I10
tp2169
g215
s(I5
I-3
tp2170
g77
s(I0
I17
tp2171
g95
s(I47
I-12
tp2172
g178
s(I38
I2
tp2173
g31
s(I25
I15
tp2174
g64
s(I-1
I12
tp2175
g215
s(I-4
I-3
tp2176
g55
s(I-10
I12
tp2177
g215
s(I2
I2
tp2178
g84
s(I23
I-9
tp2179
g240
s(I29
I11
tp2180
g64
s(I16
I0
tp2181
g387
s(I-7
I0
tp2182
g55
s(I19
I13
tp2183
g72
s(I41
I24
tp2184
g21
s(I-8
I21
tp2185
g248
s(I44
I3
tp2186
g31
s(I47
I22
tp2187
g100
s(I19
I-13
tp2188
g240
s(I16
I-2
tp2189
g387
s(I29
I-11
tp2190
g156
s(I23
I9
tp2191
g72
s(I45
I28
tp2192
g294
s(I10
I14
tp2193
g95
s(I-4
I1
tp2194
g55
s(I35
I26
tp2195
g21
s(I38
I5
tp2196
g31
s(I25
I16
tp2197
g64
s(I25
I-15
tp2198
g134
s(I40
I14
tp2199
g15
s(I38
I-4
tp2200
g40
s(I1
I15
tp2201
g95
s(I46
I3
tp2202
g31
s(I39
I30
tp2203
g21
s(I4
I12
tp2204
g114
s(I10
I-5
tp2205
g45
s(I29
I4
tp2206
g168
s(I16
I7
tp2207
g72
s(I-2
I-9
tp2208
g55
s(I19
I18
tp2209
g142
s(I41
I1
tp2210
g31
s(I44
I-6
tp2211
g40
s(I39
I-1
tp2212
g40
s(I19
I-8
tp2213
g240
s(I34
I32
tp2214
g105
s(I17
I24
tp2215
g209
s(I16
I-11
tp2216
g45
s(I23
I6
tp2217
g168
s(I-7
I3
tp2218
g172
s(I45
I21
tp2219
g100
s(I10
I9
tp2220
g189
s(I-4
I24
tp2221
g59
s(I35
I3
tp2222
g125
s(I25
I25
tp2223
g130
s(I42
I12
tp2224
g15
s(I25
I-6
tp2225
g134
s(I11
I26
tp2226
g35
s(I38
I-9
tp2227
g40
s(I1
I0
tp2228
g55
s(I39
I23
tp2229
g21
s(I4
I11
tp2230
g114
s(I-7
I-3
tp2231
g55
s(I29
I29
tp2232
g130
s(I-3
I-6
tp2233
g55
s(I19
I27
tp2234
g26
s(I47
I-4
tp2235
g40
s(I5
I20
tp2236
g95
s(I44
I-15
tp2237
g178
s(I-8
I-9
tp2238
g55
s(I30
I36
tp2239
g105
s(I17
I17
tp2240
g72
s(I7
I-6
tp2241
g119
s(I45
I14
tp2242
g15
s(I-4
I23
tp2243
g59
s(I40
I-11
tp2244
g138
s(I26
I34
tp2245
g105
s(I35
I8
tp2246
g68
s(I11
I19
tp2247
g142
s(I0
I-5
tp2248
g55
s(I1
I25
tp2249
g229
s(I13
I-8
tp2250
g45
s(I39
I12
tp2251
g15
s(I-10
I17
tp2252
g248
s(I26
I3
tp2253
g168
s(I47
I15
tp2254
g100
s(I29
I22
tp2255
g89
s(I-5
I-8
tp2256
g55
s(I-9
I11
tp2257
g215
s(I5
I29
tp2258
g35
s(I11
I27
tp2259
g35
s(I27
I32
tp2260
g105
s(I-8
I-1
tp2261
g55
s(I22
I-7
tp2262
g240
s(I17
I10
tp2263
g72
s(I20
I1
tp2264
g168
s(I42
I18
tp2265
g100
s(I23
I20
tp2266
g130
s(I-7
I13
tp2267
g215
s(I45
I7
tp2268
g31
s(I10
I-11
tp2269
g45
s(I32
I4
tp2270
g4
s(I11
I8
tp2271
g189
s(I-3
I9
tp2272
g215
s(I14
I7
tp2273
g189
s(I36
I16
tp2274
g89
s(I1
I18
tp2275
g95
s(I29
I-2
tp2276
g152
s(I39
I5
tp2277
g31
s(I26
I10
tp2278
g64
s(I48
I19
tp2279
g100
s(I47
I4
tp2280
g31
s(I34
I-3
tp2281
g138
s(I5
I6
tp2282
g268
s(I9
I-11
tp2283
g45
s(I30
I22
tp2284
g89
s(I17
I3
tp2285
g280
s(I46
I-14
tp2286
g178
s(I20
I8
tp2287
g168
s(I42
I29
tp2288
g21
s(I-7
I22
tp2289
g248
s(I45
I0
tp2290
g31
s(I32
I27
tp2291
g130
s(I31
I-13
tp2292
g156
s(I28
I-10
tp2293
g156
s(I8
I20
tp2294
g95
s(I11
I1
tp2295
g50
s(I3
I-4
tp2296
g84
s(I14
I14
tp2297
g142
s(I36
I31
tp2298
g21
s(I39
I2
tp2299
g31
s(I26
I21
tp2300
g130
s(I24
I-14
tp2301
g134
s(I37
I-15
tp2302
g156
s(I34
I-12
tp2303
g138
s(I-6
I-4
tp2304
g55
s(I5
I15
tp2305
g95
s(I9
I-2
tp2306
g119
s(I30
I25
tp2307
g89
s(I17
I4
tp2308
g280
s(I20
I23
tp2309
g209
s(I-2
I18
tp2310
g59
s(I42
I4
tp2311
g31
s(I32
I18
tp2312
g89
s(I18
I29
tp2313
g26
s(I41
I11
tp2314
g15
s(I31
I-8
tp2315
g138
s(I8
I27
tp2316
g35
s(I-6
I6
tp2317
g194
s(I11
I6
tp2318
g189
s(I14
I17
tp2319
g142
s(I36
I6
tp2320
g125
s(I49
I-3
tp2321
g274
s(I26
I28
tp2322
g130
s(I24
I-7
tp2323
g134
s(I37
I-6
tp2324
g40
s(I-2
I-7
tp2325
g55
s(I12
I-4
tp2326
g45
s(I5
I8
tp2327
g268
s(I30
I0
tp2328
g152
s(I46
I-5
tp2329
g40
s(I6
I25
tp2330
g35
s(I43
I-12
tp2331
g178
s(I19
I-1
tp2332
g168
s(I-3
I2
tp2333
g84
s(I18
I-2
tp2334
g387
s(I35
I36
tp2335
g105
s(I18
I20
tp2336
g209
s(I22
I14
tp2337
g72
s(I8
I2
tp2338
g50
s(I-6
I1
tp2339
g55
s(I-3
I20
tp2340
g59
s(I33
I14
tp2341
g64
s(I14
I24
tp2342
g35
s(I21
I21
tp2343
g209
s(I36
I13
tp2344
g68
s(I42
I-1
tp2345
g40
s(I10
I-14
tp2346
g45
s(I-3
I-2
tp2347
g55
s(I12
I22
tp2348
g35
s(I15
I-10
tp2349
g45
s(I2
I28
tp2350
g229
s(I12
I-5
tp2351
g45
s(I-9
I22
tp2352
g248
s(I27
I12
tp2353
g64
s(I30
I11
tp2354
g64
s(I-7
I5
tp2355
g194
s(I6
I16
tp2356
g95
s(I28
I37
tp2357
g105
s(I21
I-12
tp2358
g240
s(I32
I32
tp2359
g105
s(I18
I-7
tp2360
g45
s(I18
I15
tp2361
g72
s(I21
I2
tp2362
g168
s(I43
I29
tp2363
g21
s(I8
I9
tp2364
g114
s(I-6
I8
tp2365
g194
s(I33
I7
tp2366
g4
s(I32
I12
tp2367
g64
s(I48
I10
tp2368
g31
s(I27
I-6
tp2369
g134
s(I12
I13
tp2370
g142
s(I-2
I20
tp2371
g59
s(I15
I0
tp2372
g387
s(I37
I19
tp2373
g89
s(I2
I23
tp2374
g95
s(I12
I-14
tp2375
g45
s(I27
I5
tp2376
g168
s(I49
I16
tp2377
g100
s(I5
I-11
tp2378
g119
s(I33
I-8
tp2379
g138
s(I6
I11
tp2380
g114
s(I8
I-10
tp2381
g45
s(I21
I-3
tp2382
g690
s(I31
I17
tp2383
g89
s(I18
I6
tp2384
g189
s(I21
I11
tp2385
g72
s(I43
I18
tp2386
g100
s(I2
I10
tp2387
g114
s(I-6
I19
tp2388
g248
s(I33
I24
tp2389
g21
s(I30
I-12
tp2390
g156
s(I27
I-13
tp2391
g134
s(I9
I23
tp2392
g95
s(I12
I4
tp2393
g50
s(I15
I9
tp2394
g189
s(I9
I-1
tp2395
g119
s(I37
I28
tp2396
g21
s(I27
I26
tp2397
g130
s(I36
I-14
tp2398
g156
s(I33
I-15
tp2399
g156
s(I5
I-2
tp2400
g77
s(I3
I21
tp2401
g95
s(I25
I32
tp2402
g105
s(I-6
I-2
tp2403
g55
s(I8
I-3
tp2404
g119
s(I-6
I9
tp2405
g215
s(I40
I6
tp2406
g31
s(I31
I30
tp2407
g105
s(I18
I1
tp2408
g387
s(I21
I20
tp2409
g209
s(I43
I11
tp2410
g15
s(I46
I4
tp2411
g31
s(I33
I17
tp2412
g89
s(I9
I24
tp2413
g95
s(I-5
I9
tp2414
g215
s(I12
I3
tp2415
g50
s(I-1
I6
tp2416
g194
s(I15
I22
tp2417
g209
s(I37
I5
tp2418
g125
s(I24
I6
tp2419
g168
s(I27
I19
tp2420
g89
s(I49
I2
tp2421
g274
s(I13
I28
tp2422
g35
s(I36
I-7
tp2423
g138
s(I-10
I-4
tp2424
g172
s(I3
I26
tp2425
g229
s(I11
I-7
tp2426
g45
s(I6
I5
tp2427
g828
s(I31
I7
tp2428
g4
s(I10
I-2
tp2429
g119
s(I21
I29
tp2430
g26
s(I43
I0
tp2431
g31
s(I42
I-5
tp2432
g40
s(I17
I-5
tp2433
g45
s(I-1
I-4
tp2434
g55
s(I9
I1
tp2435
g50
s(I-5
I14
tp2436
g59
s(I-2
I9
tp2437
g215
s(I34
I11
tp2438
g64
s(I37
I14
tp2439
g68
s(I48
I18
tp2440
g100
s(I-1
I22
tp2441
g59
s(I24
I13
tp2442
g72
s(I39
I-3
tp2443
g40
s(I13
I21
tp2444
g35
s(I12
I14
tp2445
g142
s(I-3
I-3
tp2446
g55
s(I11
I-1
tp2447
g119
s(I28
I9
tp2448
g64
s(I31
I12
tp2449
g64
s(I41
I12
tp2450
g15
s(I40
I28
tp2451
g21
s(I7
I23
tp2452
g95
s(I47
I7
tp2453
g31
s(I20
I-9
tp2454
g240
s(I33
I35
tp2455
g105
s(I17
I-4
tp2456
g45
s(I41
I-1
tp2457
g40
s(I22
I15
tp2458
g72
s(I44
I24
tp2459
g100
s(I9
I10
tp2460
g114
s(I-5
I7
tp2461
g194
s(I42
I10
tp2462
g31
s(I34
I2
tp2463
g125
s(I38
I-1
tp2464
g40
s(I24
I20
tp2465
g130
s(I26
I-11
tp2466
g134
s(I6
I-6
tp2467
g119
s(I39
I-6
tp2468
g40
s(I13
I14
tp2469
g142
s(I0
I13
tp2470
g215
s(I14
I-8
tp2471
g45
s(I38
I30
tp2472
g21
s(I3
I8
tp2473
g268
s(I11
I-9
tp2474
g45
s(I28
I0
tp2475
g152
s(I32
I-5
tp2476
g138
s(I45
I-8
tp2477
g40
s(I7
I12
tp2478
g114
s(I46
I25
tp2479
g100
s(I20
I-2
tp2480
g168
s(I33
I36
tp2481
g105
s(I16
I28
tp2482
g26
s(I17
I-11
tp2483
g45
s(I46
I13
tp2484
g15
s(I22
I6
tp2485
g168
s(I-8
I1
tp2486
g55
s(I44
I23
tp2487
g100
s(I-10
I1
tp2488
g172
s(I42
I7
tp2489
g31
s(I34
I29
tp2490
g21
s(I24
I27
tp2491
g130
s(I26
I-4
tp2492
g152
s(I10
I18
tp2493
g95
s(I39
I-13
tp2494
g178
s(I13
I7
tp2495
g189
s(I0
I4
tp2496
g194
s(I38
I17
tp2497
g68
s(I28
I31
tp2498
g105
s(I35
I-9
tp2499
g138
s(I32
I-14
tp2500
g156
s(I4
I16
tp2501
g95
s(I45
I-15
tp2502
g178
s(I26
I37
tp2503
g105
s(I7
I5
tp2504
g828
s(I16
I19
tp2505
g142
s(I40
I-5
tp2506
g40
s(I48
I1
tp2507
g31
s(I22
I25
tp2508
g26
s(I-8
I8
tp2509
g194
s(I44
I14
tp2510
g15
s(I-5
I21
tp2511
g59
s(I41
I-11
tp2512
g138
s(I34
I20
tp2513
g89
s(I10
I29
tp2514
g35
s(I-4
I12
tp2515
g215
s(I13
I0
tp2516
g50
s(I5
I-1
tp2517
g77
s(I0
I27
tp2518
g229
s(I47
I-11
tp2519
g178
s(I38
I8
tp2520
g31
s(I25
I5
tp2521
g168
s(I28
I22
tp2522
g89
s(I35
I-4
tp2523
g138
s(I-2
I15
tp2524
g59
s(I-10
I10
tp2525
g215
s(I-1
I-7
tp2526
g55
s(I-7
I-4
tp2527
g55
s(I23
I-7
tp2528
g240
s(I16
I10
tp2529
g72
s(I19
I7
tp2530
g168
s(I41
I22
tp2531
g21
s(I22
I16
tp2532
g72
s(I-8
I15
tp2533
g248
s(I44
I5
tp2534
g31
s(I41
I-2
tp2535
g40
s(I16
I-8
tp2536
g45
s(I29
I-5
tp2537
g156
s(I10
I4
tp2538
g50
s(I-4
I11
tp2539
g215
s(I35
I20
tp2540
g89
s(I0
I18
tp2541
g95
s(I38
I3
tp2542
g31
s(I25
I14
tp2543
g64
s(I40
I13
tp2544
g15
s(I38
I-6
tp2545
g40
s(I46
I2
tp2546
g31
s(I4
I6
tp2547
g268
s(I-10
I13
tp2548
g215
s(I23
I-10
tp2549
g240
s(I29
I10
tp2550
g64
s(I16
I1
tp2551
g387
s(I19
I12
tp2552
g72
s(I41
I31
tp2553
g21
s(I-8
I22
tp2554
g248
s(I44
I-4
tp2555
g40
s(I-7
I-8
tp2556
g55
s(I47
I17
tp2557
g100
s(I19
I-14
tp2558
g240
s(I29
I-12
tp2559
g156
s(I23
I8
tp2560
g168
s(I-4
I-1
tp2561
g55
s(I10
I15
tp2562
g95
s(I4
I-6
tp2563
g84
s(I35
I29
tp2564
g21
s(I25
I23
tp2565
g130
s(I42
I15
tp2566
g100
s(I38
I-3
tp2567
g40
s(I1
I14
tp2568
g95
s(I39
I25
tp2569
g21
s(I4
I13
tp2570
g114
s(I10
I-8
tp2571
g45
s(I29
I3
tp2572
g168
s(I-3
I-5
tp2573
g55
s(I19
I21
tp2574
g209
s(I41
I0
tp2575
g31
s(I35
I1
tp2576
g125
s(I44
I-5
tp2577
g40
s(I30
I34
tp2578
g105
s(I19
I-5
tp2579
g240
s(I34
I33
tp2580
g105
s(I16
I-10
tp2581
g45
s(I31
I35
tp2582
g105
s(I-7
I2
tp2583
g172
s(I45
I20
tp2584
g100
s(I35
I2
tp2585
g125
s(I18
I-1
tp2586
g387
s(I25
I24
tp2587
g130
s(I25
I-7
tp2588
g134
s(I11
I29
tp2589
g35
s(I38
I-12
tp2590
g138
s(I1
I7
tp2591
g268
s(I13
I-1
tp2592
g119
s(I39
I22
tp2593
g21
s(I47
I12
tp2594
g15
s(I29
I28
tp2595
g130
s(I-5
I-7
tp2596
g55
s(I-9
I8
tp2597
g194
s(I19
I26
tp2598
g26
s(I41
I9
tp2599
g31
s(I5
I19
tp2600
g95
s(I44
I-14
tp2601
g178
s(I-8
I-8
tp2602
g55
s(I30
I37
tp2603
g105
s(I17
I16
tp2604
g72
s(I-7
I11
tp2605
g215
s(I6
I-3
tp2606
g119
s(I-2
I2
tp2607
g84
s(I-4
I16
tp2608
g59
s(I40
I-10
tp2609
g138
s(I35
I11
tp2610
g68
s(I11
I18
tp2611
g142
s(I-3
I15
tp2612
g59
s(I0
I-4
tp2613
g55
s(I-4
I6
tp2614
g194
s(I1
I24
tp2615
g95
s(I13
I-9
tp2616
g45
s(I39
I15
tp2617
g100
s(I-10
I22
tp2618
g248
s(I26
I0
tp2619
g152
s(I29
I21
tp2620
g89
s(I5
I28
tp2621
g35
s(I-9
I13
tp2622
g215
s(I27
I35
tp2623
g105
s(I22
I-2
tp2624
g734
s(I17
I9
tp2625
g72
s(I20
I2
tp2626
g168
s(I42
I19
tp2627
g100
s(I23
I23
tp2628
g130
s(I-7
I12
tp2629
g215
s(I45
I6
tp2630
g31
s(I32
I5
tp2631
g4
s(I31
I-11
tp2632
g138
s(I28
I-8
tp2633
g156
s(I-5
I-2
tp2634
g55
s(I11
I11
tp2635
g142
s(I-3
I8
tp2636
g194
s(I14
I4
tp2637
g50
s(I36
I17
tp2638
g89
s(I1
I17
tp2639
g95
s(I39
I4
tp2640
g31
s(I26
I11
tp2641
g64
s(I48
I20
tp2642
g100
s(I37
I-9
tp2643
g40
s(I34
I-6
tp2644
g138
s(I5
I5
tp2645
g268
s(I-9
I10
tp2646
g215
s(I8
I-1
tp2647
g119
s(I22
I-15
tp2648
g240
s(I30
I23
tp2649
g89
s(I17
I2
tp2650
g280
s(I20
I9
tp2651
g72
s(I42
I26
tp2652
g21
s(I-7
I21
tp2653
g248
s(I43
I-7
tp2654
g40
s(I32
I28
tp2655
g130
s(I47
I-14
tp2656
g178
s(I31
I-14
tp2657
g156
s(I28
I-9
tp2658
g156
s(I8
I21
tp2659
g95
s(I11
I0
tp2660
g50
s(I-3
I1
tp2661
g55
s(I14
I15
tp2662
g142
s(I36
I24
tp2663
g21
s(I49
I-5
tp2664
g274
s(I26
I18
tp2665
g64
s(I24
I-13
tp2666
g134
s(I34
I-11
tp2667
g138
s(I2
I11
tp2668
g114
s(I48
I6
tp2669
g31
s(I48
I-1
tp2670
g274
s(I5
I14
tp2671
g95
s(I-9
I3
tp2672
g172
s(I30
I30
tp2673
g105
s(I40
I-1
tp2674
g40
s(I20
I16
tp2675
g72
s(I42
I5
tp2676
g31
s(I43
I-2
tp2677
g40
s(I32
I19
tp2678
g89
s(I3
I-3
tp2679
g84
s(I18
I26
tp2680
g26
s(I31
I-5
tp2681
g138
s(I8
I28
tp2682
g35
s(I6
I-5
tp2683
g119
s(I14
I22
tp2684
g35
s(I36
I7
tp2685
g125
s(I46
I5
tp2686
g31
s(I49
I-4
tp2687
g274
s(I26
I29
tp2688
g130
s(I-6
I0
tp2689
g55
s(I24
I-6
tp2690
g134
s(I12
I24
tp2691
g35
s(I37
I-7
tp2692
g40
s(I-2
I-1
tp2693
g55
s(I12
I-3
tp2694
g119
s(I-9
I24
tp2695
g248
s(I30
I1
tp2696
g152
s(I-7
I6
tp2697
g194
s(I46
I-8
tp2698
g40
s(I43
I-9
tp2699
g40
s(I31
I34
tp2700
g105
s(I-5
I4
tp2701
g194
s(I18
I21
tp2702
g209
s(I8
I3
tp2703
g50
s(I-6
I14
tp2704
g248
s(I-3
I19
tp2705
g59
s(I33
I13
tp2706
g64
s(I14
I25
tp2707
g35
s(I14
I-2
tp2708
g387
s(I36
I14
tp2709
g68
s(I48
I9
tp2710
g31
s(I12
I23
tp2711
g35
s(I-1
I18
tp2712
g59
s(I2
I29
tp2713
g229
s(I12
I-12
tp2714
g45
s(I-9
I17
tp2715
g248
s(I27
I15
tp2716
g89
s(I30
I8
tp2717
g64
s(I-5
I8
tp2718
g194
s(I6
I17
tp2719
g95
s(I21
I-13
tp2720
g240
s(I32
I33
tp2721
g105
s(I18
I-10
tp2722
g45
s(I18
I12
tp2723
g72
s(I-1
I7
tp2724
g194
s(I43
I28
tp2725
g21
s(I8
I10
tp2726
g114
s(I6
I-11
tp2727
g119
s(I33
I6
tp2728
g4
s(I30
I-14
tp2729
g156
s(I27
I-3
tp2730
g152
s(I5
I0
tp2731
g77
s(I-1
I21
tp2732
g59
s(I-2
I-2
tp2733
g55
s(I15
I3
tp2734
g50
s(I15
I-2
tp2735
g387
s(I37
I18
tp2736
g89
s(I2
I20
tp2737
g95
s(I12
I-13
tp2738
g45
s(I27
I4
tp2739
g168
s(I49
I23
tp2740
g100
s(I36
I-12
tp2741
g138
s(I6
I8
tp2742
g114
s(I8
I-9
tp2743
g45
s(I40
I5
tp2744
g31
s(I21
I-4
tp2745
g690
s(I31
I16
tp2746
g89
s(I18
I-15
tp2747
g240
s(I18
I7
tp2748
g72
s(I21
I10
tp2749
g72
s(I43
I21
tp2750
g21
s(I-6
I16
tp2751
g248
s(I42
I-10
tp2752
g178
s(I33
I31
tp2753
g21
s(I30
I-11
tp2754
g156
s(I27
I-14
tp2755
g134
s(I9
I22
tp2756
g95
s(I12
I5
tp2757
g189
s(I15
I8
tp2758
g189
s(I37
I27
tp2759
g21
s(I24
I0
tp2760
g152
s(I27
I29
tp2761
g130
s(I26
I-1
tp2762
g152
s(I-9
I-5
tp2763
g172
s(I10
I-9
tp2764
g45
s(I36
I-13
tp2765
g156
s(I3
I20
tp2766
g95
s(I4
I-1
tp2767
g84
s(I6
I3
tp2768
g50
s(I8
I-2
tp2769
g119
s(I31
I25
tp2770
g89
s(I21
I19
tp2771
g209
s(I43
I10
tp2772
g31
s(I42
I-15
tp2773
g178
s(I33
I16
tp2774
g89
s(I-6
I-5
tp2775
g55
s(I30
I-4
tp2776
g152
s(I5
I-10
tp2777
g119
s(I2
I-5
tp2778
g55
s(I15
I17
tp2779
g142
s(I37
I4
tp2780
g125
s(I24
I7
tp2781
g168
s(I27
I18
tp2782
g89
s(I49
I1
tp2783
g274
s(I13
I27
tp2784
g35
s(I36
I-6
tp2785
g138
s(I3
I29
tp2786
g229
s(I11
I-8
tp2787
g45
sa(dp2788
(I34
I7
tp2789
(iLink
Link
p2790
(dp2791
g6
I1
sg7
(I0
I0
tp2792
sg9
(I558
I120
tp2793
sg11
I14
sg12
(I36
I36
tp2794
sbs(I30
I12
tp2795
(iLink
Link
p2796
(dp2797
g6
I1
sg7
g2792
sg9
(I491
I200
tp2798
sg11
I14
sg12
g2794
sbs(I8
I13
tp2799
(iLink
Link
p2800
(dp2801
g6
I1
sg7
g2792
sg9
(I138
I218
tp2802
sg11
I18
sg12
(I12
I72
tp2803
sbs(I35
I1
tp2804
(iLink
Link
p2805
(dp2806
g6
I1
sg7
g2792
sg9
(I574
I26
tp2807
sg11
I28
sg12
(I213
I15
tp2808
sbs(I26
I2
tp2809
(iLink
Link
p2810
(dp2811
g6
I1
sg7
g2792
sg9
(I431
I39
tp2812
sg11
I28
sg12
g2808
sbs(I39
I4
tp2813
(iLink
Link
p2814
(dp2815
g6
I1
sg7
g2792
sg9
(I627
I74
tp2816
sg11
I28
sg12
g2808
sbs(I32
I21
tp2817
(iLink
Link
p2818
(dp2819
g6
I1
sg7
g2792
sg9
(I515
I344
tp2820
sg11
I14
sg12
g2794
sbs(I2
I5
tp2821
(iLink
Link
p2822
(dp2823
g6
I1
sg7
g2792
sg9
(I40
I92
tp2824
sg11
I18
sg12
g2803
sbs(I32
I2
tp2825
(iLink
Link
p2826
(dp2827
g6
I1
sg7
g2792
sg9
(I524
I39
tp2828
sg11
I28
sg12
g2808
sbs(I33
I3
tp2829
(iLink
Link
p2830
(dp2831
g6
I1
sg7
g2792
sg9
(I533
I54
tp2832
sg11
I28
sg12
g2808
sbs(I34
I4
tp2833
(iLink
Link
p2834
(dp2835
g6
I1
sg7
g2792
sg9
(I546
I64
tp2836
sg11
I28
sg12
g2808
sbs(I26
I17
tp2837
(iLink
Link
p2838
(dp2839
g6
I1
sg7
g2792
sg9
(I424
I280
tp2840
sg11
I14
sg12
g2794
sbs(I32
I3
tp2841
(iLink
Link
p2842
(dp2843
g6
I1
sg7
g2792
sg9
(I527
I55
tp2844
sg11
I28
sg12
g2808
sbs(I39
I2
tp2845
(iLink
Link
p2846
(dp2847
g6
I1
sg7
g2792
sg9
(I638
I36
tp2848
sg11
I28
sg12
g2808
sbs(I33
I2
tp2849
(iLink
Link
p2850
(dp2851
g6
I1
sg7
g2792
sg9
(I535
I40
tp2852
sg11
I28
sg12
g2808
sbs(I36
I9
tp2853
(iLink
Link
p2854
(dp2855
g6
I1
sg7
g2792
sg9
(I590
I144
tp2856
sg11
I14
sg12
g2794
sbs(I35
I3
tp2857
(iLink
Link
p2858
(dp2859
g6
I1
sg7
g2792
sg9
(I572
I62
tp2860
sg11
I28
sg12
g2808
sbs(I30
I10
tp2861
(iLink
Link
p2862
(dp2863
g6
I1
sg7
g2792
sg9
(I490
I169
tp2864
sg11
I14
sg12
g2794
sbs(I34
I2
tp2865
(iLink
Link
p2866
(dp2867
g6
I1
sg7
g2792
sg9
(I557
I45
tp2868
sg11
I28
sg12
g2808
sbs(I32
I0
tp2869
(iLink
Link
p2870
(dp2871
g6
I1
sg7
g2792
sg9
(I524
I12
tp2872
sg11
I28
sg12
g2808
sbs(I7
I13
tp2873
(iLink
Link
p2874
(dp2875
g6
I1
sg7
g2792
sg9
(I126
I221
tp2876
sg11
I18
sg12
g2803
sbs(I22
I5
tp2877
(iLink
Link
p2878
(dp2879
g6
I1
sg7
g2792
sg9
(I357
I93
tp2880
sg11
I14
sg12
g2794
sbs(I34
I3
tp2881
(iLink
Link
p2882
(dp2883
g6
I1
sg7
g2792
sg9
(I546
I56
tp2884
sg11
I28
sg12
g2808
sbsa(dp2885
(I14
I17
tp2886
(iLink
Link
p2887
(dp2888
g6
I2
sg7
g2792
sg9
(I273
I324
tp2889
sg11
I70
sg12
(I76
I13
tp2890
sbs(I19
I19
tp2891
g2887
s(I10
I17
tp2892
(iLink
Link
p2893
(dp2894
g6
I2
sg7
g2792
sg9
(I185
I265
tp2895
sg11
I70
sg12
g2890
sbs(I7
I12
tp2896
g2893
s(I12
I12
tp2897
g2893
s(I17
I20
tp2898
g2887
s(I13
I17
tp2899
g2887
s(I18
I19
tp2900
g2887
s(I16
I19
tp2901
g2887
s(I14
I18
tp2902
g2887
s(I10
I18
tp2903
g2893
s(I16
I22
tp2904
g2887
s(I12
I17
tp2905
g2893
s(I17
I23
tp2906
g2887
s(I13
I20
tp2907
g2887
s(I18
I20
tp2908
g2887
s(I8
I15
tp2909
g2893
s(I20
I20
tp2910
g2887
s(I9
I14
tp2911
g2893
s(I10
I13
tp2912
g2893
s(I14
I24
tp2913
g2887
s(I19
I24
tp2914
g2887
s(I9
I16
tp2915
g2893
s(I14
I15
tp2916
g2893
s(I20
I19
tp2917
g2887
s(I15
I14
tp2918
g2893
s(I21
I18
tp2919
g2887
s(I17
I18
tp2920
g2887
s(I13
I23
tp2921
g2887
s(I8
I12
tp2922
g2893
s(I15
I15
tp2923
g2893
s(I10
I14
tp2924
g2893
s(I8
I18
tp2925
g2893
s(I14
I21
tp2926
g2887
s(I11
I15
tp2927
g2893
s(I9
I19
tp2928
g2893
s(I15
I16
tp2929
g2887
s(I21
I24
tp2930
g2887
s(I20
I16
tp2931
g2887
s(I11
I16
tp2932
g2893
s(I15
I13
tp2933
g2893
s(I13
I13
tp2934
g2893
s(I17
I19
tp2935
g2887
s(I15
I22
tp2936
g2887
s(I14
I22
tp2937
g2887
s(I19
I18
tp2938
g2887
s(I7
I15
tp2939
g2893
s(I12
I13
tp2940
g2893
s(I13
I16
tp2941
g2887
s(I18
I16
tp2942
g2887
s(I17
I24
tp2943
g2887
s(I15
I12
tp2944
g2893
s(I9
I20
tp2945
g2893
s(I14
I19
tp2946
g2887
s(I19
I17
tp2947
g2887
s(I10
I19
tp2948
g2893
s(I13
I12
tp2949
g2893
s(I7
I18
tp2950
g2893
s(I12
I18
tp2951
g2893
s(I17
I22
tp2952
g2887
s(I16
I23
tp2953
g2887
s(I13
I19
tp2954
g2887
s(I18
I21
tp2955
g2887
s(I9
I13
tp2956
g2893
s(I7
I13
tp2957
g2893
s(I14
I12
tp2958
g2893
s(I11
I20
tp2959
g2893
s(I10
I20
tp2960
g2893
s(I7
I17
tp2961
g2893
s(I21
I17
tp2962
g2887
s(I17
I17
tp2963
g2887
s(I13
I22
tp2964
g2887
s(I18
I22
tp2965
g2887
s(I8
I13
tp2966
g2893
s(I10
I15
tp2967
g2893
s(I8
I19
tp2968
g2893
s(I16
I16
tp2969
g2887
s(I13
I14
tp2970
g2893
s(I19
I22
tp2971
g2887
s(I9
I18
tp2972
g2893
s(I15
I19
tp2973
g2887
s(I20
I17
tp2974
g2887
s(I11
I19
tp2975
g2893
s(I21
I21
tp2976
g2887
s(I16
I17
tp2977
g2887
s(I21
I20
tp2978
g2887
s(I12
I20
tp2979
g2893
s(I15
I17
tp2980
g2887
s(I7
I19
tp2981
g2893
s(I11
I12
tp2982
g2893
s(I8
I16
tp2983
g2893
s(I14
I23
tp2984
g2887
s(I11
I13
tp2985
g2893
s(I11
I14
tp2986
g2893
s(I12
I14
tp2987
g2893
s(I21
I23
tp2988
g2887
s(I12
I15
tp2989
g2893
s(I18
I17
tp2990
g2887
s(I15
I24
tp2991
g2887
s(I14
I16
tp2992
g2887
s(I20
I24
tp2993
g2887
s(I19
I16
tp2994
g2887
s(I10
I16
tp2995
g2893
s(I15
I21
tp2996
g2887
s(I12
I19
tp2997
g2893
s(I17
I21
tp2998
g2887
s(I13
I18
tp2999
g2887
s(I18
I18
tp3000
g2887
s(I7
I16
tp3001
g2893
s(I19
I21
tp3002
g2887
s(I9
I12
tp3003
g2893
s(I7
I20
tp3004
g2893
s(I15
I20
tp3005
g2887
s(I7
I14
tp3006
g2893
s(I14
I13
tp3007
g2893
s(I16
I21
tp3008
g2887
s(I21
I16
tp3009
g2887
s(I12
I16
tp3010
g2893
s(I17
I16
tp3011
g2887
s(I16
I24
tp3012
g2887
s(I13
I21
tp3013
g2887
s(I20
I22
tp3014
g2887
s(I18
I23
tp3015
g2887
s(I8
I14
tp3016
g2893
s(I9
I15
tp3017
g2893
s(I10
I12
tp3018
g2893
s(I8
I20
tp3019
g2893
s(I9
I17
tp3020
g2893
s(I15
I18
tp3021
g2887
s(I14
I14
tp3022
g2893
s(I20
I18
tp3023
g2887
s(I11
I18
tp3024
g2893
s(I16
I18
tp3025
g2887
s(I21
I19
tp3026
g2887
s(I13
I15
tp3027
g2893
s(I13
I24
tp3028
g2887
s(I18
I24
tp3029
g2887
s(I16
I20
tp3030
g2887
s(I8
I17
tp3031
g2893
s(I14
I20
tp3032
g2887
s(I19
I20
tp3033
g2887
s(I15
I23
tp3034
g2887
s(I20
I23
tp3035
g2887
s(I11
I17
tp3036
g2893
s(I21
I22
tp3037
g2887
s(I20
I21
tp3038
g2887
s(I19
I23
tp3039
g2887
sa(dp3040
a(dp3041
a(dp3042
a.