(lp0
(dp1
(I31
I6
tp2
(i__main__
Link
p3
(dp4
S'chapter'
p5
I0
sS'cat_pixel_selected'
p6
(I133
I122
tp7
sS'brush_size'
p8
I4
sS'tile_offset'
p9
(I0
I0
tp10
sS'page_number'
p11
I0
sS'map_pixel_selected'
p12
(I490
I66
tp13
sbs(I40
I22
tp14
(i__main__
Link
p15
(dp16
g5
I0
sg6
g7
sg8
I4
sg9
g10
sg11
I0
sg12
(I603
I391
tp17
sbs(I21
I28
tp18
(i__main__
Link
p19
(dp20
g5
I0
sg6
(I136
I121
tp21
sg8
I4
sg9
(I10
I-20
tp22
sg11
I0
sg12
(I507
I148
tp23
sbs(I7
I25
tp24
(i__main__
Link
p25
(dp26
g5
I0
sg6
g7
sg8
I4
sg9
g10
sg11
I0
sg12
(I143
I388
tp27
sbs(I9
I0
tp28
(i__main__
Link
p29
(dp30
g5
I0
sg6
g21
sg8
I4
sg9
(I10
I5
tp31
sg11
I0
sg12
(I263
I107
tp32
sbs(I-5
I1
tp33
(i__main__
Link
p34
(dp35
g5
I0
sg6
(I421
I232
tp36
sg8
I4
sg9
g31
sg11
I0
sg12
(I116
I148
tp37
sbs(I-2
I14
tp38
(i__main__
Link
p39
(dp40
g5
I0
sg6
g21
sg8
I4
sg9
g31
sg11
I0
sg12
(I185
I318
tp41
sbs(I34
I8
tp42
(i__main__
Link
p43
(dp44
g5
I0
sg6
g7
sg8
I4
sg9
g10
sg11
I0
sg12
(I522
I191
tp45
sbs(I15
I30
tp46
(i__main__
Link
p47
(dp48
g5
I0
sg6
g21
sg8
I4
sg9
g22
sg11
I0
sg12
(I429
I153
tp49
sbs(I37
I13
tp50
(i__main__
Link
p51
(dp52
g5
I0
sg6
g7
sg8
I4
sg9
g10
sg11
I0
sg12
(I595
I219
tp53
sbs(I24
I14
tp54
(i__main__
Link
p55
(dp56
g5
I0
sg6
g7
sg8
I4
sg9
g10
sg11
I0
sg12
(I381
I214
tp57
sbs(I13
I20
tp58
(i__main__
Link
p59
(dp60
g5
I0
sg6
g7
sg8
I4
sg9
g10
sg11
I0
sg12
(I237
I312
tp61
sbs(I3
I2
tp62
(i__main__
Link
p63
(dp64
g5
I0
sg6
(I140
I124
tp65
sg8
I4
sg9
g31
sg11
I0
sg12
(I189
I132
tp66
sbs(I28
I10
tp67
(i__main__
Link
p68
(dp69
g5
I0
sg6
g7
sg8
I4
sg9
g10
sg11
I0
sg12
(I442
I174
tp70
sbs(I31
I15
tp71
(i__main__
Link
p72
(dp73
g5
I0
sg6
g7
sg8
I4
sg9
g10
sg11
I0
sg12
(I538
I275
tp74
sbs(I40
I29
tp75
(i__main__
Link
p76
(dp77
g5
I0
sg6
g21
sg8
I4
sg9
(I-10
I-20
tp78
sg11
I0
sg12
(I444
I154
tp79
sbs(I7
I22
tp80
(i__main__
Link
p81
(dp82
g5
I0
sg6
g65
sg8
I4
sg9
(I5
I-5
tp83
sg11
I0
sg12
(I146
I226
tp84
sbs(I22
I12
tp85
g55
s(I9
I9
tp86
(i__main__
Link
p87
(dp88
g5
I0
sg6
g7
sg8
I4
sg9
g10
sg11
I0
sg12
(I141
I169
tp89
sbs(I-5
I6
tp90
(i__main__
Link
p91
(dp92
g5
I0
sg6
(I580
I176
tp93
sg8
I4
sg9
(I5
I5
tp94
sg11
I0
sg12
(I34
I216
tp95
sbs(I34
I3
tp96
(i__main__
Link
p97
(dp98
g5
I0
sg6
g21
sg8
I4
sg9
(I-10
I5
tp99
sg11
I0
sg12
(I434
I118
tp100
sbs(I24
I21
tp101
(i__main__
Link
p102
(dp103
g5
I0
sg6
g7
sg8
I4
sg9
g10
sg11
I0
sg12
(I419
I396
tp104
sbs(I13
I13
tp105
(i__main__
Link
p106
(dp107
g5
I0
sg6
g7
sg8
I4
sg9
g10
sg11
I0
sg12
(I183
I245
tp108
sbs(I0
I14
tp109
g39
s(I38
I31
tp110
g76
s(I3
I11
tp111
(i__main__
Link
p112
(dp113
g5
I0
sg6
(I134
I125
tp114
sg8
I4
sg9
g94
sg11
I0
sg12
(I111
I220
tp115
sbs(I28
I1
tp116
g3
s(I40
I4
tp117
g97
s(I7
I15
tp118
(i__main__
Link
p119
(dp120
g5
I0
sg6
g7
sg8
I4
sg9
g10
sg11
I0
sg12
(I130
I270
tp121
sbs(I16
I29
tp122
g47
s(I-1
I11
tp123
g112
s(I22
I7
tp124
(i__main__
Link
p125
(dp126
g5
I0
sg6
g7
sg8
I4
sg9
g10
sg11
I0
sg12
(I311
I151
tp127
sbs(I34
I26
tp128
g76
s(I24
I28
tp129
g19
s(I10
I19
tp130
g119
s(I13
I6
tp131
(i__main__
Link
p132
(dp133
g5
I0
sg6
g7
sg8
I4
sg9
g10
sg11
I0
sg12
(I234
I57
tp134
sbs(I0
I5
tp135
g112
s(I38
I22
tp136
g15
s(I25
I3
tp137
(i__main__
Link
p138
(dp139
g5
I0
sg6
g21
sg8
I4
sg9
(I0
I5
tp140
sg11
I0
sg12
(I352
I114
tp141
sbs(I28
I24
tp142
(i__main__
Link
p143
(dp144
g5
I0
sg6
g7
sg8
I4
sg9
g10
sg11
I0
sg12
(I481
I337
tp145
sbs(I40
I11
tp146
g51
s(I-1
I14
tp147
g39
s(I4
I17
tp148
(i__main__
Link
p149
(dp150
g5
I0
sg6
g65
sg8
I4
sg9
g83
sg11
I0
sg12
(I104
I230
tp151
sbs(I7
I4
tp152
g29
s(I16
I20
tp153
g59
s(I19
I1
tp154
(i__main__
Link
p155
(dp156
g5
I0
sg6
g21
sg8
I4
sg9
g140
sg11
I0
sg12
(I278
I117
tp157
sbs(I22
I30
tp158
g19
s(I12
I32
tp159
(i__main__
Link
p160
(dp161
g5
I0
sg6
g21
sg8
I4
sg9
g22
sg11
I0
sg12
(I355
I151
tp162
sbs(I34
I21
tp163
(i__main__
Link
p164
(dp165
g5
I0
sg6
g21
sg8
I4
sg9
(I-10
I-10
tp166
sg11
I0
sg12
(I440
I139
tp167
sbs(I10
I26
tp168
g160
s(I1
I-1
tp169
(i__main__
Link
p170
(dp171
g5
I0
sg6
g21
sg8
I4
sg9
g31
sg11
I0
sg12
(I187
I113
tp172
sbs(I0
I28
tp173
(i__main__
Link
p174
(dp175
g5
I0
sg6
g65
sg8
I4
sg9
g83
sg11
I0
sg12
(I105
I390
tp176
sbs(I38
I9
tp177
(i__main__
Link
p178
(dp179
g5
I0
sg6
g7
sg8
I4
sg9
g10
sg11
I0
sg12
(I600
I115
tp180
sbs(I25
I4
tp181
g138
s(I28
I23
tp182
g143
s(I4
I24
tp183
(i__main__
Link
p184
(dp185
g5
I0
sg6
g65
sg8
I4
sg9
g83
sg11
I0
sg12
(I105
I360
tp186
sbs(I16
I11
tp187
g125
s(I19
I6
tp188
g125
s(I22
I17
tp189
(i__main__
Link
p190
(dp191
g5
I0
sg6
g7
sg8
I4
sg9
g10
sg11
I0
sg12
(I322
I333
tp192
sbs(I-1
I4
tp193
(i__main__
Link
p194
(dp195
g5
I0
sg6
g65
sg8
I4
sg9
g31
sg11
I0
sg12
(I182
I197
tp196
sbs(I10
I5
tp197
(i__main__
Link
p198
(dp199
g5
I0
sg6
g21
sg8
I4
sg9
g140
sg11
I0
sg12
(I191
I117
tp200
sbs(I-4
I4
tp201
g34
s(I35
I23
tp202
g15
s(I0
I19
tp203
(i__main__
Link
p204
(dp205
g5
I0
sg6
g65
sg8
I4
sg9
g83
sg11
I0
sg12
(I107
I287
tp206
sbs(I38
I0
tp207
g97
s(I25
I13
tp208
(i__main__
Link
p209
(dp210
g5
I0
sg6
g7
sg8
I4
sg9
g10
sg11
I0
sg12
(I449
I249
tp211
sbs(I4
I7
tp212
g112
s(I10
I-1
tp213
g198
s(I29
I9
tp214
g68
s(I16
I2
tp215
g155
s(I19
I15
tp216
(i__main__
Link
p217
(dp218
g5
I0
sg6
g7
sg8
I4
sg9
g10
sg11
I0
sg12
(I284
I235
tp219
sbs(I5
I32
tp220
(i__main__
Link
p221
(dp222
g5
I0
sg6
g21
sg8
I4
sg9
g22
sg11
I0
sg12
(I204
I156
tp223
sbs(I23
I11
tp224
g55
s(I10
I12
tp225
g106
s(I-4
I3
tp226
g34
s(I35
I28
tp227
g76
s(I-2
I31
tp228
g174
s(I25
I22
tp229
g102
s(I1
I13
tp230
g39
s(I39
I24
tp231
g15
s(I4
I14
tp232
g39
s(I29
I2
tp233
(i__main__
Link
p234
(dp235
g5
I0
sg6
g7
sg8
I4
sg9
g10
sg11
I0
sg12
(I513
I44
tp236
sbs(I19
I20
tp237
g190
s(I-2
I32
tp238
g174
s(I17
I30
tp239
g47
s(I23
I0
tp240
g138
s(I32
I8
tp241
g43
s(I35
I5
tp242
g97
s(I25
I31
tp243
(i__main__
Link
p244
(dp245
g5
I0
sg6
g7
sg8
I4
sg9
g10
sg11
I0
sg12
(I425
I465
tp246
sbs(I11
I28
tp247
g160
s(I1
I6
tp248
g112
s(I39
I17
tp249
g164
s(I26
I6
tp250
(i__main__
Link
p251
(dp252
g5
I0
sg6
g7
sg8
I4
sg9
g10
sg11
I0
sg12
(I380
I144
tp253
sbs(I29
I27
tp254
(i__main__
Link
p255
(dp256
g5
I0
sg6
g21
sg8
I4
sg9
g78
sg11
I0
sg12
(I347
I151
tp257
sbs(I19
I29
tp258
g19
s(I5
I18
tp259
(i__main__
Link
p260
(dp261
g5
I0
sg6
g65
sg8
I4
sg9
g83
sg11
I0
sg12
(I122
I226
tp262
sbs(I17
I23
tp263
g190
s(I20
I4
tp264
g155
s(I23
I25
tp265
g102
s(I32
I15
tp266
g72
s(I35
I10
tp267
g51
s(I11
I21
tp268
(i__main__
Link
p269
(dp270
g5
I0
sg6
g7
sg8
I4
sg9
g10
sg11
I0
sg12
(I234
I387
tp271
sbs(I14
I2
tp272
g198
s(I1
I31
tp273
g174
s(I39
I14
tp274
g51
s(I26
I1
tp275
(i__main__
Link
p276
(dp277
g5
I0
sg6
g7
sg8
I4
sg9
g10
sg11
I0
sg12
(I424
I60
tp278
sbs(I29
I20
tp279
g143
s(I5
I27
tp280
g221
s(I17
I8
tp281
g125
s(I20
I3
tp282
g155
s(I23
I22
tp283
g102
s(I32
I6
tp284
g3
s(I11
I10
tp285
g87
s(I-3
I7
tp286
g91
s(I14
I5
tp287
g198
s(I36
I18
tp288
g164
s(I1
I16
tp289
g149
s(I39
I7
tp290
g178
s(I26
I8
tp291
g68
s(I5
I4
tp292
g29
s(I30
I20
tp293
g72
s(I17
I1
tp294
g155
s(I20
I10
tp295
g55
s(I10
I32
tp296
g160
s(I32
I29
tp297
(i__main__
Link
p298
(dp299
g5
I0
sg6
g21
sg8
I4
sg9
g78
sg11
I0
sg12
(I413
I154
tp300
sbs(I18
I32
tp301
g19
s(I8
I22
tp302
(i__main__
Link
p303
(dp304
g5
I0
sg6
g7
sg8
I4
sg9
g10
sg11
I0
sg12
(I138
I312
tp305
sbs(I11
I3
tp306
g198
s(I3
I-1
tp307
g29
s(I14
I12
tp308
g217
s(I36
I25
tp309
(i__main__
Link
p310
(dp311
g5
I0
sg6
g7
sg8
I4
sg9
g10
sg11
I0
sg12
(I605
I451
tp312
sbs(I26
I19
tp313
(i__main__
Link
p314
(dp315
g5
I0
sg6
g7
sg8
I4
sg9
g10
sg11
I0
sg12
(I405
I314
tp316
sbs(I2
I8
tp317
g112
s(I5
I13
tp318
g119
s(I30
I31
tp319
g255
s(I20
I17
tp320
g190
s(I32
I20
tp321
g72
s(I18
I27
tp322
g19
s(I8
I29
tp323
(i__main__
Link
p324
(dp325
g5
I0
sg6
g7
sg8
I4
sg9
g10
sg11
I0
sg12
(I127
I464
tp326
sbs(I-6
I4
tp327
g34
s(I33
I11
tp328
g43
s(I14
I23
tp329
g269
s(I36
I0
tp330
g97
s(I26
I26
tp331
g244
s(I12
I25
tp332
g269
s(I2
I3
tp333
g63
s(I12
I-1
tp334
g198
s(I27
I9
tp335
g68
s(I30
I6
tp336
g3
s(I20
I24
tp337
(i__main__
Link
p338
(dp339
g5
I0
sg6
g7
sg8
I4
sg9
g10
sg11
I0
sg12
(I335
I430
tp340
sbs(I3
I32
tp341
g174
s(I6
I31
tp342
g324
s(I18
I18
tp343
g190
s(I21
I7
tp344
g125
s(I8
I4
tp345
g29
s(I33
I12
tp346
g43
s(I14
I30
tp347
g47
s(I36
I15
tp348
g164
s(I12
I16
tp349
g59
s(I-1
I19
tp350
g204
s(I15
I5
tp351
g155
s(I2
I26
tp352
g174
s(I27
I14
tp353
g209
s(I30
I9
tp354
g68
s(I6
I22
tp355
g81
s(I18
I13
tp356
g217
s(I21
I0
tp357
g138
s(I8
I11
tp358
g87
s(I33
I5
tp359
g234
s(I12
I15
tp360
g106
s(I-1
I26
tp361
g174
s(I15
I2
tp362
g155
s(I37
I17
tp363
g164
s(I2
I21
tp364
g204
s(I27
I7
tp365
g68
s(I33
I-1
tp366
g234
s(I6
I9
tp367
g87
s(I31
I19
tp368
g72
s(I18
I4
tp369
g155
s(I21
I9
tp370
g125
s(I33
I30
tp371
g298
s(I39
I32
tp372
g76
s(I9
I21
tp373
g303
s(I12
I6
tp374
g132
s(I-1
I29
tp375
g174
s(I15
I11
tp376
g217
s(I37
I26
tp377
g76
s(I24
I1
tp378
g138
s(I-1
I13
tp379
g39
s(I27
I28
tp380
(i__main__
Link
p381
(dp382
g5
I0
sg6
g7
sg8
I4
sg9
g10
sg11
I0
sg12
(I487
I455
tp383
sbs(I-1
I6
tp384
g112
s(I3
I23
tp385
(i__main__
Link
p386
(dp387
g5
I0
sg6
g65
sg8
I4
sg9
g83
sg11
I0
sg12
(I105
I321
tp388
sbs(I-2
I27
tp389
g174
s(I6
I0
tp390
g29
s(I31
I24
tp391
g143
s(I40
I16
tp392
g164
s(I21
I18
tp393
g190
s(I33
I23
tp394
g143
s(I9
I30
tp395
g160
s(I-5
I11
tp396
g91
s(I-2
I4
tp397
g194
s(I34
I14
tp398
g51
s(I15
I16
tp399
g217
s(I37
I3
tp400
g97
s(I24
I8
tp401
g68
s(I27
I21
tp402
g143
s(I13
I26
tp403
g47
s(I3
I28
tp404
g174
s(I28
I12
tp405
g209
s(I31
I1
tp406
g234
s(I40
I23
tp407
g15
s(I21
I27
tp408
g19
s(I8
I32
tp409
g324
s(I7
I24
tp410
g25
s(I16
I32
tp411
g47
s(I22
I10
tp412
g55
s(I9
I7
tp413
g87
s(I5
I-2
tp414
(i__main__
Link
p415
(dp416
g5
I0
sg6
(I454
I92
tp417
sg8
I1
sg9
g94
sg11
I0
sg12
(I170
I54
tp418
sbs(I-2
I15
tp419
g39
s(I34
I9
tp420
g43
s(I15
I25
tp421
g269
s(I37
I12
tp422
g51
s(I24
I15
tp423
g55
s(I13
I19
tp424
g59
s(I0
I8
tp425
g112
s(I3
I5
tp426
g112
s(I28
I11
tp427
g68
s(I31
I14
tp428
g72
s(I40
I30
tp429
g76
s(I7
I17
tp430
g81
s(I22
I13
tp431
g55
s(I9
I8
tp432
g87
s(I34
I0
tp433
g97
s(I24
I22
tp434
g102
s(I13
I12
tp435
g106
s(I0
I15
tp436
g39
s(I14
I-1
tp437
g198
s(I38
I28
tp438
g76
s(I3
I10
tp439
g112
s(I28
I2
tp440
g3
s(I1
I32
tp441
g174
s(I40
I5
tp442
g97
s(I-1
I9
tp443
g112
s(I7
I14
tp444
g119
s(I16
I30
tp445
g47
s(I22
I4
tp446
g138
s(I34
I27
tp447
g76
s(I24
I29
tp448
g19
s(I10
I16
tp449
g119
s(I13
I5
tp450
g198
s(I0
I6
tp451
g112
s(I38
I23
tp452
g15
s(I25
I2
tp453
g138
s(I28
I25
tp454
(i__main__
Link
p455
(dp456
g5
I0
sg6
g21
sg8
I4
sg9
g78
sg11
I0
sg12
(I348
I141
tp457
sbs(I40
I12
tp458
g51
s(I4
I18
tp459
g149
s(I7
I7
tp460
(i__main__
Link
p461
(dp462
g5
I0
sg6
g7
sg8
I4
sg9
g10
sg11
I0
sg12
(I91
I81
tp463
sbs(I16
I21
tp464
g269
s(I19
I0
tp465
g155
s(I22
I31
tp466
g19
s(I-1
I32
tp467
g174
s(I34
I18
tp468
g164
s(I10
I27
tp469
g160
s(I35
I17
tp470
g164
s(I0
I29
tp471
g174
s(I38
I14
tp472
g51
s(I25
I11
tp473
g55
s(I28
I16
tp474
g209
s(I35
I-1
tp475
g97
s(I4
I25
tp476
g184
s(I29
I15
tp477
g209
s(I16
I12
tp478
g125
s(I19
I9
tp479
g125
s(I22
I22
tp480
g190
s(I37
I32
tp481
g76
s(I23
I13
tp482
g55
s(I10
I2
tp483
g198
s(I-4
I5
tp484
g91
s(I35
I22
tp485
g15
s(I0
I20
tp486
g204
s(I38
I1
tp487
g97
s(I-2
I30
tp488
g174
s(I25
I12
tp489
g209
s(I1
I11
tp490
g112
s(I4
I0
tp491
g63
s(I29
I8
tp492
g68
s(I16
I3
tp493
g155
s(I19
I14
tp494
g217
s(I23
I10
tp495
g55
s(I10
I13
tp496
g119
s(I35
I31
tp497
g76
s(I25
I21
tp498
g102
s(I1
I12
tp499
g39
s(I39
I27
tp500
g76
s(I4
I15
tp501
g39
s(I29
I1
tp502
g234
s(I19
I23
tp503
g190
s(I22
I32
tp504
g19
s(I30
I32
tp505
g255
s(I17
I29
tp506
g47
s(I23
I3
tp507
g138
s(I7
I-2
tp508
(i__main__
Link
p509
(dp510
g5
I0
sg6
g417
sg8
I1
sg9
g94
sg11
I0
sg12
(I200
I54
tp511
sbs(I32
I9
tp512
g43
s(I35
I4
tp513
g97
s(I25
I30
tp514
g244
s(I11
I31
tp515
g160
s(I1
I5
tp516
g112
s(I39
I16
tp517
g164
s(I26
I7
tp518
g68
s(I29
I26
tp519
g255
s(I19
I28
tp520
g19
s(I5
I17
tp521
g260
s(I17
I22
tp522
g190
s(I20
I5
tp523
g155
s(I23
I24
tp524
g102
s(I32
I0
tp525
g234
s(I35
I13
tp526
g51
s(I11
I20
tp527
g59
s(I14
I3
tp528
g198
s(I0
I-1
tp529
g170
s(I36
I20
tp530
g164
s(I1
I30
tp531
g174
s(I39
I9
tp532
g178
s(I26
I14
tp533
g209
s(I29
I19
tp534
g143
s(I15
I32
tp535
g47
s(I5
I26
tp536
g221
s(I30
I18
tp537
g72
s(I17
I15
tp538
g217
s(I20
I12
tp539
g55
s(I23
I17
tp540
g190
s(I32
I7
tp541
g3
s(I-2
I21
tp542
g204
s(I8
I16
tp543
g119
s(I11
I13
tp544
g119
s(I-3
I6
tp545
g91
s(I14
I10
tp546
(i__main__
Link
p547
(dp548
g5
I0
sg6
g7
sg8
I4
sg9
g10
sg11
I0
sg12
(I243
I160
tp549
sbs(I36
I19
tp550
g164
s(I1
I23
tp551
g386
s(I39
I6
tp552
g178
s(I26
I9
tp553
g68
s(I2
I14
tp554
g39
s(I5
I3
tp555
g29
s(I30
I21
tp556
g143
s(I17
I0
tp557
g155
s(I7
I-1
tp558
g29
s(I20
I11
tp559
g55
s(I32
I30
tp560
g298
s(I8
I23
tp561
g25
s(I11
I2
tp562
g198
s(I14
I13
tp563
g217
s(I36
I26
tp564
g76
s(I26
I16
tp565
g209
s(I37
I-1
tp566
g97
s(I2
I9
tp567
g112
s(I5
I12
tp568
(i__main__
Link
p569
(dp570
g5
I0
sg6
g7
sg8
I4
sg9
g10
sg11
I0
sg12
(I50
I255
tp571
sbs(I30
I28
tp572
g255
s(I20
I18
tp573
g190
s(I32
I21
tp574
g143
s(I35
I32
tp575
g76
s(I18
I24
tp576
g338
s(I-1
I1
tp577
g63
s(I8
I30
tp578
g324
s(I-6
I5
tp579
g91
s(I33
I10
tp580
g43
s(I14
I20
tp581
g59
s(I36
I1
tp582
g97
s(I26
I27
tp583
g244
s(I12
I26
tp584
g160
s(I2
I0
tp585
g63
s(I27
I8
tp586
g68
s(I30
I7
tp587
g68
s(I20
I25
tp588
g338
s(I6
I28
tp589
g324
s(I18
I19
tp590
g190
s(I21
I6
tp591
g125
s(I8
I5
tp592
g198
s(I33
I3
tp593
g234
s(I14
I31
tp594
g47
s(I36
I8
tp595
g178
s(I12
I17
tp596
g59
s(I-2
I16
tp597
g149
s(I15
I4
tp598
g155
s(I37
I23
tp599
g15
s(I2
I27
tp600
g174
s(I27
I1
tp601
g3
s(I30
I14
tp602
g72
s(I20
I32
tp603
g19
s(I6
I23
tp604
g25
s(I28
I32
tp605
g255
s(I31
I21
tp606
g143
s(I18
I10
tp607
g125
s(I21
I15
tp608
g55
s(I8
I12
tp609
g106
s(I33
I4
tp610
g234
s(I9
I19
tp611
g119
s(I12
I8
tp612
g547
s(I-1
I27
tp613
g174
s(I15
I13
tp614
g217
s(I37
I16
tp615
g164
s(I2
I18
tp616
g149
s(I27
I6
tp617
g3
s(I3
I17
tp618
g149
s(I6
I14
tp619
g119
s(I31
I18
tp620
g72
s(I18
I5
tp621
g155
s(I21
I8
tp622
g125
s(I33
I29
tp623
g298
s(I9
I20
tp624
g303
s(I12
I7
tp625
g547
s(I-2
I2
tp626
g63
s(I15
I10
tp627
g547
s(I37
I25
tp628
g310
s(I24
I2
tp629
g138
s(I27
I31
tp630
g381
s(I3
I22
tp631
g386
s(I6
I1
tp632
g29
s(I31
I27
tp633
g255
s(I40
I17
tp634
g164
s(I21
I17
tp635
g190
s(I33
I22
tp636
g143
s(I9
I29
tp637
g160
s(I-5
I10
tp638
g91
s(I-2
I5
tp639
g112
s(I34
I15
tp640
g164
s(I15
I19
tp641
g59
s(I37
I2
tp642
g97
s(I24
I9
tp643
g68
s(I27
I20
tp644
g143
s(I13
I25
tp645
g269
s(I3
I31
tp646
g174
s(I28
I13
tp647
g209
s(I31
I0
tp648
g234
s(I40
I24
tp649
g15
s(I21
I26
tp650
g19
s(I7
I27
tp651
g25
s(I22
I11
tp652
g55
s(I9
I6
tp653
(i__main__
Link
p654
(dp655
g5
I0
sg6
g7
sg8
I4
sg9
g10
sg11
I0
sg12
(I151
I59
tp656
sbs(I-5
I3
tp657
g34
s(I-2
I12
tp658
g39
s(I34
I6
tp659
g178
s(I15
I24
tp660
g269
s(I37
I11
tp661
g51
s(I24
I16
tp662
g55
s(I39
I-1
tp663
g97
s(I13
I18
tp664
g59
s(I0
I9
tp665
g112
s(I38
I26
tp666
g76
s(I3
I4
tp667
g194
s(I28
I4
tp668
g3
s(I31
I9
tp669
g43
s(I40
I31
tp670
g76
s(I-1
I8
tp671
g112
s(I7
I16
tp672
g81
s(I33
I32
tp673
g298
s(I16
I24
tp674
g269
s(I22
I2
tp675
g138
s(I9
I15
tp676
g119
s(I34
I1
tp677
g97
s(I24
I23
tp678
g102
s(I10
I22
tp679
g303
s(I13
I11
tp680
g547
s(I0
I0
tp681
g63
s(I38
I29
tp682
g76
s(I3
I13
tp683
g39
s(I28
I3
tp684
g3
s(I32
I-1
tp685
g234
s(I4
I20
tp686
g204
s(I7
I9
tp687
g87
s(I16
I31
tp688
g47
s(I22
I5
tp689
g138
s(I34
I24
tp690
g15
s(I24
I30
tp691
g19
s(I10
I17
tp692
g119
s(I13
I4
tp693
g198
s(I0
I7
tp694
g112
s(I38
I20
tp695
g164
s(I25
I1
tp696
g138
s(I2
I-1
tp697
g170
s(I28
I26
tp698
g255
s(I-2
I23
tp699
g386
s(I40
I13
tp700
g51
s(I4
I19
tp701
g204
s(I26
I32
tp702
g244
s(I7
I6
tp703
(i__main__
Link
p704
(dp705
g5
I0
sg6
g7
sg8
I4
sg9
g10
sg11
I0
sg12
(I74
I55
tp706
sbs(I16
I22
tp707
g269
s(I19
I3
tp708
g155
s(I22
I28
tp709
g19
s(I34
I19
tp710
g164
s(I10
I24
tp711
g25
s(I35
I16
tp712
g164
s(I0
I30
tp713
g174
s(I38
I15
tp714
g164
s(I-2
I25
tp715
g184
s(I25
I10
tp716
g55
s(I28
I17
tp717
g209
s(I4
I26
tp718
g174
s(I29
I14
tp719
g209
s(I16
I13
tp720
g217
s(I19
I8
tp721
g125
s(I22
I23
tp722
g190
s(I23
I12
tp723
g55
s(I6
I-1
tp724
g29
s(I10
I3
tp725
g198
s(I4
I-1
tp726
g29
s(I35
I25
tp727
g310
s(I0
I21
tp728
g204
s(I38
I6
tp729
g178
s(I25
I19
tp730
g314
s(I1
I10
tp731
g112
s(I39
I29
tp732
g76
s(I4
I1
tp733
g63
s(I29
I7
tp734
g68
s(I16
I4
tp735
g155
s(I19
I17
tp736
g190
s(I17
I27
tp737
g47
s(I23
I5
tp738
g138
s(I10
I10
tp739
g87
s(I35
I30
tp740
g76
s(I25
I20
tp741
g314
s(I11
I25
tp742
g269
s(I1
I3
tp743
g63
s(I39
I26
tp744
g76
s(I4
I8
tp745
g112
s(I29
I0
tp746
g234
s(I19
I22
tp747
g190
s(I5
I23
tp748
g25
s(I17
I28
tp749
g47
s(I23
I2
tp750
g138
s(I32
I10
tp751
g43
s(I35
I7
tp752
g178
s(I25
I29
tp753
g244
s(I25
I-1
tp754
g138
s(I11
I30
tp755
g160
s(I1
I4
tp756
g194
s(I39
I19
tp757
g164
s(I26
I4
tp758
g276
s(I29
I25
tp759
g455
s(I19
I31
tp760
g19
s(I5
I16
tp761
g260
s(I17
I21
tp762
g190
s(I20
I6
tp763
g125
s(I23
I27
tp764
g19
s(I32
I1
tp765
g234
s(I35
I12
tp766
g51
s(I11
I23
tp767
g269
s(I14
I0
tp768
g198
s(I36
I21
tp769
g164
s(I1
I29
tp770
g174
s(I39
I8
tp771
g178
s(I26
I15
tp772
g209
s(I29
I18
tp773
g143
s(I34
I-1
tp774
g97
s(I5
I25
tp775
g25
s(I30
I19
tp776
g72
s(I17
I14
tp777
g217
s(I20
I13
tp778
g55
s(I23
I16
tp779
g55
s(I32
I24
tp780
g143
s(I8
I17
tp781
g119
s(I11
I12
tp782
g106
s(I-3
I5
tp783
g91
s(I14
I11
tp784
g217
s(I36
I28
tp785
g76
s(I1
I22
tp786
g386
s(I39
I1
tp787
g97
s(I26
I22
tp788
g102
s(I2
I15
tp789
g39
s(I24
I32
tp790
g19
s(I5
I2
tp791
g29
s(I30
I26
tp792
g255
s(I17
I7
tp793
g125
s(I20
I20
tp794
g190
s(I32
I31
tp795
g298
s(I18
I30
tp796
g19
s(I-1
I0
tp797
g63
s(I8
I24
tp798
g25
s(I11
I5
tp799
g198
s(I14
I18
tp800
g59
s(I36
I27
tp801
g76
s(I26
I17
tp802
g209
s(I12
I28
tp803
g160
s(I2
I6
tp804
g112
s(I5
I11
tp805
g87
s(I30
I29
tp806
g255
s(I20
I19
tp807
g190
s(I6
I26
tp808
g25
s(I32
I22
tp809
g143
s(I18
I25
tp810
g338
s(I8
I31
tp811
g324
s(I6
I-2
tp812
(i__main__
Link
p813
(dp814
g5
I0
sg6
g417
sg8
I1
sg9
g94
sg11
I0
sg12
(I179
I55
tp815
sbs(I33
I9
tp816
g43
s(I14
I21
tp817
g269
s(I36
I2
tp818
g97
s(I26
I24
tp819
g102
s(I12
I27
tp820
g160
s(I2
I1
tp821
g63
s(I27
I11
tp822
g68
s(I30
I4
tp823
g234
s(I20
I26
tp824
g19
s(I6
I29
tp825
g324
s(I18
I16
tp826
g217
s(I21
I5
tp827
g138
s(I8
I6
tp828
g461
s(I33
I2
tp829
g234
s(I14
I28
tp830
g47
s(I36
I9
tp831
g178
s(I12
I18
tp832
g59
s(I-2
I17
tp833
g149
s(I15
I7
tp834
g547
s(I37
I22
tp835
g15
s(I2
I24
tp836
g184
s(I27
I0
tp837
g276
s(I30
I15
tp838
g72
s(I-1
I17
tp839
g149
s(I6
I20
tp840
g81
s(I31
I20
tp841
g72
s(I18
I11
tp842
g125
s(I21
I14
tp843
g55
s(I8
I13
tp844
g119
s(I33
I27
tp845
g298
s(I27
I-1
tp846
(i__main__
Link
p847
(dp848
g5
I0
sg6
g7
sg8
I1
sg9
(I0
I5
tp849
sg11
I0
sg12
(I443
I74
tp850
sbs(I9
I18
tp851
g119
s(I12
I9
tp852
g547
s(I-1
I24
tp853
g184
s(I15
I12
tp854
g217
s(I37
I31
tp855
g76
s(I2
I19
tp856
g204
s(I27
I25
tp857
g381
s(I3
I16
tp858
g149
s(I6
I15
tp859
g119
s(I31
I29
tp860
g255
s(I18
I2
tp861
g155
s(I21
I23
tp862
g190
s(I33
I28
tp863
g298
s(I9
I27
tp864
g160
s(I12
I0
tp865
g198
s(I-2
I3
tp866
g63
s(I15
I21
tp867
g269
s(I37
I24
tp868
g15
s(I24
I3
tp869
g138
s(I27
I30
tp870
g381
s(I13
I31
tp871
g47
s(I36
I-1
tp872
g97
s(I3
I25
tp873
g184
s(I6
I6
tp874
g704
s(I31
I26
tp875
g255
s(I40
I18
tp876
g164
s(I21
I16
tp877
g55
s(I7
I29
tp878
g324
s(I33
I21
tp879
g143
s(I9
I28
tp880
g160
s(I-2
I10
tp881
g112
s(I34
I12
tp882
g51
s(I15
I18
tp883
g59
s(I37
I1
tp884
g97
s(I24
I10
tp885
g55
s(I27
I23
tp886
g143
s(I13
I24
tp887
g269
s(I3
I30
tp888
g174
s(I28
I14
tp889
g209
s(I31
I3
tp890
g234
s(I40
I25
tp891
g310
s(I21
I25
tp892
g338
s(I7
I26
tp893
g25
s(I22
I8
tp894
g125
s(I9
I5
tp895
g198
s(I-5
I2
tp896
g34
s(I-2
I13
tp897
g39
s(I34
I7
tp898
g178
s(I15
I27
tp899
g47
s(I37
I10
tp900
g51
s(I24
I17
tp901
g314
s(I13
I17
tp902
g59
s(I0
I10
tp903
g112
s(I38
I27
tp904
g76
s(I3
I7
tp905
g112
s(I28
I5
tp906
g3
s(I31
I8
tp907
g43
s(I40
I0
tp908
g97
s(I7
I19
tp909
g81
s(I16
I25
tp910
g269
s(I22
I3
tp911
g138
s(I9
I14
tp912
g119
s(I34
I30
tp913
g76
s(I24
I24
tp914
g102
s(I10
I23
tp915
g25
s(I13
I10
tp916
g547
s(I0
I1
tp917
g63
s(I38
I18
tp918
g164
s(I3
I12
tp919
g39
s(I28
I28
tp920
g255
s(I40
I7
tp921
g178
s(I4
I21
tp922
g204
s(I7
I8
tp923
g461
s(I16
I16
tp924
g217
s(I22
I26
tp925
g19
s(I34
I25
tp926
g455
s(I24
I31
tp927
g19
s(I10
I30
tp928
g160
s(I13
I3
tp929
g198
s(I0
I24
tp930
g184
s(I38
I21
tp931
g164
s(I-2
I24
tp932
g184
s(I25
I0
tp933
g138
s(I28
I27
tp934
g255
s(I40
I14
tp935
g51
s(I4
I28
tp936
g174
s(I7
I1
tp937
g29
s(I16
I23
tp938
g269
s(I19
I2
tp939
g155
s(I22
I29
tp940
g19
s(I34
I16
tp941
g164
s(I29
I-1
tp942
g234
s(I10
I25
tp943
g25
s(I-4
I8
tp944
g91
s(I35
I19
tp945
g164
s(I0
I31
tp946
g174
s(I38
I12
tp947
g51
s(I25
I9
tp948
g68
s(I28
I18
tp949
g143
s(I4
I27
tp950
g174
s(I29
I13
tp951
g209
s(I16
I14
tp952
g217
s(I19
I11
tp953
g125
s(I22
I20
tp954
g190
s(I23
I15
tp955
g55
s(I10
I0
tp956
g198
s(I-4
I7
tp957
g91
s(I35
I24
tp958
g15
s(I0
I22
tp959
g386
s(I38
I7
tp960
g178
s(I25
I18
tp961
g209
s(I38
I-1
tp962
g97
s(I1
I9
tp963
g112
s(I39
I28
tp964
g76
s(I4
I2
tp965
g63
s(I29
I6
tp966
g3
s(I16
I5
tp967
g155
s(I40
I-1
tp968
g97
s(I19
I16
tp969
g217
s(I17
I26
tp970
g47
s(I23
I4
tp971
g138
s(I10
I11
tp972
g87
s(I35
I1
tp973
g97
s(I25
I27
tp974
g244
s(I11
I24
tp975
g269
s(I1
I2
tp976
g63
s(I39
I21
tp977
g164
s(I4
I9
tp978
g112
s(I29
I31
tp979
g255
s(I19
I25
tp980
g338
s(I5
I22
tp981
g260
s(I17
I19
tp982
g190
s(I23
I29
tp983
g19
s(I32
I11
tp984
g43
s(I35
I6
tp985
g178
s(I25
I28
tp986
g244
s(I-1
I5
tp987
g112
s(I11
I17
tp988
g119
s(I1
I27
tp989
g174
s(I39
I18
tp990
g164
s(I26
I5
tp991
g276
s(I29
I24
tp992
g143
s(I19
I30
tp993
g19
s(I5
I31
tp994
g221
s(I17
I20
tp995
g190
s(I20
I7
tp996
g125
s(I23
I26
tp997
g19
s(I32
I2
tp998
g234
s(I13
I32
tp999
g47
s(I35
I15
tp1000
g164
s(I11
I22
tp1001
g269
s(I-3
I11
tp1002
g91
s(I14
I1
tp1003
g198
s(I36
I22
tp1004
g15
s(I1
I28
tp1005
g174
s(I39
I11
tp1006
g51
s(I26
I12
tp1007
g209
s(I29
I17
tp1008
g209
s(I5
I24
tp1009
g25
s(I30
I16
tp1010
g72
s(I17
I13
tp1011
g217
s(I20
I14
tp1012
g55
s(I23
I19
tp1013
g190
s(I32
I25
tp1014
g455
s(I-1
I3
tp1015
g63
s(I8
I18
tp1016
g119
s(I11
I15
tp1017
g119
s(I-3
I4
tp1018
g34
s(I14
I8
tp1019
g547
s(I36
I29
tp1020
g76
s(I1
I21
tp1021
g204
s(I39
I0
tp1022
g97
s(I26
I23
tp1023
g102
s(I2
I12
tp1024
g39
s(I5
I1
tp1025
g29
s(I30
I27
tp1026
g255
s(I17
I6
tp1027
g125
s(I20
I21
tp1028
g190
s(I6
I32
tp1029
g324
s(I32
I16
tp1030
g72
s(I18
I31
tp1031
g19
s(I31
I-1
tp1032
g234
s(I8
I25
tp1033
g25
s(I11
I4
tp1034
g198
s(I14
I19
tp1035
g59
s(I36
I4
tp1036
g97
s(I26
I30
tp1037
g244
s(I12
I29
tp1038
g160
s(I2
I7
tp1039
g112
s(I5
I10
tp1040
g87
s(I30
I2
tp1041
g234
s(I20
I28
tp1042
g19
s(I6
I27
tp1043
g25
s(I32
I23
tp1044
g143
s(I3
I-2
tp1045
(i__main__
Link
p1046
(dp1047
g5
I0
sg6
g417
sg8
I1
sg9
g94
sg11
I0
sg12
(I137
I54
tp1048
sbs(I18
I22
tp1049
g190
s(I8
I0
tp1050
g29
s(I-6
I3
tp1051
g34
s(I33
I8
tp1052
g43
s(I14
I26
tp1053
g47
s(I36
I3
tp1054
g97
s(I26
I25
tp1055
g102
s(I24
I-1
tp1056
g138
s(I12
I20
tp1057
g59
s(I2
I30
tp1058
g174
s(I27
I10
tp1059
g68
s(I30
I5
tp1060
g234
s(I20
I27
tp1061
g19
s(I-1
I16
tp1062
g149
s(I6
I18
tp1063
g81
s(I18
I17
tp1064
g190
s(I21
I4
tp1065
g138
s(I8
I7
tp1066
g461
s(I-6
I10
tp1067
g91
s(I33
I1
tp1068
g234
s(I14
I29
tp1069
g47
s(I36
I10
tp1070
g51
s(I-6
I2
tp1071
g34
s(I12
I19
tp1072
g59
s(I-1
I22
tp1073
g386
s(I15
I6
tp1074
g132
s(I37
I21
tp1075
g164
s(I2
I25
tp1076
g184
s(I27
I3
tp1077
g3
s(I30
I12
tp1078
g209
s(I6
I21
tp1079
g81
s(I31
I23
tp1080
g143
s(I18
I8
tp1081
g125
s(I21
I13
tp1082
g55
s(I8
I14
tp1083
g119
s(I33
I26
tp1084
g298
s(I9
I17
tp1085
g119
s(I12
I10
tp1086
g547
s(I-1
I25
tp1087
g184
s(I15
I15
tp1088
g217
s(I37
I30
tp1089
g76
s(I2
I16
tp1090
g149
s(I27
I24
tp1091
g143
s(I3
I19
tp1092
g204
s(I6
I12
tp1093
g569
s(I31
I28
tp1094
g255
s(I18
I3
tp1095
g155
s(I21
I22
tp1096
g190
s(I11
I32
tp1097
g160
s(I33
I19
tp1098
g72
s(I9
I26
tp1099
g160
s(I12
I1
tp1100
g198
s(I-2
I0
tp1101
g63
s(I15
I20
tp1102
g59
s(I37
I7
tp1103
g178
s(I24
I4
tp1104
g138
s(I27
I17
tp1105
g209
s(I13
I30
tp1106
g47
s(I3
I24
tp1107
g184
s(I6
I7
tp1108
g461
s(I31
I5
tp1109
g234
s(I40
I19
tp1110
g164
s(I21
I31
tp1111
g19
s(I7
I28
tp1112
g324
s(I33
I20
tp1113
g72
s(I9
I3
tp1114
g29
s(I-2
I11
tp1115
g112
s(I34
I13
tp1116
g51
s(I15
I29
tp1117
g47
s(I37
I0
tp1118
g97
s(I24
I11
tp1119
g55
s(I27
I22
tp1120
g143
s(I13
I23
tp1121
g269
s(I3
I1
tp1122
g63
s(I28
I15
tp1123
g209
s(I31
I2
tp1124
g234
s(I40
I26
tp1125
g76
s(I21
I24
tp1126
g338
s(I4
I32
tp1127
g174
s(I7
I21
tp1128
g81
s(I17
I-1
tp1129
g155
s(I22
I9
tp1130
g125
s(I9
I4
tp1131
g29
s(I-5
I5
tp1132
g91
s(I34
I4
tp1133
g97
s(I15
I26
tp1134
g47
s(I37
I9
tp1135
g178
s(I24
I18
tp1136
g314
s(I13
I16
tp1137
g59
s(I0
I11
tp1138
g112
s(I38
I24
tp1139
g15
s(I3
I6
tp1140
g112
s(I28
I6
tp1141
g3
s(I31
I11
tp1142
g43
s(I40
I1
tp1143
g97
s(I-1
I7
tp1144
g112
s(I7
I18
tp1145
g81
s(I16
I26
tp1146
g47
s(I22
I0
tp1147
g138
s(I9
I13
tp1148
g119
s(I34
I31
tp1149
g76
s(I24
I25
tp1150
g102
s(I26
I-1
tp1151
(i__main__
Link
p1152
(dp1153
g5
I0
sg6
g7
sg8
I1
sg9
g849
sg11
I0
sg12
(I426
I74
tp1154
sbs(I10
I20
tp1155
g303
s(I13
I9
tp1156
g547
s(I0
I2
tp1157
g63
s(I38
I19
tp1158
g164
s(I3
I15
tp1159
g39
s(I28
I29
tp1160
g255
s(I40
I8
tp1161
g178
s(I4
I22
tp1162
g386
s(I7
I11
tp1163
g87
s(I16
I17
tp1164
g217
s(I22
I27
tp1165
g19
s(I34
I22
tp1166
g15
s(I10
I31
tp1167
g160
s(I13
I2
tp1168
g198
s(I0
I25
tp1169
g184
s(I38
I10
tp1170
g51
s(I25
I7
tp1171
g68
s(I28
I20
tp1172
g143
s(I40
I15
tp1173
g164
s(I4
I29
tp1174
g174
s(I7
I0
tp1175
g29
s(I16
I8
tp1176
g125
s(I19
I5
tp1177
g155
s(I22
I18
tp1178
g190
s(I34
I17
tp1179
g164
s(I10
I6
tp1180
g654
s(I-4
I9
tp1181
g91
s(I35
I18
tp1182
g164
s(I0
I16
tp1183
g149
s(I38
I13
tp1184
g51
s(I25
I8
tp1185
g68
s(I28
I19
tp1186
g143
s(I4
I4
tp1187
g194
s(I29
I12
tp1188
g209
s(I16
I15
tp1189
g217
s(I19
I10
tp1190
g125
s(I22
I21
tp1191
g190
s(I9
I32
tp1192
g160
s(I17
I32
tp1193
g47
s(I23
I14
tp1194
g55
s(I10
I1
tp1195
g198
s(I35
I27
tp1196
g76
s(I0
I23
tp1197
g386
s(I38
I4
tp1198
g97
s(I25
I17
tp1199
g209
s(I1
I8
tp1200
g112
s(I39
I31
tp1201
g76
s(I4
I3
tp1202
g63
s(I29
I5
tp1203
g234
s(I16
I6
tp1204
g125
s(I19
I19
tp1205
g190
s(I17
I25
tp1206
g338
s(I23
I7
tp1207
(i__main__
Link
p1208
(dp1209
g5
I0
sg6
g7
sg8
I4
sg9
g10
sg11
I0
sg12
(I341
I109
tp1210
sbs(I10
I8
tp1211
g87
s(I35
I0
tp1212
g97
s(I25
I26
tp1213
g244
s(I11
I27
tp1214
g160
s(I1
I1
tp1215
g63
s(I39
I20
tp1216
g164
s(I4
I10
tp1217
g112
s(I29
I30
tp1218
g255
s(I19
I24
tp1219
g338
s(I2
I32
tp1220
g174
s(I5
I21
tp1221
g260
s(I19
I-1
tp1222
g155
s(I17
I18
tp1223
g190
s(I23
I28
tp1224
g19
s(I32
I12
tp1225
g43
s(I35
I9
tp1226
g43
s(I11
I16
tp1227
g119
s(I1
I26
tp1228
g174
s(I39
I13
tp1229
g51
s(I26
I2
tp1230
g276
s(I29
I23
tp1231
g143
s(I5
I30
tp1232
g221
s(I17
I11
tp1233
g125
s(I20
I0
tp1234
g155
s(I23
I21
tp1235
g102
s(I32
I3
tp1236
g234
s(I35
I14
tp1237
g51
s(I-1
I2
tp1238
g63
s(I28
I-1
tp1239
(i__main__
Link
p1240
(dp1241
g5
I0
sg6
g7
sg8
I1
sg9
g849
sg11
I0
sg12
(I455
I68
tp1242
sbs(I11
I9
tp1243
g87
s(I-3
I10
tp1244
g91
s(I14
I6
tp1245
g132
s(I36
I23
tp1246
g15
s(I1
I19
tp1247
g204
s(I39
I10
tp1248
g51
s(I26
I13
tp1249
g209
s(I29
I16
tp1250
g209
s(I5
I7
tp1251
g461
s(I30
I17
tp1252
g72
s(I17
I12
tp1253
g125
s(I20
I15
tp1254
g55
s(I23
I18
tp1255
g190
s(I32
I26
tp1256
g298
s(I38
I32
tp1257
g76
s(I8
I19
tp1258
g119
s(I11
I14
tp1259
g119
s(I-3
I3
tp1260
g34
s(I14
I9
tp1261
g547
s(I36
I30
tp1262
g76
s(I1
I20
tp1263
g204
s(I39
I3
tp1264
g97
s(I26
I20
tp1265
g314
s(I2
I13
tp1266
g39
s(I5
I0
tp1267
g29
s(I30
I24
tp1268
g143
s(I17
I5
tp1269
g155
s(I20
I22
tp1270
g190
s(I32
I17
tp1271
g72
s(I18
I28
tp1272
g19
s(I8
I26
tp1273
g25
s(I11
I7
tp1274
g87
s(I14
I16
tp1275
g217
s(I36
I5
tp1276
g97
s(I26
I31
tp1277
g244
s(I12
I30
tp1278
g160
s(I2
I4
tp1279
g194
s(I5
I9
tp1280
g87
s(I30
I3
tp1281
g234
s(I20
I29
tp1282
g19
s(I-2
I19
tp1283
g204
s(I23
I32
tp1284
g19
s(I6
I24
tp1285
g25
s(I31
I32
tp1286
g255
s(I18
I23
tp1287
g190
s(I8
I1
tp1288
g29
s(I33
I15
tp1289
g72
s(I14
I27
tp1290
g47
s(I36
I12
tp1291
g51
s(I-2
I26
tp1292
g174
s(I12
I21
tp1293
g269
s(I2
I31
tp1294
g174
s(I27
I13
tp1295
g209
s(I30
I10
tp1296
g68
s(I6
I19
tp1297
g81
s(I18
I14
tp1298
g217
s(I21
I3
tp1299
g138
s(I8
I8
tp1300
g461
s(I-6
I11
tp1301
g91
s(I33
I0
tp1302
g234
s(I36
I11
tp1303
g51
s(I12
I12
tp1304
g106
s(I-1
I23
tp1305
g386
s(I15
I1
tp1306
g155
s(I37
I20
tp1307
g164
s(I2
I22
tp1308
g386
s(I27
I2
tp1309
g3
s(I30
I13
tp1310
g209
s(I0
I32
tp1311
g174
s(I6
I10
tp1312
g87
s(I21
I-1
tp1313
g138
s(I31
I22
tp1314
g143
s(I18
I9
tp1315
g125
s(I21
I12
tp1316
g55
s(I8
I15
tp1317
g119
s(I33
I25
tp1318
g455
s(I9
I16
tp1319
g119
s(I12
I11
tp1320
g547
s(I-1
I30
tp1321
g174
s(I15
I14
tp1322
g217
s(I37
I29
tp1323
g76
s(I2
I17
tp1324
g149
s(I27
I27
tp1325
g381
s(I3
I18
tp1326
g149
s(I6
I13
tp1327
g119
s(I31
I31
tp1328
g255
s(I18
I0
tp1329
g155
s(I21
I21
tp1330
g190
s(I33
I18
tp1331
g72
s(I30
I-1
tp1332
g234
s(I9
I25
tp1333
g25
s(I12
I2
tp1334
g198
s(I-2
I1
tp1335
g63
s(I15
I23
tp1336
g269
s(I37
I6
tp1337
g178
s(I24
I5
tp1338
g138
s(I27
I16
tp1339
g209
s(I13
I29
tp1340
g47
s(I3
I27
tp1341
g174
s(I6
I4
tp1342
g29
s(I31
I4
tp1343
g234
s(I40
I20
tp1344
g164
s(I21
I30
tp1345
g19
s(I7
I31
tp1346
g324
s(I36
I32
tp1347
g76
s(I9
I2
tp1348
g29
s(I-2
I8
tp1349
g112
s(I34
I10
tp1350
g51
s(I15
I28
tp1351
g47
s(I37
I15
tp1352
g164
s(I24
I12
tp1353
g55
s(I13
I22
tp1354
g269
s(I3
I0
tp1355
g63
s(I28
I8
tp1356
g68
s(I31
I13
tp1357
g209
s(I40
I27
tp1358
g76
s(I7
I20
tp1359
g81
s(I22
I14
tp1360
g55
s(I9
I11
tp1361
g87
s(I-5
I4
tp1362
g34
s(I34
I5
tp1363
g97
s(I37
I8
tp1364
g178
s(I24
I19
tp1365
g314
s(I13
I15
tp1366
g106
s(I0
I12
tp1367
g39
s(I38
I25
tp1368
g310
s(I3
I9
tp1369
g112
s(I28
I7
tp1370
g68
s(I31
I10
tp1371
g43
s(I40
I2
tp1372
g97
s(I21
I32
tp1373
g19
s(I7
I13
tp1374
g119
s(I29
I32
tp1375
g255
s(I16
I27
tp1376
g47
s(I22
I1
tp1377
g138
s(I9
I12
tp1378
g106
s(I34
I28
tp1379
g76
s(I24
I26
tp1380
g19
s(I10
I21
tp1381
g303
s(I13
I8
tp1382
g547
s(I0
I3
tp1383
g63
s(I38
I16
tp1384
g164
s(I3
I14
tp1385
g39
s(I28
I30
tp1386
g255
s(I40
I9
tp1387
g178
s(I4
I23
tp1388
g386
s(I7
I10
tp1389
g87
s(I16
I18
tp1390
g59
s(I22
I24
tp1391
g338
s(I34
I23
tp1392
g15
s(I10
I28
tp1393
g160
s(I13
I1
tp1394
g198
s(I0
I26
tp1395
g174
s(I38
I11
tp1396
g51
s(I25
I6
tp1397
g251
s(I28
I21
tp1398
g143
s(I14
I32
tp1399
g47
s(I4
I30
tp1400
g174
s(I7
I3
tp1401
g29
s(I23
I-1
tp1402
g138
s(I16
I9
tp1403
g125
s(I19
I4
tp1404
g155
s(I22
I19
tp1405
g190
s(I10
I7
tp1406
g87
s(I-4
I10
tp1407
g91
s(I35
I21
tp1408
g164
s(I0
I17
tp1409
g149
s(I38
I2
tp1410
g97
s(I25
I15
tp1411
g209
s(I-1
I12
tp1412
g39
s(I4
I5
tp1413
g112
s(I-2
I-1
tp1414
g170
s(I29
I11
tp1415
g68
s(I16
I0
tp1416
g155
s(I19
I13
tp1417
g217
s(I16
I-1
tp1418
g155
s(I23
I9
tp1419
g1208
s(I10
I14
tp1420
g119
s(I-4
I1
tp1421
g34
s(I35
I26
tp1422
g76
s(I38
I5
tp1423
g97
s(I25
I16
tp1424
g209
s(I1
I15
tp1425
g39
s(I39
I30
tp1426
g76
s(I4
I12
tp1427
g39
s(I29
I4
tp1428
g234
s(I16
I7
tp1429
g125
s(I19
I18
tp1430
g190
s(I-2
I20
tp1431
g204
s(I34
I32
tp1432
g76
s(I17
I24
tp1433
g338
s(I23
I6
tp1434
g1208
s(I10
I9
tp1435
g87
s(I35
I3
tp1436
g97
s(I25
I25
tp1437
g102
s(I11
I26
tp1438
g160
s(I1
I0
tp1439
g63
s(I39
I23
tp1440
g15
s(I4
I11
tp1441
g112
s(I29
I29
tp1442
g255
s(I19
I27
tp1443
g19
s(I5
I20
tp1444
g260
s(I17
I17
tp1445
g190
s(I23
I31
tp1446
g19
s(I32
I13
tp1447
g43
s(I35
I8
tp1448
g43
s(I-2
I29
tp1449
g174
s(I11
I19
tp1450
g119
s(I1
I25
tp1451
g184
s(I39
I12
tp1452
g51
s(I26
I3
tp1453
g276
s(I29
I22
tp1454
g143
s(I19
I32
tp1455
g19
s(I5
I29
tp1456
g221
s(I27
I32
tp1457
g244
s(I17
I10
tp1458
g125
s(I20
I1
tp1459
g155
s(I23
I20
tp1460
g190
s(I32
I4
tp1461
g234
s(I11
I8
tp1462
g87
s(I-3
I9
tp1463
g91
s(I14
I7
tp1464
g547
s(I36
I16
tp1465
g164
s(I1
I18
tp1466
g149
s(I39
I5
tp1467
g97
s(I26
I10
tp1468
g55
s(I5
I6
tp1469
g704
s(I30
I22
tp1470
g143
s(I17
I3
tp1471
g155
s(I20
I8
tp1472
g125
s(I32
I27
tp1473
g298
s(I8
I20
tp1474
g303
s(I11
I1
tp1475
g198
s(I-3
I2
tp1476
g34
s(I14
I14
tp1477
g217
s(I36
I31
tp1478
g76
s(I39
I2
tp1479
g97
s(I26
I21
tp1480
g102
s(I2
I10
tp1481
g112
s(I5
I15
tp1482
g119
s(I9
I-1
tp1483
g29
s(I30
I25
tp1484
g455
s(I17
I4
tp1485
g155
s(I20
I23
tp1486
g190
s(I-2
I18
tp1487
g149
s(I32
I18
tp1488
g72
s(I18
I29
tp1489
g19
s(I8
I27
tp1490
g25
s(I-6
I6
tp1491
g91
s(I11
I6
tp1492
g132
s(I14
I17
tp1493
g217
s(I36
I6
tp1494
g178
s(I26
I28
tp1495
g244
s(I12
I31
tp1496
g160
s(I2
I5
tp1497
g112
s(I5
I8
tp1498
g461
s(I30
I0
tp1499
g234
s(I20
I30
tp1500
g19
s(I6
I25
tp1501
g25
s(I18
I-1
tp1502
g155
s(I18
I20
tp1503
g190
s(I8
I2
tp1504
g29
s(I-6
I1
tp1505
g34
s(I33
I14
tp1506
g72
s(I14
I24
tp1507
g269
s(I36
I13
tp1508
g51
s(I12
I22
tp1509
g269
s(I2
I28
tp1510
g174
s(I27
I12
tp1511
g209
s(I30
I11
tp1512
g68
s(I6
I16
tp1513
g81
s(I32
I32
tp1514
g298
s(I18
I15
tp1515
g217
s(I40
I32
tp1516
g76
s(I21
I2
tp1517
g138
s(I8
I9
tp1518
g87
s(I-6
I8
tp1519
g91
s(I33
I7
tp1520
g3
s(I12
I13
tp1521
g106
s(I-1
I20
tp1522
g204
s(I15
I0
tp1523
g155
s(I37
I19
tp1524
g164
s(I2
I23
tp1525
g386
s(I27
I5
tp1526
g3
s(I6
I11
tp1527
g87
s(I31
I17
tp1528
g72
s(I18
I6
tp1529
g125
s(I21
I11
tp1530
g55
s(I33
I24
tp1531
g143
s(I9
I23
tp1532
g25
s(I12
I4
tp1533
g198
s(I-1
I31
tp1534
g174
s(I15
I9
tp1535
g547
s(I9
I-2
tp1536
(i__main__
Link
p1537
(dp1538
g5
I0
sg6
g417
sg8
I1
sg9
g94
sg11
I0
sg12
(I234
I50
tp1539
sbs(I37
I28
tp1540
g76
s(I27
I26
tp1541
g381
s(I3
I21
tp1542
g204
s(I25
I32
tp1543
g244
s(I6
I2
tp1544
g29
s(I40
I6
tp1545
g178
s(I31
I30
tp1546
g255
s(I18
I1
tp1547
g155
s(I21
I20
tp1548
g190
s(I33
I17
tp1549
g72
s(I9
I24
tp1550
g25
s(I-5
I9
tp1551
g91
s(I12
I3
tp1552
g198
s(I-2
I6
tp1553
g112
s(I15
I22
tp1554
g269
s(I37
I5
tp1555
g97
s(I24
I6
tp1556
g1208
s(I27
I19
tp1557
g143
s(I13
I28
tp1558
g47
s(I3
I26
tp1559
g174
s(I6
I5
tp1560
g704
s(I31
I7
tp1561
g3
s(I40
I21
tp1562
g164
s(I21
I29
tp1563
g19
s(I7
I30
tp1564
g324
s(I9
I1
tp1565
g29
s(I-2
I9
tp1566
g112
s(I34
I11
tp1567
g51
s(I15
I31
tp1568
g47
s(I37
I14
tp1569
g51
s(I-2
I22
tp1570
g386
s(I24
I13
tp1571
g55
s(I13
I21
tp1572
g269
s(I3
I3
tp1573
g63
s(I11
I-1
tp1574
g198
s(I28
I9
tp1575
g68
s(I31
I12
tp1576
g209
s(I40
I28
tp1577
g76
s(I7
I23
tp1578
g25
s(I22
I15
tp1579
g55
s(I9
I10
tp1580
g87
s(I-5
I7
tp1581
g91
s(I34
I2
tp1582
g97
s(I24
I20
tp1583
g314
s(I13
I14
tp1584
g106
s(I0
I13
tp1585
g39
s(I38
I30
tp1586
g76
s(I3
I8
tp1587
g112
s(I28
I0
tp1588
g276
s(I40
I3
tp1589
g97
s(I7
I12
tp1590
g87
s(I20
I-1
tp1591
g155
s(I16
I28
tp1592
g47
s(I22
I6
tp1593
g125
s(I34
I29
tp1594
g76
s(I24
I27
tp1595
g19
s(I10
I18
tp1596
g119
s(I13
I7
tp1597
g547
s(I0
I4
tp1598
g194
s(I38
I17
tp1599
g164
s(I28
I31
tp1600
g255
s(I40
I10
tp1601
g51
s(I4
I16
tp1602
g149
s(I7
I5
tp1603
g704
s(I16
I19
tp1604
g59
s(I22
I25
tp1605
g338
s(I34
I20
tp1606
g164
s(I10
I29
tp1607
g160
s(I13
I0
tp1608
g198
s(I5
I-1
tp1609
g29
s(I0
I27
tp1610
g174
s(I38
I8
tp1611
g178
s(I25
I5
tp1612
g138
s(I28
I22
tp1613
g143
s(I-1
I15
tp1614
g39
s(I4
I31
tp1615
g174
s(I7
I2
tp1616
g29
s(I16
I10
tp1617
g125
s(I19
I7
tp1618
g125
s(I22
I16
tp1619
g55
s(I10
I4
tp1620
g198
s(I-4
I11
tp1621
g91
s(I35
I20
tp1622
g164
s(I0
I18
tp1623
g149
s(I38
I3
tp1624
g97
s(I25
I14
tp1625
g209
s(I4
I6
tp1626
g112
s(I29
I10
tp1627
g68
s(I16
I1
tp1628
g155
s(I19
I12
tp1629
g125
s(I23
I8
tp1630
g1208
s(I10
I15
tp1631
g119
s(I-4
I2
tp1632
g34
s(I35
I29
tp1633
g76
s(I25
I23
tp1634
g102
s(I1
I14
tp1635
g39
s(I39
I25
tp1636
g310
s(I4
I13
tp1637
g39
s(I29
I3
tp1638
g234
s(I-1
I10
tp1639
g112
s(I19
I21
tp1640
g190
s(I17
I31
tp1641
g47
s(I23
I1
tp1642
g138
s(I35
I2
tp1643
g97
s(I-2
I28
tp1644
g174
s(I25
I24
tp1645
g102
s(I11
I29
tp1646
g160
s(I1
I7
tp1647
g112
s(I13
I-1
tp1648
g198
s(I39
I22
tp1649
g15
s(I29
I28
tp1650
g255
s(I19
I26
tp1651
g19
s(I5
I19
tp1652
g260
s(I17
I16
tp1653
g217
s(I23
I30
tp1654
g19
s(I32
I14
tp1655
g72
s(I35
I11
tp1656
g51
s(I11
I18
tp1657
g119
s(I-4
I6
tp1658
g91
s(I1
I24
tp1659
g184
s(I39
I15
tp1660
g164
s(I26
I0
tp1661
g276
s(I29
I21
tp1662
g143
s(I5
I28
tp1663
g221
s(I22
I-1
tp1664
g138
s(I17
I9
tp1665
g125
s(I20
I2
tp1666
g155
s(I23
I23
tp1667
g102
s(I32
I5
tp1668
g234
s(I11
I11
tp1669
g87
s(I-3
I8
tp1670
g91
s(I14
I4
tp1671
g198
s(I36
I17
tp1672
g164
s(I1
I17
tp1673
g149
s(I39
I4
tp1674
g97
s(I26
I11
tp1675
g55
s(I5
I5
tp1676
g704
s(I8
I-2
tp1677
(i__main__
Link
p1678
(dp1679
g5
I0
sg6
g417
sg8
I1
sg9
g94
sg11
I0
sg12
(I210
I54
tp1680
sbs(I30
I23
tp1681
g143
s(I17
I2
tp1682
g155
s(I20
I9
tp1683
g125
s(I32
I28
tp1684
g298
s(I8
I21
tp1685
g303
s(I11
I0
tp1686
g198
s(I-3
I1
tp1687
g34
s(I14
I15
tp1688
g217
s(I36
I24
tp1689
g15
s(I26
I18
tp1690
g209
s(I2
I11
tp1691
g112
s(I-1
I-1
tp1692
g170
s(I5
I14
tp1693
g119
s(I30
I30
tp1694
g255
s(I20
I16
tp1695
g55
s(I32
I19
tp1696
g72
s(I18
I26
tp1697
g19
s(I8
I28
tp1698
g324
s(I-6
I7
tp1699
g91
s(I14
I22
tp1700
g269
s(I36
I7
tp1701
g178
s(I26
I29
tp1702
g244
s(I12
I24
tp1703
g269
s(I2
I2
tp1704
g63
s(I30
I1
tp1705
g234
s(I20
I31
tp1706
g19
s(I6
I30
tp1707
g324
s(I18
I21
tp1708
g190
s(I8
I3
tp1709
g29
s(I33
I13
tp1710
g43
s(I14
I25
tp1711
g269
s(I36
I14
tp1712
g51
s(I12
I23
tp1713
g269
s(I-1
I18
tp1714
g149
s(I2
I29
tp1715
g174
s(I27
I15
tp1716
g209
s(I30
I8
tp1717
g68
s(I6
I17
tp1718
g81
s(I18
I12
tp1719
g125
s(I21
I1
tp1720
g138
s(I8
I10
tp1721
g87
s(I-6
I9
tp1722
g91
s(I33
I6
tp1723
g3
s(I12
I14
tp1724
g106
s(I-1
I21
tp1725
g204
s(I15
I3
tp1726
g155
s(I15
I-1
tp1727
g155
s(I37
I18
tp1728
g164
s(I2
I20
tp1729
g204
s(I27
I4
tp1730
g3
s(I6
I8
tp1731
g461
s(I31
I16
tp1732
g72
s(I18
I7
tp1733
g125
s(I21
I10
tp1734
g55
s(I33
I31
tp1735
g298
s(I9
I22
tp1736
g303
s(I12
I5
tp1737
g198
s(I-1
I28
tp1738
g174
s(I15
I8
tp1739
g547
s(I37
I27
tp1740
g76
s(I24
I0
tp1741
g138
s(I27
I29
tp1742
g381
s(I3
I20
tp1743
g204
s(I4
I-2
tp1744
(i__main__
Link
p1745
(dp1746
g5
I0
sg6
g417
sg8
I1
sg9
g94
sg11
I0
sg12
(I156
I54
tp1747
sbs(I6
I3
tp1748
g29
s(I8
I-1
tp1749
g29
s(I31
I25
tp1750
g455
s(I21
I19
tp1751
g190
s(I7
I32
tp1752
g324
s(I33
I16
tp1753
g72
s(I9
I31
tp1754
g160
s(I-5
I8
tp1755
g91
s(I-2
I7
tp1756
g112
s(I15
I17
tp1757
g217
s(I37
I4
tp1758
g97
s(I24
I7
tp1759
g68
s(I27
I18
tp1760
g143
s(I13
I27
tp1761
g47
s(I3
I29
tp1762
g174
sa(dp1763
(I5
I4
tp1764
(i__main__
Link
p1765
(dp1766
g5
I1
sg6
(I136
I68
tp1767
sg8
I1
sg9
(I5
I5
tp1768
sg11
I6
sg12
(I169
I144
tp1769
sbsa(dp1770
(I-2
I-1
tp1771
(i__main__
Link
p1772
(dp1773
g5
I2
sg6
(I4
I130
tp1774
sg8
I1
sg9
g1768
sg11
I88
sg12
(I57
I74
tp1775
sbsa(dp1776
a(dp1777
a(dp1778
a.